EXPORTS
 "_Z14is_valid_modelP7SEXPREC"
 "_Z15edge_completionP7SEXPRECNSt7__cxx1112basic_stringIcSt11char_traitsIcESaIcEEEidd"
 "_Z15edge_free_modelP7SEXPREC"
 "_Z15edge_load_modelNSt7__cxx1112basic_stringIcSt11char_traitsIcESaIcEEEii"
 "_Z17set_llama_loggingb"
 "_Z18quiet_log_callback14ggml_log_levelPKcPv"
 "_Z22edge_completion_streamP7SEXPRECNSt7__cxx1112basic_stringIcSt11char_traitsIcESaIcEEEN4Rcpp13Function_ImplINS7_15PreserveStorageEEEidd"
 "_ZdlPvS_"
 "_ZGVZN4Rcpp20Rcpp_precious_removeEP7SEXPRECE3fun"
 "_ZGVZN4Rcpp22Rcpp_precious_preserveEP7SEXPRECE3fun"
 "_ZN10tinyformat10FormatListC2EPNS_6detail9FormatArgEi"
 "_ZN10tinyformat11formatValueIPKcEEvRSoS2_S2_iRKT_"
 "_ZN10tinyformat11formatValueIxEEvRSoPKcS3_iRKT_"
 "_ZN10tinyformat14makeFormatListIJEEENS_6detail11FormatListNIXsZT_EEEDpRKT_"
 "_ZN10tinyformat14makeFormatListIJPKcEEENS_6detail11FormatListNIXsZT_EEEDpRKT_"
 "_ZN10tinyformat14makeFormatListIJxxEEENS_6detail11FormatListNIXsZT_EEEDpRKT_"
 "_ZN10tinyformat6detail10formatImplERSoPKcPKNS0_9FormatArgEi"
 "_ZN10tinyformat6detail11FormatListNILi0EEC1Ev"
 "_ZN10tinyformat6detail11FormatListNILi1EEC1IJPKcEEEDpRKT_"
 "_ZN10tinyformat6detail11FormatListNILi2EEC1IJxxEEEDpRKT_"
 "_ZN10tinyformat6detail12convertToIntIPKcLb0EE6invokeERKS3_"
 "_ZN10tinyformat6detail12convertToIntIxLb1EE6invokeERKx"
 "_ZN10tinyformat6detail15formatTruncatedERSoPKci"
 "_ZN10tinyformat6detail15formatTruncatedIxEEvRSoRKT_i"
 "_ZN10tinyformat6detail17formatValueAsTypeIPKcPKvLb1EE6invokeERSoRKS3_"
 "_ZN10tinyformat6detail17formatValueAsTypeIxcLb1EE6invokeERSoRKx"
 "_ZN10tinyformat6detail18parseIntAndAdvanceERPKc"
 "_ZN10tinyformat6detail21streamStateFromFormatERSoRbRiPKcPKNS0_9FormatArgES3_i"
 "_ZN10tinyformat6detail24printFormatStringLiteralERSoPKc"
 "_ZN10tinyformat6detail9FormatArg10formatImplIPKcEEvRSoS4_S4_iPKv"
 "_ZN10tinyformat6detail9FormatArg10formatImplIxEEvRSoPKcS5_iPKv"
 "_ZN10tinyformat6detail9FormatArg9toIntImplIPKcEEiPKv"
 "_ZN10tinyformat6detail9FormatArg9toIntImplIxEEiPKv"
 "_ZN10tinyformat6detail9FormatArgC1IPKcEERKT_"
 "_ZN10tinyformat6detail9FormatArgC1IxEERKT_"
 "_ZN10tinyformat6formatIJEEENSt7__cxx1112basic_stringIcSt11char_traitsIcESaIcEEEPKcDpRKT_"
 "_ZN10tinyformat6formatIJEEEvRSoPKcDpRKT_"
 "_ZN10tinyformat6formatIJPKcEEENSt7__cxx1112basic_stringIcSt11char_traitsIcESaIcEEES2_DpRKT_"
 "_ZN10tinyformat6formatIJPKcEEEvRSoS2_DpRKT_"
 "_ZN10tinyformat6formatIJxxEEENSt7__cxx1112basic_stringIcSt11char_traitsIcESaIcEEEPKcDpRKT_"
 "_ZN10tinyformat6formatIJxxEEEvRSoPKcDpRKT_"
 "_ZN10tinyformat7vformatERSoPKcRKNS_10FormatListE"
 "_ZN16EdgeModelContextC1Ev"
 "_ZN16EdgeModelContextD1Ev"
 "_ZN4Rcpp10RstreambufILb0EE4syncEv"
 "_ZN4Rcpp10RstreambufILb0EE6xsputnEPKcx"
 "_ZN4Rcpp10RstreambufILb0EE8overflowEi"
 "_ZN4Rcpp10RstreambufILb0EEC1Ev"
 "_ZN4Rcpp10RstreambufILb0EED0Ev"
 "_ZN4Rcpp10RstreambufILb0EED1Ev"
 "_ZN4Rcpp10RstreambufILb1EE4syncEv"
 "_ZN4Rcpp10RstreambufILb1EE6xsputnEPKcx"
 "_ZN4Rcpp10RstreambufILb1EE8overflowEi"
 "_ZN4Rcpp10RstreambufILb1EEC1Ev"
 "_ZN4Rcpp10RstreambufILb1EED0Ev"
 "_ZN4Rcpp10RstreambufILb1EED1Ev"
 "_ZN4Rcpp12Rcpp_protectEP7SEXPREC"
 "_ZN4Rcpp13unwindProtectEPFP7SEXPRECPvES2_"
 "_ZN4Rcpp14not_compatibleC1IJPKcEEES3_DpOT_"
 "_ZN4Rcpp14not_compatibleD0Ev"
 "_ZN4Rcpp14not_compatibleD1Ev"
 "_ZN4Rcpp14Rcpp_fast_evalEP7SEXPRECS1_"
 "_ZN4Rcpp14Rcpp_unprotectEi"
 "_ZN4Rcpp15PreserveStorageINS_4XPtrI16EdgeModelContextS0_XadL_ZNS_25standard_delete_finalizerIS2_EEvPT_EELb0EEEE5set__EP7SEXPREC"
 "_ZN4Rcpp15PreserveStorageINS_4XPtrI16EdgeModelContextS0_XadL_ZNS_25standard_delete_finalizerIS2_EEvPT_EELb0EEEEC2Ev"
 "_ZN4Rcpp15PreserveStorageINS_4XPtrI16EdgeModelContextS0_XadL_ZNS_25standard_delete_finalizerIS2_EEvPT_EELb0EEEED2Ev"
 "_ZN4Rcpp15PreserveStorageINS_6VectorILi10ES0_EEE5set__EP7SEXPREC"
 "_ZN4Rcpp15PreserveStorageINS_6VectorILi10ES0_EEE6copy__IS2_EERT_RKS5_"
 "_ZN4Rcpp15PreserveStorageINS_6VectorILi10ES0_EEEC2Ev"
 "_ZN4Rcpp15PreserveStorageINS_6VectorILi10ES0_EEED2Ev"
 "_ZN4Rcpp15PreserveStorageINS_6VectorILi19ES0_EEE5set__EP7SEXPREC"
 "_ZN4Rcpp15PreserveStorageINS_6VectorILi19ES0_EEEC2Ev"
 "_ZN4Rcpp15PreserveStorageINS_6VectorILi19ES0_EEED2Ev"
 "_ZN4Rcpp17finalizer_wrapperI16EdgeModelContextXadL_ZNS_25standard_delete_finalizerIS1_EEvPT_EEEEvP7SEXPREC"
 "_ZN4Rcpp17LongjumpExceptionC1EP7SEXPREC"
 "_ZN4Rcpp20AttributeProxyPolicyINS_4XPtrI16EdgeModelContextNS_15PreserveStorageEXadL_ZNS_25standard_delete_finalizerIS2_EEvPT_EELb0EEEE14AttributeProxy3setEP7SEXPREC"
 "_ZN4Rcpp20AttributeProxyPolicyINS_4XPtrI16EdgeModelContextNS_15PreserveStorageEXadL_ZNS_25standard_delete_finalizerIS2_EEvPT_EELb0EEEE14AttributeProxyaSIA19_cEERS9_RKS5_"
 "_ZN4Rcpp20AttributeProxyPolicyINS_4XPtrI16EdgeModelContextNS_15PreserveStorageEXadL_ZNS_25standard_delete_finalizerIS2_EEvPT_EELb0EEEE14AttributeProxyC1ERS7_RKNSt7__cxx1112basic_stringIcSt11char_traitsIcESaIcEEE"
 "_ZN4Rcpp20AttributeProxyPolicyINS_4XPtrI16EdgeModelContextNS_15PreserveStorageEXadL_ZNS_25standard_delete_finalizerIS2_EEvPT_EELb0EEEE4attrERKNSt7__cxx1112basic_stringIcSt11char_traitsIcESaIcEEE"
 "_ZN4Rcpp20AttributeProxyPolicyINS_6VectorILi19ENS_15PreserveStorageEEEE14AttributeProxy3setEP7SEXPREC"
 "_ZN4Rcpp20AttributeProxyPolicyINS_6VectorILi19ENS_15PreserveStorageEEEE14AttributeProxyaSINS_6ShieldIP7SEXPRECEEEERS5_RKT_"
 "_ZN4Rcpp20AttributeProxyPolicyINS_6VectorILi19ENS_15PreserveStorageEEEE14AttributeProxyC1ERS3_RKNSt7__cxx1112basic_stringIcSt11char_traitsIcESaIcEEE"
 "_ZN4Rcpp20AttributeProxyPolicyINS_6VectorILi19ENS_15PreserveStorageEEEE4attrERKNSt7__cxx1112basic_stringIcSt11char_traitsIcESaIcEEE"
 "_ZN4Rcpp20Rcpp_precious_removeEP7SEXPREC"
 "_ZN4Rcpp20Rcpp_PreciousReleaseEP7SEXPREC"
 "_ZN4Rcpp21Rcpp_PreciousPreserveEP7SEXPREC"
 "_ZN4Rcpp22Rcpp_precious_preserveEP7SEXPREC"
 "_ZN4Rcpp25standard_delete_finalizerI16EdgeModelContextEEvPT_"
 "_ZN4Rcpp2asINS_6VectorILi10ENS_15PreserveStorageEEEEET_P7SEXPREC"
 "_ZN4Rcpp2isINS_6VectorILi10ENS_15PreserveStorageEEEEEbP7SEXPREC"
 "_ZN4Rcpp4growEP7SEXPRECS1_"
 "_ZN4Rcpp4growINS_6VectorILi19ENS_15PreserveStorageEEEEEP7SEXPRECRKT_S5_"
 "_ZN4Rcpp4stopERKNSt7__cxx1112basic_stringIcSt11char_traitsIcESaIcEEE"
 "_ZN4Rcpp4stopIJEEEvPKcDpOT_"
 "_ZN4Rcpp4wrapEPKc"
 "_ZN4Rcpp4wrapIbEEP7SEXPRECRKT_"
 "_ZN4Rcpp4wrapIiEEP7SEXPRECRKT_"
 "_ZN4Rcpp4wrapINS_6ShieldIP7SEXPRECEEEES3_RKT_"
 "_ZN4Rcpp4wrapINS_6VectorILi19ENS_15PreserveStorageEEEEEP7SEXPRECRKT_"
 "_ZN4Rcpp4wrapINSt7__cxx1112basic_stringIcSt11char_traitsIcESaIcEEEEEP7SEXPRECRKT_"
 "_ZN4Rcpp4wrapISt6vectorINSt7__cxx1112basic_stringIcSt11char_traitsIcESaIcEEESaIS7_EEEEP7SEXPRECRKT_"
 "_ZN4Rcpp4XPtrI16EdgeModelContextNS_15PreserveStorageEXadL_ZNS_25standard_delete_finalizerIS1_EEvPT_EELb0EE11checked_setEP7SEXPREC"
 "_ZN4Rcpp4XPtrI16EdgeModelContextNS_15PreserveStorageEXadL_ZNS_25standard_delete_finalizerIS1_EEvPT_EELb0EE18setDeleteFinalizerEv"
 "_ZN4Rcpp4XPtrI16EdgeModelContextNS_15PreserveStorageEXadL_ZNS_25standard_delete_finalizerIS1_EEvPT_EELb0EE6updateEP7SEXPREC"
 "_ZN4Rcpp4XPtrI16EdgeModelContextNS_15PreserveStorageEXadL_ZNS_25standard_delete_finalizerIS1_EEvPT_EELb0EEC1EP7SEXPREC"
 "_ZN4Rcpp4XPtrI16EdgeModelContextNS_15PreserveStorageEXadL_ZNS_25standard_delete_finalizerIS1_EEvPT_EELb0EEC1EPS1_bP7SEXPRECS9_"
 "_ZN4Rcpp4XPtrI16EdgeModelContextNS_15PreserveStorageEXadL_ZNS_25standard_delete_finalizerIS1_EEvPT_EELb0EED1Ev"
 "_ZN4Rcpp5NamedERKNSt7__cxx1112basic_stringIcSt11char_traitsIcESaIcEEE"
 "_ZN4Rcpp6r_castILi10EEEP7SEXPRECS2_"
 "_ZN4Rcpp6ShieldIP7SEXPRECEC1ES2_"
 "_ZN4Rcpp6ShieldIP7SEXPRECED1Ev"
 "_ZN4Rcpp6traits11proxy_cacheILi19ENS_15PreserveStorageEE6updateERKNS_6VectorILi19ES2_EE"
 "_ZN4Rcpp6traits11proxy_cacheILi19ENS_15PreserveStorageEEC1Ev"
 "_ZN4Rcpp6traits11proxy_cacheILi19ENS_15PreserveStorageEED1Ev"
 "_ZN4Rcpp6traits12named_objectIA1_cEC1ERKNSt7__cxx1112basic_stringIcSt11char_traitsIcESaIcEEERA1_Kc"
 "_ZN4Rcpp6traits12named_objectIbEC1ERKNSt7__cxx1112basic_stringIcSt11char_traitsIcESaIcEEERKb"
 "_ZN4Rcpp6traits12named_objectIiEC1ERKNSt7__cxx1112basic_stringIcSt11char_traitsIcESaIcEEERKi"
 "_ZN4Rcpp6traits12named_objectINSt7__cxx1112basic_stringIcSt11char_traitsIcESaIcEEEEC1ERKS7_SA_"
 "_ZN4Rcpp6traits12named_objectISt6vectorINSt7__cxx1112basic_stringIcSt11char_traitsIcESaIcEEESaIS8_EEEC1ERKS8_RKSA_"
 "_ZN4Rcpp6traits14r_vector_cacheILi10ENS_15PreserveStorageEE3refEx"
 "_ZN4Rcpp6traits14r_vector_cacheILi10ENS_15PreserveStorageEE6updateERKNS_6VectorILi10ES2_EE"
 "_ZN4Rcpp6traits14r_vector_cacheILi10ENS_15PreserveStorageEEC1Ev"
 "_ZN4Rcpp6traits8ExporterINS_6VectorILi10ENS_15PreserveStorageEEEE3getEv"
 "_ZN4Rcpp6traits8ExporterINS_6VectorILi10ENS_15PreserveStorageEEEEC1EP7SEXPREC"
 "_ZN4Rcpp6traits8ExporterINS_6VectorILi10ENS_15PreserveStorageEEEED1Ev"
 "_ZN4Rcpp6VectorILi10ENS_15PreserveStorageEE6updateEP7SEXPREC"
 "_ZN4Rcpp6VectorILi10ENS_15PreserveStorageEEC1EP7SEXPREC"
 "_ZN4Rcpp6VectorILi10ENS_15PreserveStorageEEC1ERKS2_"
 "_ZN4Rcpp6VectorILi10ENS_15PreserveStorageEED1Ev"
 "_ZN4Rcpp6VectorILi10ENS_15PreserveStorageEEixEx"
 "_ZN4Rcpp6VectorILi19ENS_15PreserveStorageEE15replace_elementINS_6traits12named_objectIA1_cEEEEvNS_8internal14Proxy_IteratorINS8_13generic_proxyILi19ES1_EEEEP7SEXPRECxRKT_"
 "_ZN4Rcpp6VectorILi19ENS_15PreserveStorageEE15replace_elementINS_6traits12named_objectIbEEEEvNS_8internal14Proxy_IteratorINS7_13generic_proxyILi19ES1_EEEEP7SEXPRECxRKT_"
 "_ZN4Rcpp6VectorILi19ENS_15PreserveStorageEE15replace_elementINS_6traits12named_objectIiEEEEvNS_8internal14Proxy_IteratorINS7_13generic_proxyILi19ES1_EEEEP7SEXPRECxRKT_"
 "_ZN4Rcpp6VectorILi19ENS_15PreserveStorageEE15replace_elementINS_6traits12named_objectINSt7__cxx1112basic_stringIcSt11char_traitsIcESaIcEEEEEEEvNS_8internal14Proxy_IteratorINSD_13generic_proxyILi19ES1_EEEEP7SEXPRECxRKT_"
 "_ZN4Rcpp6VectorILi19ENS_15PreserveStorageEE15replace_elementINS_6traits12named_objectISt6vectorINSt7__cxx1112basic_stringIcSt11char_traitsIcESaIcEEESaISC_EEEEEEvNS_8internal14Proxy_IteratorINSG_13generic_proxyILi19ES1_EEEEP7SEXPRECxRKT_"
 "_ZN4Rcpp6VectorILi19ENS_15PreserveStorageEE16create__dispatchIJNS_6traits12named_objectIA1_cEENS5_IiEENS5_IbEES8_NS5_INSt7__cxx1112basic_stringIcSt11char_traitsIcESaIcEEEEES9_EEES2_NS4_17integral_constantIbLb1EEEDpRKT_"
 "_ZN4Rcpp6VectorILi19ENS_15PreserveStorageEE16create__dispatchIJNS_6traits12named_objectINSt7__cxx1112basic_stringIcSt11char_traitsIcESaIcEEEEENS5_IiEENS5_IbEESD_EEES2_NS4_17integral_constantIbLb1EEEDpRKT_"
 "_ZN4Rcpp6VectorILi19ENS_15PreserveStorageEE16create__dispatchIJNS_6traits12named_objectINSt7__cxx1112basic_stringIcSt11char_traitsIcESaIcEEEEENS5_ISt6vectorISB_SaISB_EEEENS5_IiEENS5_IbEESC_EEES2_NS4_17integral_constantIbLb1EEEDpRKT_"
 "_ZN4Rcpp6VectorILi19ENS_15PreserveStorageEE20replace_element_implINS_6traits12named_objectIA1_cEEJNS5_IiEENS5_IbEES8_NS5_INSt7__cxx1112basic_stringIcSt11char_traitsIcESaIcEEEEES9_EEEvRNS_8internal14Proxy_IteratorINSH_13generic_proxyILi19ES1_EEEERNS_6ShieldIP7SEXPRECEERiRKT_DpRKT0_"
 "_ZN4Rcpp6VectorILi19ENS_15PreserveStorageEE20replace_element_implINS_6traits12named_objectIbEEEEvRNS_8internal14Proxy_IteratorINS7_13generic_proxyILi19ES1_EEEERNS_6ShieldIP7SEXPRECEERiRKT_"
 "_ZN4Rcpp6VectorILi19ENS_15PreserveStorageEE20replace_element_implINS_6traits12named_objectIbEEJNS5_IiEEEEEvRNS_8internal14Proxy_IteratorINS8_13generic_proxyILi19ES1_EEEERNS_6ShieldIP7SEXPRECEERiRKT_DpRKT0_"
 "_ZN4Rcpp6VectorILi19ENS_15PreserveStorageEE20replace_element_implINS_6traits12named_objectIbEEJNS5_IiEENS5_INSt7__cxx1112basic_stringIcSt11char_traitsIcESaIcEEEEES6_EEEvRNS_8internal14Proxy_IteratorINSF_13generic_proxyILi19ES1_EEEERNS_6ShieldIP7SEXPRECEERiRKT_DpRKT0_"
 "_ZN4Rcpp6VectorILi19ENS_15PreserveStorageEE20replace_element_implINS_6traits12named_objectIbEEJNS5_INSt7__cxx1112basic_stringIcSt11char_traitsIcESaIcEEEEEEEEvRNS_8internal14Proxy_IteratorINSE_13generic_proxyILi19ES1_EEEERNS_6ShieldIP7SEXPRECEERiRKT_DpRKT0_"
 "_ZN4Rcpp6VectorILi19ENS_15PreserveStorageEE20replace_element_implINS_6traits12named_objectIiEEEEvRNS_8internal14Proxy_IteratorINS7_13generic_proxyILi19ES1_EEEERNS_6ShieldIP7SEXPRECEERiRKT_"
 "_ZN4Rcpp6VectorILi19ENS_15PreserveStorageEE20replace_element_implINS_6traits12named_objectIiEEJNS5_IbEENS5_INSt7__cxx1112basic_stringIcSt11char_traitsIcESaIcEEEEEEEEvRNS_8internal14Proxy_IteratorINSF_13generic_proxyILi19ES1_EEEERNS_6ShieldIP7SEXPRECEERiRKT_DpRKT0_"
 "_ZN4Rcpp6VectorILi19ENS_15PreserveStorageEE20replace_element_implINS_6traits12named_objectIiEEJNS5_IbEES6_EEEvRNS_8internal14Proxy_IteratorINS8_13generic_proxyILi19ES1_EEEERNS_6ShieldIP7SEXPRECEERiRKT_DpRKT0_"
 "_ZN4Rcpp6VectorILi19ENS_15PreserveStorageEE20replace_element_implINS_6traits12named_objectIiEEJNS5_IbEES6_NS5_INSt7__cxx1112basic_stringIcSt11char_traitsIcESaIcEEEEES7_EEEvRNS_8internal14Proxy_IteratorINSF_13generic_proxyILi19ES1_EEEERNS_6ShieldIP7SEXPRECEERiRKT_DpRKT0_"
 "_ZN4Rcpp6VectorILi19ENS_15PreserveStorageEE20replace_element_implINS_6traits12named_objectIiEEJNS5_INSt7__cxx1112basic_stringIcSt11char_traitsIcESaIcEEEEENS5_IbEEEEEvRNS_8internal14Proxy_IteratorINSF_13generic_proxyILi19ES1_EEEERNS_6ShieldIP7SEXPRECEERiRKT_DpRKT0_"
 "_ZN4Rcpp6VectorILi19ENS_15PreserveStorageEE20replace_element_implINS_6traits12named_objectINSt7__cxx1112basic_stringIcSt11char_traitsIcESaIcEEEEEEEvRNS_8internal14Proxy_IteratorINSD_13generic_proxyILi19ES1_EEEERNS_6ShieldIP7SEXPRECEERiRKT_"
 "_ZN4Rcpp6VectorILi19ENS_15PreserveStorageEE20replace_element_implINS_6traits12named_objectINSt7__cxx1112basic_stringIcSt11char_traitsIcESaIcEEEEEJNS5_IbEEEEEvRNS_8internal14Proxy_IteratorINSE_13generic_proxyILi19ES1_EEEERNS_6ShieldIP7SEXPRECEERiRKT_DpRKT0_"
 "_ZN4Rcpp6VectorILi19ENS_15PreserveStorageEE20replace_element_implINS_6traits12named_objectINSt7__cxx1112basic_stringIcSt11char_traitsIcESaIcEEEEEJNS5_IiEENS5_IbEESD_EEEvRNS_8internal14Proxy_IteratorINSF_13generic_proxyILi19ES1_EEEERNS_6ShieldIP7SEXPRECEERiRKT_DpRKT0_"
 "_ZN4Rcpp6VectorILi19ENS_15PreserveStorageEE20replace_element_implINS_6traits12named_objectINSt7__cxx1112basic_stringIcSt11char_traitsIcESaIcEEEEEJNS5_ISt6vectorISB_SaISB_EEEENS5_IiEENS5_IbEESC_EEEvRNS_8internal14Proxy_IteratorINSJ_13generic_proxyILi19ES1_EEEERNS_6ShieldIP7SEXPRECEERiRKT_DpRKT0_"
 "_ZN4Rcpp6VectorILi19ENS_15PreserveStorageEE20replace_element_implINS_6traits12named_objectISt6vectorINSt7__cxx1112basic_stringIcSt11char_traitsIcESaIcEEESaISC_EEEEJNS5_IiEENS5_IbEENS5_ISC_EEEEEvRNS_8internal14Proxy_IteratorINSJ_13generic_proxyILi19ES1_EEEERNS_6ShieldIP7SEXPRECEERiRKT_DpRKT0_"
 "_ZN4Rcpp6VectorILi19ENS_15PreserveStorageEE25replace_element__dispatchINS_6traits12named_objectIA1_cEEEEvNS4_17integral_constantIbLb1EEENS_8internal14Proxy_IteratorINSA_13generic_proxyILi19ES1_EEEEP7SEXPRECxRKT_"
 "_ZN4Rcpp6VectorILi19ENS_15PreserveStorageEE25replace_element__dispatchINS_6traits12named_objectIbEEEEvNS4_17integral_constantIbLb1EEENS_8internal14Proxy_IteratorINS9_13generic_proxyILi19ES1_EEEEP7SEXPRECxRKT_"
 "_ZN4Rcpp6VectorILi19ENS_15PreserveStorageEE25replace_element__dispatchINS_6traits12named_objectIiEEEEvNS4_17integral_constantIbLb1EEENS_8internal14Proxy_IteratorINS9_13generic_proxyILi19ES1_EEEEP7SEXPRECxRKT_"
 "_ZN4Rcpp6VectorILi19ENS_15PreserveStorageEE25replace_element__dispatchINS_6traits12named_objectINSt7__cxx1112basic_stringIcSt11char_traitsIcESaIcEEEEEEEvNS4_17integral_constantIbLb1EEENS_8internal14Proxy_IteratorINSF_13generic_proxyILi19ES1_EEEEP7SEXPRECxRKT_"
 "_ZN4Rcpp6VectorILi19ENS_15PreserveStorageEE25replace_element__dispatchINS_6traits12named_objectISt6vectorINSt7__cxx1112basic_stringIcSt11char_traitsIcESaIcEEESaISC_EEEEEEvNS4_17integral_constantIbLb1EEENS_8internal14Proxy_IteratorINSI_13generic_proxyILi19ES1_EEEEP7SEXPRECxRKT_"
 "_ZN4Rcpp6VectorILi19ENS_15PreserveStorageEE37replace_element__dispatch__isArgumentINS_6traits12named_objectIA1_cEEEEvNS4_17integral_constantIbLb0EEENS_8internal14Proxy_IteratorINSA_13generic_proxyILi19ES1_EEEEP7SEXPRECxRKT_"
 "_ZN4Rcpp6VectorILi19ENS_15PreserveStorageEE37replace_element__dispatch__isArgumentINS_6traits12named_objectIbEEEEvNS4_17integral_constantIbLb0EEENS_8internal14Proxy_IteratorINS9_13generic_proxyILi19ES1_EEEEP7SEXPRECxRKT_"
 "_ZN4Rcpp6VectorILi19ENS_15PreserveStorageEE37replace_element__dispatch__isArgumentINS_6traits12named_objectIiEEEEvNS4_17integral_constantIbLb0EEENS_8internal14Proxy_IteratorINS9_13generic_proxyILi19ES1_EEEEP7SEXPRECxRKT_"
 "_ZN4Rcpp6VectorILi19ENS_15PreserveStorageEE37replace_element__dispatch__isArgumentINS_6traits12named_objectINSt7__cxx1112basic_stringIcSt11char_traitsIcESaIcEEEEEEEvNS4_17integral_constantIbLb0EEENS_8internal14Proxy_IteratorINSF_13generic_proxyILi19ES1_EEEEP7SEXPRECxRKT_"
 "_ZN4Rcpp6VectorILi19ENS_15PreserveStorageEE37replace_element__dispatch__isArgumentINS_6traits12named_objectISt6vectorINSt7__cxx1112basic_stringIcSt11char_traitsIcESaIcEEESaISC_EEEEEEvNS4_17integral_constantIbLb0EEENS_8internal14Proxy_IteratorINSI_13generic_proxyILi19ES1_EEEEP7SEXPRECxRKT_"
 "_ZN4Rcpp6VectorILi19ENS_15PreserveStorageEE4initEv"
 "_ZN4Rcpp6VectorILi19ENS_15PreserveStorageEE5beginEv"
 "_ZN4Rcpp6VectorILi19ENS_15PreserveStorageEE6createIJNS_6traits12named_objectIA1_cEENS5_IiEENS5_IbEES8_NS5_INSt7__cxx1112basic_stringIcSt11char_traitsIcESaIcEEEEES9_EEES2_DpRKT_"
 "_ZN4Rcpp6VectorILi19ENS_15PreserveStorageEE6createIJNS_6traits12named_objectINSt7__cxx1112basic_stringIcSt11char_traitsIcESaIcEEEEENS5_IiEENS5_IbEESD_EEES2_DpRKT_"
 "_ZN4Rcpp6VectorILi19ENS_15PreserveStorageEE6createIJNS_6traits12named_objectINSt7__cxx1112basic_stringIcSt11char_traitsIcESaIcEEEEENS5_ISt6vectorISB_SaISB_EEEENS5_IiEENS5_IbEESC_EEES2_DpRKT_"
 "_ZN4Rcpp6VectorILi19ENS_15PreserveStorageEE6updateEP7SEXPREC"
 "_ZN4Rcpp6VectorILi19ENS_15PreserveStorageEEC1IyEET_PNS_6traits9enable_ifIXsrNS5_13is_arithmeticIS4_EE5valueEvE4typeE"
 "_ZN4Rcpp6VectorILi19ENS_15PreserveStorageEED1Ev"
 "_ZN4Rcpp7warningERKNSt7__cxx1112basic_stringIcSt11char_traitsIcESaIcEEE"
 "_ZN4Rcpp7warningIJRxRKxEEEvPKcDpOT_"
 "_ZN4Rcpp8ArgumentaSIA1_cEENS_6traits12named_objectIT_EERKS5_"
 "_ZN4Rcpp8ArgumentaSIbEENS_6traits12named_objectIT_EERKS4_"
 "_ZN4Rcpp8ArgumentaSIiEENS_6traits12named_objectIT_EERKS4_"
 "_ZN4Rcpp8ArgumentaSINSt7__cxx1112basic_stringIcSt11char_traitsIcESaIcEEEEENS_6traits12named_objectIT_EERKSA_"
 "_ZN4Rcpp8ArgumentaSISt6vectorINSt7__cxx1112basic_stringIcSt11char_traitsIcESaIcEEESaIS8_EEEENS_6traits12named_objectIT_EERKSD_"
 "_ZN4Rcpp8ArgumentC1ERKNSt7__cxx1112basic_stringIcSt11char_traitsIcESaIcEEE"
 "_ZN4Rcpp8ArgumentD1Ev"
 "_ZN4Rcpp8internal10basic_castILi10EEEP7SEXPRECS3_"
 "_ZN4Rcpp8internal10is__simpleINS_6VectorILi10ENS_15PreserveStorageEEEEEbP7SEXPREC"
 "_ZN4Rcpp8internal10range_wrapIN9__gnu_cxx17__normal_iteratorIPKNSt7__cxx1112basic_stringIcSt11char_traitsIcESaIcEEESt6vectorIS9_SaIS9_EEEEEEP7SEXPRECT_SI_"
 "_ZN4Rcpp8internal11r_true_castILi10EEEP7SEXPRECS3_"
 "_ZN4Rcpp8internal12is__dispatchINS_6VectorILi10ENS_15PreserveStorageEEEEEbP7SEXPRECNS_6traits17integral_constantIbLb0EEE"
 "_ZN4Rcpp8internal13generic_proxyILi19ENS_15PreserveStorageEE3setEP7SEXPREC"
 "_ZN4Rcpp8internal13generic_proxyILi19ENS_15PreserveStorageEE4moveEx"
 "_ZN4Rcpp8internal13generic_proxyILi19ENS_15PreserveStorageEEaSEP7SEXPREC"
 "_ZN4Rcpp8internal13generic_proxyILi19ENS_15PreserveStorageEEC1ERKS3_"
 "_ZN4Rcpp8internal13generic_proxyILi19ENS_15PreserveStorageEEC1ERNS_6VectorILi19ES2_EEx"
 "_ZN4Rcpp8internal13make_charsexpINSt7__cxx1112basic_stringIcSt11char_traitsIcESaIcEEEEEP7SEXPRECRKT_"
 "_ZN4Rcpp8internal13r_init_vectorILi19EEEvP7SEXPREC"
 "_ZN4Rcpp8internal13wrap_dispatchIbEEP7SEXPRECRKT_NS_6traits23wrap_type_primitive_tagE"
 "_ZN4Rcpp8internal13wrap_dispatchIiEEP7SEXPRECRKT_NS_6traits23wrap_type_primitive_tagE"
 "_ZN4Rcpp8internal13wrap_dispatchINS_6ShieldIP7SEXPRECEEEES4_RKT_NS_6traits21wrap_type_unknown_tagE"
 "_ZN4Rcpp8internal13wrap_dispatchINS_6VectorILi19ENS_15PreserveStorageEEEEEP7SEXPRECRKT_NS_6traits21wrap_type_unknown_tagE"
 "_ZN4Rcpp8internal13wrap_dispatchINSt7__cxx1112basic_stringIcSt11char_traitsIcESaIcEEEEEP7SEXPRECRKT_NS_6traits23wrap_type_primitive_tagE"
 "_ZN4Rcpp8internal13wrap_dispatchISt6vectorINSt7__cxx1112basic_stringIcSt11char_traitsIcESaIcEEESaIS8_EEEEP7SEXPRECRKT_NS_6traits21wrap_type_unknown_tagE"
 "_ZN4Rcpp8internal14grow__dispatchINS_6VectorILi19ENS_15PreserveStorageEEEEEP7SEXPRECNS_6traits17integral_constantIbLb0EEERKT_S6_"
 "_ZN4Rcpp8internal14primitive_wrapIbEEP7SEXPRECRKT_"
 "_ZN4Rcpp8internal14primitive_wrapIiEEP7SEXPRECRKT_"
 "_ZN4Rcpp8internal14primitive_wrapINSt7__cxx1112basic_stringIcSt11char_traitsIcESaIcEEEEEP7SEXPRECRKT_"
 "_ZN4Rcpp8internal14Proxy_IteratorINS0_13generic_proxyILi19ENS_15PreserveStorageEEEEC1ERKS4_"
 "_ZN4Rcpp8internal14Proxy_IteratorINS0_13generic_proxyILi19ENS_15PreserveStorageEEEEC1ERKS5_"
 "_ZN4Rcpp8internal14Proxy_IteratorINS0_13generic_proxyILi19ENS_15PreserveStorageEEEEdeEv"
 "_ZN4Rcpp8internal14Proxy_IteratorINS0_13generic_proxyILi19ENS_15PreserveStorageEEEEppEv"
 "_ZN4Rcpp8internal14r_vector_startILi10EEEPNS_6traits12storage_typeIXT_EE4typeEP7SEXPREC"
 "_ZN4Rcpp8internal14r_vector_startILi13EEEPNS_6traits12storage_typeIXT_EE4typeEP7SEXPREC"
 "_ZN4Rcpp8internal16getLongjumpTokenEP7SEXPREC"
 "_ZN4Rcpp8internal16NamedPlaceHolderC1Ev"
 "_ZN4Rcpp8internal16NamedPlaceHolderD1Ev"
 "_ZN4Rcpp8internal18isLongjumpSentinelEP7SEXPREC"
 "_ZN4Rcpp8internal19make_charsexp__implINSt7__cxx1112basic_stringIcSt11char_traitsIcESaIcEEEEEP7SEXPRECRKT_NS_6traits17integral_constantIbLb0EEE"
 "_ZN4Rcpp8internal19range_wrap_dispatchIN9__gnu_cxx17__normal_iteratorIPKNSt7__cxx1112basic_stringIcSt11char_traitsIcESaIcEEESt6vectorIS9_SaIS9_EEEES9_EEP7SEXPRECT_SI_"
 "_ZN4Rcpp8internal19Rcpp_protected_evalEPv"
 "_ZN4Rcpp8internal19wrap_dispatch_eigenINS_6ShieldIP7SEXPRECEEEES4_RKT_NS_6traits17integral_constantIbLb0EEE"
 "_ZN4Rcpp8internal19wrap_dispatch_eigenINS_6VectorILi19ENS_15PreserveStorageEEEEEP7SEXPRECRKT_NS_6traits17integral_constantIbLb0EEE"
 "_ZN4Rcpp8internal19wrap_dispatch_eigenISt6vectorINSt7__cxx1112basic_stringIcSt11char_traitsIcESaIcEEESaIS8_EEEEP7SEXPRECRKT_NS_6traits17integral_constantIbLb0EEE"
 "_ZN4Rcpp8internal20primitive_wrap__implIbEEP7SEXPRECRKT_NS_6traits20r_type_primitive_tagE"
 "_ZN4Rcpp8internal20primitive_wrap__implIiEEP7SEXPRECRKT_NS_6traits20r_type_primitive_tagE"
 "_ZN4Rcpp8internal20primitive_wrap__implINSt7__cxx1112basic_stringIcSt11char_traitsIcESaIcEEEEEP7SEXPRECRKT_NS_6traits17r_type_string_tagE"
 "_ZN4Rcpp8internal21wrap_dispatch_unknownINS_6ShieldIP7SEXPRECEEEES4_RKT_NS_6traits17integral_constantIbLb1EEE"
 "_ZN4Rcpp8internal21wrap_dispatch_unknownINS_6VectorILi19ENS_15PreserveStorageEEEEEP7SEXPRECRKT_NS_6traits17integral_constantIbLb1EEE"
 "_ZN4Rcpp8internal21wrap_dispatch_unknownISt6vectorINSt7__cxx1112basic_stringIcSt11char_traitsIcESaIcEEESaIS8_EEEEP7SEXPRECRKT_NS_6traits17integral_constantIbLb0EEE"
 "_ZN4Rcpp8internal25generic_element_converterILi19EE3getEPKc"
 "_ZN4Rcpp8internal25generic_element_converterILi19EE3getIbEEP7SEXPRECRKT_"
 "_ZN4Rcpp8internal25generic_element_converterILi19EE3getIiEEP7SEXPRECRKT_"
 "_ZN4Rcpp8internal25generic_element_converterILi19EE3getINSt7__cxx1112basic_stringIcSt11char_traitsIcESaIcEEEEEP7SEXPRECRKT_"
 "_ZN4Rcpp8internal25generic_element_converterILi19EE3getISt6vectorINSt7__cxx1112basic_stringIcSt11char_traitsIcESaIcEEESaISA_EEEEP7SEXPRECRKT_"
 "_ZN4Rcpp8internal26primitive_wrap__impl__castIbEEP7SEXPRECRKT_NS_6traits17integral_constantIbLb1EEE"
 "_ZN4Rcpp8internal26primitive_wrap__impl__castIiEEP7SEXPRECRKT_NS_6traits17integral_constantIbLb0EEE"
 "_ZN4Rcpp8internal26range_wrap_dispatch___implIN9__gnu_cxx17__normal_iteratorIPKNSt7__cxx1112basic_stringIcSt11char_traitsIcESaIcEEESt6vectorIS9_SaIS9_EEEES9_EEP7SEXPRECT_SI_NS_6traits17r_type_string_tagE"
 "_ZN4Rcpp8internal27wrap_range_sugar_expressionISt6vectorINSt7__cxx1112basic_stringIcSt11char_traitsIcESaIcEEESaIS8_EEEEP7SEXPRECRKT_NS_6traits17integral_constantIbLb0EEE"
 "_ZN4Rcpp8internal28make_charsexp__impl__cstringEPKc"
 "_ZN4Rcpp8internal28make_charsexp__impl__cstringERKNSt7__cxx1112basic_stringIcSt11char_traitsIcESaIcEEE"
 "_ZN4Rcpp8internal2asINS_6VectorILi10ENS_15PreserveStorageEEEEET_P7SEXPRECNS_6traits18r_type_generic_tagE"
 "_ZN4Rcpp8internal30wrap_dispatch_unknown_iterableISt6vectorINSt7__cxx1112basic_stringIcSt11char_traitsIcESaIcEEESaIS8_EEEEP7SEXPRECRKT_NS_6traits17integral_constantIbLb1EEE"
 "_ZN4Rcpp8internal32wrap_dispatch_unknown_importableINS_6ShieldIP7SEXPRECEEEES4_RKT_NS_6traits17integral_constantIbLb0EEE"
 "_ZN4Rcpp8internal32wrap_dispatch_unknown_importableINS_6VectorILi19ENS_15PreserveStorageEEEEEP7SEXPRECRKT_NS_6traits17integral_constantIbLb0EEE"
 "_ZN4Rcpp8internal32wrap_dispatch_unknown_importableISt6vectorINSt7__cxx1112basic_stringIcSt11char_traitsIcESaIcEEESaIS8_EEEEP7SEXPRECRKT_NS_6traits17integral_constantIbLb0EEE"
 "_ZN4Rcpp8internal39wrap_dispatch_unknown_iterable__logicalISt6vectorINSt7__cxx1112basic_stringIcSt11char_traitsIcESaIcEEESaIS8_EEEEP7SEXPRECRKT_NS_6traits17integral_constantIbLb0EEE"
 "_ZN4Rcpp8internal48wrap_dispatch_unknown_iterable__matrix_interfaceISt6vectorINSt7__cxx1112basic_stringIcSt11char_traitsIcESaIcEEESaIS8_EEEEP7SEXPRECRKT_NS_6traits17integral_constantIbLb0EEE"
 "_ZN4Rcpp8internal6casterIbiEET0_T_"
 "_ZN4Rcpp8internal8EvalDataC1EP7SEXPRECS3_"
 "_ZN4Rcpp8internal9maybeJumpEPv8Rboolean"
 "_ZN4Rcpp8pairlistINS_6VectorILi19ENS_15PreserveStorageEEEEEP7SEXPRECRKT_"
 "_ZN4Rcpp8RostreamILb0EEC1Ev"
 "_ZN4Rcpp8RostreamILb0EED0Ev"
 "_ZN4Rcpp8RostreamILb0EED1Ev"
 "_ZN4Rcpp8RostreamILb1EEC1Ev"
 "_ZN4Rcpp8RostreamILb1EED0Ev"
 "_ZN4Rcpp8RostreamILb1EED1Ev"
 "_ZN4Rcpp9exception18record_stack_traceEv"
 "_ZN4Rcpp9exceptionC1EPKcb"
 "_ZN4Rcpp9exceptionD0Ev"
 "_ZN4Rcpp9exceptionD1Ev"
 "_ZN9__gnu_cxx11char_traitsIcE2eqERKcS3_"
 "_ZN9__gnu_cxx11char_traitsIcE6lengthEPKc"
 "_ZN9__gnu_cxx17__normal_iteratorIPKNSt7__cxx1112basic_stringIcSt11char_traitsIcESaIcEEESt6vectorIS6_SaIS6_EEEC1ERKS8_"
 "_ZN9__gnu_cxx17__normal_iteratorIPKNSt7__cxx1112basic_stringIcSt11char_traitsIcESaIcEEESt6vectorIS6_SaIS6_EEEppEv"
 "_ZN9__gnu_cxx17__normal_iteratorIPNSt7__cxx1112basic_stringIcSt11char_traitsIcESaIcEEESt6vectorIS6_SaIS6_EEEC1ERKS7_"
 "_ZN9__gnu_cxxmiIPKNSt7__cxx1112basic_stringIcSt11char_traitsIcESaIcEEESt6vectorIS6_SaIS6_EEEENS_17__normal_iteratorIT_T0_E15difference_typeERKSF_SI_"
 "_ZN9__gnu_cxxmiIPNSt7__cxx1112basic_stringIcSt11char_traitsIcESaIcEEESt6vectorIS6_SaIS6_EEEENS_17__normal_iteratorIT_T0_E15difference_typeERKSE_SH_"
 "_ZNK10tinyformat6detail9FormatArg5toIntEv"
 "_ZNK10tinyformat6detail9FormatArg6formatERSoPKcS4_i"
 "_ZNK16EdgeModelContext8is_validEv"
 "_ZNK4Rcpp13Function_ImplINS_15PreserveStorageEE6invokeEP7SEXPRECS4_"
 "_ZNK4Rcpp13Function_ImplINS_15PreserveStorageEEclIJNS_6VectorILi19ES1_EEEEEP7SEXPRECDpRKT_"
 "_ZNK4Rcpp14not_compatible4whatEv"
 "_ZNK4Rcpp15PreserveStorageINS_13Function_ImplIS0_EEE5get__Ev"
 "_ZNK4Rcpp15PreserveStorageINS_4XPtrI16EdgeModelContextS0_XadL_ZNS_25standard_delete_finalizerIS2_EEvPT_EELb0EEEE5get__Ev"
 "_ZNK4Rcpp15PreserveStorageINS_4XPtrI16EdgeModelContextS0_XadL_ZNS_25standard_delete_finalizerIS2_EEvPT_EELb0EEEEcvP7SEXPRECEv"
 "_ZNK4Rcpp15PreserveStorageINS_6VectorILi10ES0_EEE5get__Ev"
 "_ZNK4Rcpp15PreserveStorageINS_6VectorILi10ES0_EEEcvP7SEXPRECEv"
 "_ZNK4Rcpp15PreserveStorageINS_6VectorILi19ES0_EEE5get__Ev"
 "_ZNK4Rcpp15PreserveStorageINS_6VectorILi19ES0_EEEcvP7SEXPRECEv"
 "_ZNK4Rcpp4XPtrI16EdgeModelContextNS_15PreserveStorageEXadL_ZNS_25standard_delete_finalizerIS1_EEvPT_EELb0EE11checked_getEv"
 "_ZNK4Rcpp4XPtrI16EdgeModelContextNS_15PreserveStorageEXadL_ZNS_25standard_delete_finalizerIS1_EEvPT_EELb0EE3getEv"
 "_ZNK4Rcpp4XPtrI16EdgeModelContextNS_15PreserveStorageEXadL_ZNS_25standard_delete_finalizerIS1_EEvPT_EELb0EEptEv"
 "_ZNK4Rcpp6ShieldIP7SEXPRECEcvS2_Ev"
 "_ZNK4Rcpp6traits11proxy_cacheILi19ENS_15PreserveStorageEE3getEv"
 "_ZNK4Rcpp6traits14r_vector_cacheILi10ENS_15PreserveStorageEE11check_indexEx"
 "_ZNK4Rcpp6VectorILi10ENS_15PreserveStorageEE4sizeEv"
 "_ZNK4Rcpp6VectorILi10ENS_15PreserveStorageEE6lengthEv"
 "_ZNK4Rcpp9exception4whatEv"
 "_ZNK9__gnu_cxx17__normal_iteratorIPKNSt7__cxx1112basic_stringIcSt11char_traitsIcESaIcEEESt6vectorIS6_SaIS6_EEE4baseEv"
 "_ZNK9__gnu_cxx17__normal_iteratorIPKNSt7__cxx1112basic_stringIcSt11char_traitsIcESaIcEEESt6vectorIS6_SaIS6_EEEdeEv"
 "_ZNK9__gnu_cxx17__normal_iteratorIPNSt7__cxx1112basic_stringIcSt11char_traitsIcESaIcEEESt6vectorIS6_SaIS6_EEE4baseEv"
 "_ZNKSt10unique_ptrI16EdgeModelContextSt14default_deleteIS0_EE3getEv"
 "_ZNKSt10unique_ptrI16EdgeModelContextSt14default_deleteIS0_EEptEv"
 "_ZNKSt12_Vector_baseINSt7__cxx1112basic_stringIcSt11char_traitsIcESaIcEEESaIS5_EE19_M_get_Tp_allocatorEv"
 "_ZNKSt14default_deleteI16EdgeModelContextEclEPS0_"
 "_ZNKSt15__uniq_ptr_implI16EdgeModelContextSt14default_deleteIS0_EE6_M_ptrEv"
 "_ZNKSt6vectorIiSaIiEE11_M_data_ptrIiEEPT_S4_"
 "_ZNKSt6vectorIiSaIiEE4sizeEv"
 "_ZNKSt6vectorINSt7__cxx1112basic_stringIcSt11char_traitsIcESaIcEEESaIS5_EE12_M_check_lenEyPKc"
 "_ZNKSt6vectorINSt7__cxx1112basic_stringIcSt11char_traitsIcESaIcEEESaIS5_EE3endEv"
 "_ZNKSt6vectorINSt7__cxx1112basic_stringIcSt11char_traitsIcESaIcEEESaIS5_EE4sizeEv"
 "_ZNKSt6vectorINSt7__cxx1112basic_stringIcSt11char_traitsIcESaIcEEESaIS5_EE5beginEv"
 "_ZNKSt6vectorINSt7__cxx1112basic_stringIcSt11char_traitsIcESaIcEEESaIS5_EE8max_sizeEv"
 "_ZNKSt8ios_base5flagsEv"
 "_ZNKSt8ios_base5widthEv"
 "_ZNKSt8ios_base9precisionEv"
 "_ZNSt10_Head_baseILy0EP16EdgeModelContextLb0EE7_M_headERKS2_"
 "_ZNSt10_Head_baseILy0EP16EdgeModelContextLb0EE7_M_headERS2_"
 "_ZNSt10_Head_baseILy0EP16EdgeModelContextLb0EEC2Ev"
 "_ZNSt10_Head_baseILy1ESt14default_deleteI16EdgeModelContextELb1EE7_M_headERS3_"
 "_ZNSt10_Head_baseILy1ESt14default_deleteI16EdgeModelContextELb1EEC2Ev"
 "_ZNSt10unique_ptrI16EdgeModelContextSt14default_deleteIS0_EE11get_deleterEv"
 "_ZNSt10unique_ptrI16EdgeModelContextSt14default_deleteIS0_EE7releaseEv"
 "_ZNSt10unique_ptrI16EdgeModelContextSt14default_deleteIS0_EEC1IS2_vEEPS0_"
 "_ZNSt10unique_ptrI16EdgeModelContextSt14default_deleteIS0_EED1Ev"
 "_ZNSt11_Tuple_implILy0EJP16EdgeModelContextSt14default_deleteIS0_EEE7_M_headERKS4_"
 "_ZNSt11_Tuple_implILy0EJP16EdgeModelContextSt14default_deleteIS0_EEE7_M_headERS4_"
 "_ZNSt11_Tuple_implILy0EJP16EdgeModelContextSt14default_deleteIS0_EEEC2Ev"
 "_ZNSt11_Tuple_implILy1EJSt14default_deleteI16EdgeModelContextEEE7_M_headERS3_"
 "_ZNSt11_Tuple_implILy1EJSt14default_deleteI16EdgeModelContextEEEC2Ev"
 "_ZNSt11char_traitsIcE12to_char_typeERKi"
 "_ZNSt11char_traitsIcE3eofEv"
 "_ZNSt11char_traitsIcE6lengthEPKc"
 "_ZNSt12_Destroy_auxILb0EE9__destroyIPNSt7__cxx1112basic_stringIcSt11char_traitsIcESaIcEEEEEvT_S9_"
 "_ZNSt12_Destroy_auxILb1EE9__destroyIPiEEvT_S3_"
 "_ZNSt12_Vector_baseIiSaIiEE11_M_allocateEy"
 "_ZNSt12_Vector_baseIiSaIiEE12_Vector_implC1ERKS0_"
 "_ZNSt12_Vector_baseIiSaIiEE12_Vector_implD1Ev"
 "_ZNSt12_Vector_baseIiSaIiEE13_M_deallocateEPiy"
 "_ZNSt12_Vector_baseIiSaIiEE17_M_create_storageEy"
 "_ZNSt12_Vector_baseIiSaIiEE17_Vector_impl_dataC2Ev"
 "_ZNSt12_Vector_baseIiSaIiEE19_M_get_Tp_allocatorEv"
 "_ZNSt12_Vector_baseIiSaIiEEC2EyRKS0_"
 "_ZNSt12_Vector_baseIiSaIiEED2Ev"
 "_ZNSt12_Vector_baseINSt7__cxx1112basic_stringIcSt11char_traitsIcESaIcEEESaIS5_EE11_M_allocateEy"
 "_ZNSt12_Vector_baseINSt7__cxx1112basic_stringIcSt11char_traitsIcESaIcEEESaIS5_EE12_Vector_implC1Ev"
 "_ZNSt12_Vector_baseINSt7__cxx1112basic_stringIcSt11char_traitsIcESaIcEEESaIS5_EE12_Vector_implD1Ev"
 "_ZNSt12_Vector_baseINSt7__cxx1112basic_stringIcSt11char_traitsIcESaIcEEESaIS5_EE13_M_deallocateEPS5_y"
 "_ZNSt12_Vector_baseINSt7__cxx1112basic_stringIcSt11char_traitsIcESaIcEEESaIS5_EE17_Vector_impl_dataC2Ev"
 "_ZNSt12_Vector_baseINSt7__cxx1112basic_stringIcSt11char_traitsIcESaIcEEESaIS5_EE19_M_get_Tp_allocatorEv"
 "_ZNSt12_Vector_baseINSt7__cxx1112basic_stringIcSt11char_traitsIcESaIcEEESaIS5_EEC2Ev"
 "_ZNSt12_Vector_baseINSt7__cxx1112basic_stringIcSt11char_traitsIcESaIcEEESaIS5_EED2Ev"
 "_ZNSt15__new_allocatorIcED2Ev"
 "_ZNSt15__new_allocatorIiE10deallocateEPiy"
 "_ZNSt15__new_allocatorIiE8allocateEyPKv"
 "_ZNSt15__new_allocatorIiED2Ev"
 "_ZNSt15__new_allocatorINSt7__cxx1112basic_stringIcSt11char_traitsIcESaIcEEEE10deallocateEPS5_y"
 "_ZNSt15__new_allocatorINSt7__cxx1112basic_stringIcSt11char_traitsIcESaIcEEEE8allocateEyPKv"
 "_ZNSt15__new_allocatorINSt7__cxx1112basic_stringIcSt11char_traitsIcESaIcEEEED2Ev"
 "_ZNSt15__uniq_ptr_dataI16EdgeModelContextSt14default_deleteIS0_ELb1ELb1EECI1St15__uniq_ptr_implIS0_S2_EEPS0_"
 "_ZNSt15__uniq_ptr_implI16EdgeModelContextSt14default_deleteIS0_EE10_M_deleterEv"
 "_ZNSt15__uniq_ptr_implI16EdgeModelContextSt14default_deleteIS0_EE6_M_ptrEv"
 "_ZNSt15__uniq_ptr_implI16EdgeModelContextSt14default_deleteIS0_EE7releaseEv"
 "_ZNSt15__uniq_ptr_implI16EdgeModelContextSt14default_deleteIS0_EEC2EPS0_"
 "_ZNSt27__uninitialized_default_n_1ILb1EE18__uninit_default_nIPiyEET_S3_T0_"
 "_ZNSt5tupleIJP16EdgeModelContextSt14default_deleteIS0_EEEC1ILb1ELb1EEEv"
 "_ZNSt6vectorIiSaIiEE11_S_max_sizeERKS0_"
 "_ZNSt6vectorIiSaIiEE17_S_check_init_lenEyRKS0_"
 "_ZNSt6vectorIiSaIiEE21_M_default_initializeEy"
 "_ZNSt6vectorIiSaIiEE4dataEv"
 "_ZNSt6vectorIiSaIiEEC1EyRKS0_"
 "_ZNSt6vectorIiSaIiEED1Ev"
 "_ZNSt6vectorINSt7__cxx1112basic_stringIcSt11char_traitsIcESaIcEEESaIS5_EE11_S_max_sizeERKS6_"
 "_ZNSt6vectorINSt7__cxx1112basic_stringIcSt11char_traitsIcESaIcEEESaIS5_EE11_S_relocateEPS5_S8_S8_RS6_"
 "_ZNSt6vectorINSt7__cxx1112basic_stringIcSt11char_traitsIcESaIcEEESaIS5_EE17_M_realloc_insertIJRKS5_EEEvN9__gnu_cxx17__normal_iteratorIPS5_S7_EEDpOT_"
 "_ZNSt6vectorINSt7__cxx1112basic_stringIcSt11char_traitsIcESaIcEEESaIS5_EE3endEv"
 "_ZNSt6vectorINSt7__cxx1112basic_stringIcSt11char_traitsIcESaIcEEESaIS5_EE5beginEv"
 "_ZNSt6vectorINSt7__cxx1112basic_stringIcSt11char_traitsIcESaIcEEESaIS5_EE9push_backERKS5_"
 "_ZNSt6vectorINSt7__cxx1112basic_stringIcSt11char_traitsIcESaIcEEESaIS5_EEC1Ev"
 "_ZNSt6vectorINSt7__cxx1112basic_stringIcSt11char_traitsIcESaIcEEESaIS5_EED1Ev"
 "_ZNSt7__cxx1112basic_stringIcSt11char_traitsIcESaIcEE12_Alloc_hiderD1Ev"
 "_ZNSt7__cxx1112basic_stringIcSt11char_traitsIcESaIcEE12_M_constructIPKcEEvT_S8_St20forward_iterator_tag"
 "_ZNSt7__cxx1112basic_stringIcSt11char_traitsIcESaIcEEC1IS3_EEPKcRKS3_"
 "_ZNSt8ios_base4setfESt13_Ios_Fmtflags"
 "_ZNSt8ios_base4setfESt13_Ios_FmtflagsS0_"
 "_ZNSt8ios_base5flagsESt13_Ios_Fmtflags"
 "_ZNSt8ios_base5widthEx"
 "_ZNSt8ios_base6unsetfESt13_Ios_Fmtflags"
 "_ZNSt8ios_base9precisionEx"
 "_ZNSt9exceptionC2Ev"
 "_ZnwyPv"
 "_ZSt10__fill_n_aIPiyiET_S1_T0_RKT1_St26random_access_iterator_tag"
 "_ZSt10_ConstructIiJEEvPT_DpOT0_"
 "_ZSt11__addressofIiEPT_RS0_"
 "_ZSt11__addressofINSt7__cxx1112basic_stringIcSt11char_traitsIcESaIcEEEEPT_RS6_"
 "_ZSt11make_uniqueI16EdgeModelContextJEENSt8__detail9_MakeUniqIT_E15__single_objectEDpOT0_"
 "_ZSt12__get_helperILy0EP16EdgeModelContextJSt14default_deleteIS0_EEERKT0_RKSt11_Tuple_implIXT_EJS4_DpT1_EE"
 "_ZSt12__get_helperILy0EP16EdgeModelContextJSt14default_deleteIS0_EEERT0_RSt11_Tuple_implIXT_EJS4_DpT1_EE"
 "_ZSt12__get_helperILy1ESt14default_deleteI16EdgeModelContextEJEERT0_RSt11_Tuple_implIXT_EJS3_DpT1_EE"
 "_ZSt12__niter_baseIPNSt7__cxx1112basic_stringIcSt11char_traitsIcESaIcEEEET_S7_"
 "_ZSt12__relocate_aIPNSt7__cxx1112basic_stringIcSt11char_traitsIcESaIcEEES6_SaIS5_EET0_T_S9_S8_RT1_"
 "_ZSt12__str_concatINSt7__cxx1112basic_stringIcSt11char_traitsIcESaIcEEEET_PKNS6_10value_typeENS6_9size_typeES9_SA_RKNS6_14allocator_typeE"
 "_ZSt14__relocate_a_1IPNSt7__cxx1112basic_stringIcSt11char_traitsIcESaIcEEES6_SaIS5_EET0_T_S9_S8_RT1_"
 "_ZSt17__size_to_integery"
 "_ZSt19__relocate_object_aINSt7__cxx1112basic_stringIcSt11char_traitsIcESaIcEEES5_SaIS5_EEvPT_PT0_RT1_"
 "_ZSt23__is_constant_evaluatedv"
 "_ZSt25__uninitialized_default_nIPiyET_S1_T0_"
 "_ZSt27__uninitialized_default_n_aIPiyiET_S1_T0_RSaIT1_E"
 "_ZSt3getILy0EJP16EdgeModelContextSt14default_deleteIS0_EEERKNSt13tuple_elementIXT_ESt5tupleIJDpT0_EEE4typeERKS8_"
 "_ZSt3getILy0EJP16EdgeModelContextSt14default_deleteIS0_EEERNSt13tuple_elementIXT_ESt5tupleIJDpT0_EEE4typeERS8_"
 "_ZSt3getILy1EJP16EdgeModelContextSt14default_deleteIS0_EEERNSt13tuple_elementIXT_ESt5tupleIJDpT0_EEE4typeERS8_"
 "_ZSt3maxIiERKT_S2_S2_"
 "_ZSt3maxIyERKT_S2_S2_"
 "_ZSt3minIiERKT_S2_S2_"
 "_ZSt3minIyERKT_S2_S2_"
 "_ZSt4moveIRNSt7__cxx1112basic_stringIcSt11char_traitsIcESaIcEEEEONSt16remove_referenceIT_E4typeEOS8_"
 "_ZSt4moveIRP16EdgeModelContextEONSt16remove_referenceIT_E4typeEOS4_"
 "_ZSt6fill_nIPiyiET_S1_T0_RKT1_"
 "_ZSt7forwardINSt7__cxx1112basic_stringIcSt11char_traitsIcESaIcEEEEOT_RNSt16remove_referenceIS6_E4typeE"
 "_ZSt7forwardIPKcEOT_RNSt16remove_referenceIS2_E4typeE"
 "_ZSt7forwardIRKNSt7__cxx1112basic_stringIcSt11char_traitsIcESaIcEEEEOT_RNSt16remove_referenceIS8_E4typeE"
 "_ZSt7forwardIRKxEOT_RNSt16remove_referenceIS2_E4typeE"
 "_ZSt7forwardIRxEOT_RNSt16remove_referenceIS1_E4typeE"
 "_ZSt8__fill_aIPiiEvT_S1_RKT0_"
 "_ZSt8_DestroyINSt7__cxx1112basic_stringIcSt11char_traitsIcESaIcEEEEvPT_"
 "_ZSt8_DestroyIPiEvT_S1_"
 "_ZSt8_DestroyIPNSt7__cxx1112basic_stringIcSt11char_traitsIcESaIcEEEEvT_S7_"
 "_ZSt9__fill_a1IPiiEN9__gnu_cxx11__enable_ifIXsrSt11__is_scalarIT0_E7__valueEvE6__typeET_S8_RKS4_"
 "_ZStaNRSt13_Ios_FmtflagsS_"
 "_ZStanSt13_Ios_FmtflagsS_"
 "_ZStcoSt13_Ios_Fmtflags"
 "_ZStoRRSt13_Ios_FmtflagsS_"
 "_ZStorSt13_Ios_FmtflagsS_"
 "_ZStplIcSt11char_traitsIcESaIcEENSt7__cxx1112basic_stringIT_T0_T1_EEOS8_PKS5_"
 "_ZStplIcSt11char_traitsIcESaIcEENSt7__cxx1112basic_stringIT_T0_T1_EEPKS5_OS8_"
 "_ZStplIcSt11char_traitsIcESaIcEENSt7__cxx1112basic_stringIT_T0_T1_EEPKS5_RKS8_"
 "_ZTCN4Rcpp8RostreamILb0EEE0_So"
 "_ZTCN4Rcpp8RostreamILb1EEE0_So"
 "_ZTIN4Rcpp10RstreambufILb0EEE"
 "_ZTIN4Rcpp10RstreambufILb1EEE"
 "_ZTIN4Rcpp14not_compatibleE"
 "_ZTIN4Rcpp17LongjumpExceptionE"
 "_ZTIN4Rcpp8RostreamILb0EEE"
 "_ZTIN4Rcpp8RostreamILb1EEE"
 "_ZTIN4Rcpp9exceptionE"
 "_ZTISt9exception"
 "_ZTSN4Rcpp10RstreambufILb0EEE"
 "_ZTSN4Rcpp10RstreambufILb1EEE"
 "_ZTSN4Rcpp14not_compatibleE"
 "_ZTSN4Rcpp17LongjumpExceptionE"
 "_ZTSN4Rcpp8RostreamILb0EEE"
 "_ZTSN4Rcpp8RostreamILb1EEE"
 "_ZTSN4Rcpp9exceptionE"
 "_ZTSSt9exception"
 "_ZTTN4Rcpp8RostreamILb0EEE"
 "_ZTTN4Rcpp8RostreamILb1EEE"
 "_ZTv0_n24_N4Rcpp8RostreamILb0EED0Ev"
 "_ZTv0_n24_N4Rcpp8RostreamILb0EED1Ev"
 "_ZTv0_n24_N4Rcpp8RostreamILb1EED0Ev"
 "_ZTv0_n24_N4Rcpp8RostreamILb1EED1Ev"
 "_ZTVN4Rcpp10RstreambufILb0EEE"
 "_ZTVN4Rcpp10RstreambufILb1EEE"
 "_ZTVN4Rcpp14not_compatibleE"
 "_ZTVN4Rcpp8RostreamILb0EEE"
 "_ZTVN4Rcpp8RostreamILb1EEE"
 "_ZTVN4Rcpp9exceptionE"
 "_ZZN4Rcpp20Rcpp_precious_removeEP7SEXPRECE3fun"
 "_ZZN4Rcpp22Rcpp_precious_preserveEP7SEXPRECE3fun"
 "_ZZNSt7__cxx1112basic_stringIcSt11char_traitsIcESaIcEE12_M_constructIPKcEEvT_S8_St20forward_iterator_tagEN6_GuardC1EPS4_"
 "_ZZNSt7__cxx1112basic_stringIcSt11char_traitsIcESaIcEE12_M_constructIPKcEEvT_S8_St20forward_iterator_tagEN6_GuardD1Ev"
 "g_suppress_console_output"
 "_edgemodelr_edge_completion"
 "_edgemodelr_edge_completion_stream"
 "_edgemodelr_edge_free_model"
 "_edgemodelr_edge_load_model"
 "_edgemodelr_is_valid_model"
 "_edgemodelr_set_llama_logging"
 "_Z13get_last_callv"
 "_Z14make_conditionRKNSt7__cxx1112basic_stringIcSt11char_traitsIcESaIcEEEP7SEXPRECS8_S8_"
 "_Z19string_to_try_errorRKNSt7__cxx1112basic_stringIcSt11char_traitsIcESaIcEEE"
 "_Z20rcpp_get_stack_tracev"
 "_Z20rcpp_set_stack_traceP7SEXPREC"
 "_Z21get_exception_classesRKNSt7__cxx1112basic_stringIcSt11char_traitsIcESaIcEEE"
 "_Z24exception_to_r_conditionRKSt9exception"
 "_Z29rcpp_exception_to_r_conditionRKN4Rcpp9exceptionE"
 "_Z31exception_to_condition_templateIN4Rcpp9exceptionEEP7SEXPRECRKT_b"
 "_Z31exception_to_condition_templateISt9exceptionEP7SEXPRECRKT_b"
 "_Z8demangleRKNSt7__cxx1112basic_stringIcSt11char_traitsIcESaIcEEE"
 "_ZGVZ20rcpp_get_stack_tracevE3fun"
 "_ZGVZ20rcpp_set_stack_traceP7SEXPRECE3fun"
 "_ZGVZ8demangleRKNSt7__cxx1112basic_stringIcSt11char_traitsIcESaIcEEEE3funB5cxx11"
 "_ZGVZN4Rcpp20Rcpp_precious_removeEP7SEXPRECE3fun"
 "_ZGVZN4Rcpp22Rcpp_precious_preserveEP7SEXPRECE3fun"
 "_ZGVZN4Rcpp8internal12exitRNGScopeEvE3fun"
 "_ZGVZN4Rcpp8internal13enterRNGScopeEvE3fun"
 "_ZN10tinyformat10FormatListC2EPNS_6detail9FormatArgEi"
 "_ZN10tinyformat11formatValueIiEEvRSoPKcS3_iRKT_"
 "_ZN10tinyformat11formatValueIPKcEEvRSoS2_S2_iRKT_"
 "_ZN10tinyformat14makeFormatListIJiEEENS_6detail11FormatListNIXsZT_EEEDpRKT_"
 "_ZN10tinyformat14makeFormatListIJPKcEEENS_6detail11FormatListNIXsZT_EEEDpRKT_"
 "_ZN10tinyformat14makeFormatListIJPKciEEENS_6detail11FormatListNIXsZT_EEEDpRKT_"
 "_ZN10tinyformat6detail10formatImplERSoPKcPKNS0_9FormatArgEi"
 "_ZN10tinyformat6detail11FormatListNILi1EEC1IJiEEEDpRKT_"
 "_ZN10tinyformat6detail11FormatListNILi1EEC1IJPKcEEEDpRKT_"
 "_ZN10tinyformat6detail11FormatListNILi2EEC1IJPKciEEEDpRKT_"
 "_ZN10tinyformat6detail12convertToIntIiLb1EE6invokeERKi"
 "_ZN10tinyformat6detail12convertToIntIPKcLb0EE6invokeERKS3_"
 "_ZN10tinyformat6detail15formatTruncatedERSoPKci"
 "_ZN10tinyformat6detail15formatTruncatedIiEEvRSoRKT_i"
 "_ZN10tinyformat6detail17formatValueAsTypeIicLb1EE6invokeERSoRKi"
 "_ZN10tinyformat6detail17formatValueAsTypeIPKcPKvLb1EE6invokeERSoRKS3_"
 "_ZN10tinyformat6detail18parseIntAndAdvanceERPKc"
 "_ZN10tinyformat6detail21streamStateFromFormatERSoRbRiPKcPKNS0_9FormatArgES3_i"
 "_ZN10tinyformat6detail24printFormatStringLiteralERSoPKc"
 "_ZN10tinyformat6detail9FormatArg10formatImplIiEEvRSoPKcS5_iPKv"
 "_ZN10tinyformat6detail9FormatArg10formatImplIPKcEEvRSoS4_S4_iPKv"
 "_ZN10tinyformat6detail9FormatArg9toIntImplIiEEiPKv"
 "_ZN10tinyformat6detail9FormatArg9toIntImplIPKcEEiPKv"
 "_ZN10tinyformat6detail9FormatArgC1IiEERKT_"
 "_ZN10tinyformat6detail9FormatArgC1IPKcEERKT_"
 "_ZN10tinyformat6formatIJiEEENSt7__cxx1112basic_stringIcSt11char_traitsIcESaIcEEEPKcDpRKT_"
 "_ZN10tinyformat6formatIJiEEEvRSoPKcDpRKT_"
 "_ZN10tinyformat6formatIJPKcEEENSt7__cxx1112basic_stringIcSt11char_traitsIcESaIcEEES2_DpRKT_"
 "_ZN10tinyformat6formatIJPKcEEEvRSoS2_DpRKT_"
 "_ZN10tinyformat6formatIJPKciEEENSt7__cxx1112basic_stringIcSt11char_traitsIcESaIcEEES2_DpRKT_"
 "_ZN10tinyformat6formatIJPKciEEEvRSoS2_DpRKT_"
 "_ZN10tinyformat7vformatERSoPKcRKNS_10FormatListE"
 "_ZN4Rcpp10RstreambufILb0EE4syncEv"
 "_ZN4Rcpp10RstreambufILb0EE6xsputnEPKcx"
 "_ZN4Rcpp10RstreambufILb0EE8overflowEi"
 "_ZN4Rcpp10RstreambufILb0EEC1Ev"
 "_ZN4Rcpp10RstreambufILb0EED0Ev"
 "_ZN4Rcpp10RstreambufILb0EED1Ev"
 "_ZN4Rcpp10RstreambufILb1EE4syncEv"
 "_ZN4Rcpp10RstreambufILb1EE6xsputnEPKcx"
 "_ZN4Rcpp10RstreambufILb1EE8overflowEi"
 "_ZN4Rcpp10RstreambufILb1EEC1Ev"
 "_ZN4Rcpp10RstreambufILb1EED0Ev"
 "_ZN4Rcpp10RstreambufILb1EED1Ev"
 "_ZN4Rcpp12Rcpp_protectEP7SEXPREC"
 "_ZN4Rcpp12RObject_ImplINS_15PreserveStorageEE6updateEP7SEXPREC"
 "_ZN4Rcpp12RObject_ImplINS_15PreserveStorageEEaSIP7SEXPRECEERS2_RKT_"
 "_ZN4Rcpp12RObject_ImplINS_15PreserveStorageEEC1Ev"
 "_ZN4Rcpp12RObject_ImplINS_15PreserveStorageEED1Ev"
 "_ZN4Rcpp13Function_ImplINS_15PreserveStorageEE6updateEP7SEXPREC"
 "_ZN4Rcpp13Function_ImplINS_15PreserveStorageEEC1EP7SEXPREC"
 "_ZN4Rcpp13Function_ImplINS_15PreserveStorageEEC1ERKS2_"
 "_ZN4Rcpp13Function_ImplINS_15PreserveStorageEED1Ev"
 "_ZN4Rcpp13unwindProtectEPFP7SEXPRECPvES2_"
 "_ZN4Rcpp14InputParameterIbEC1EP7SEXPREC"
 "_ZN4Rcpp14InputParameterIbEcvbEv"
 "_ZN4Rcpp14InputParameterIdEC1EP7SEXPREC"
 "_ZN4Rcpp14InputParameterIdEcvdEv"
 "_ZN4Rcpp14InputParameterIiEC1EP7SEXPREC"
 "_ZN4Rcpp14InputParameterIiEcviEv"
 "_ZN4Rcpp14InputParameterINS_13Function_ImplINS_15PreserveStorageEEEEC1EP7SEXPREC"
 "_ZN4Rcpp14InputParameterINS_13Function_ImplINS_15PreserveStorageEEEEcvS3_Ev"
 "_ZN4Rcpp14InputParameterINSt7__cxx1112basic_stringIcSt11char_traitsIcESaIcEEEEC1EP7SEXPREC"
 "_ZN4Rcpp14InputParameterINSt7__cxx1112basic_stringIcSt11char_traitsIcESaIcEEEEcvS6_Ev"
 "_ZN4Rcpp14InputParameterIP7SEXPRECEC1ES2_"
 "_ZN4Rcpp14InputParameterIP7SEXPRECEcvS2_Ev"
 "_ZN4Rcpp14not_compatibleC1IJiEEEPKcDpOT_"
 "_ZN4Rcpp14not_compatibleC1IJPKcEEES3_DpOT_"
 "_ZN4Rcpp14not_compatibleC1IJPKciEEES3_DpOT_"
 "_ZN4Rcpp14not_compatibleD0Ev"
 "_ZN4Rcpp14not_compatibleD1Ev"
 "_ZN4Rcpp14Rcpp_fast_evalEP7SEXPRECS1_"
 "_ZN4Rcpp14Rcpp_unprotectEi"
 "_ZN4Rcpp15PreserveStorageINS_12RObject_ImplIS0_EEE5set__EP7SEXPREC"
 "_ZN4Rcpp15PreserveStorageINS_12RObject_ImplIS0_EEEC2Ev"
 "_ZN4Rcpp15PreserveStorageINS_12RObject_ImplIS0_EEED2Ev"
 "_ZN4Rcpp15PreserveStorageINS_13Function_ImplIS0_EEE5set__EP7SEXPREC"
 "_ZN4Rcpp15PreserveStorageINS_13Function_ImplIS0_EEE6copy__IS2_EERT_RKS5_"
 "_ZN4Rcpp15PreserveStorageINS_13Function_ImplIS0_EEEC2Ev"
 "_ZN4Rcpp15PreserveStorageINS_13Function_ImplIS0_EEED2Ev"
 "_ZN4Rcpp15PreserveStorageINS_6VectorILi16ES0_EEE5set__EP7SEXPREC"
 "_ZN4Rcpp15PreserveStorageINS_6VectorILi16ES0_EEEC2Ev"
 "_ZN4Rcpp15PreserveStorageINS_6VectorILi16ES0_EEED2Ev"
 "_ZN4Rcpp15PreserveStorageINS_6VectorILi19ES0_EEE5set__EP7SEXPREC"
 "_ZN4Rcpp15PreserveStorageINS_6VectorILi19ES0_EEEC2Ev"
 "_ZN4Rcpp15PreserveStorageINS_6VectorILi19ES0_EEED2Ev"
 "_ZN4Rcpp17LongjumpExceptionC1EP7SEXPREC"
 "_ZN4Rcpp20AttributeProxyPolicyINS_6VectorILi19ENS_15PreserveStorageEEEE14AttributeProxy3setEP7SEXPREC"
 "_ZN4Rcpp20AttributeProxyPolicyINS_6VectorILi19ENS_15PreserveStorageEEEE14AttributeProxyaSIA17_cEERS5_RKT_"
 "_ZN4Rcpp20AttributeProxyPolicyINS_6VectorILi19ENS_15PreserveStorageEEEE14AttributeProxyaSINS_6ShieldIP7SEXPRECEEEERS5_RKT_"
 "_ZN4Rcpp20AttributeProxyPolicyINS_6VectorILi19ENS_15PreserveStorageEEEE14AttributeProxyC1ERS3_RKNSt7__cxx1112basic_stringIcSt11char_traitsIcESaIcEEE"
 "_ZN4Rcpp20AttributeProxyPolicyINS_6VectorILi19ENS_15PreserveStorageEEEE4attrERKNSt7__cxx1112basic_stringIcSt11char_traitsIcESaIcEEE"
 "_ZN4Rcpp20Rcpp_precious_removeEP7SEXPREC"
 "_ZN4Rcpp20Rcpp_PreciousReleaseEP7SEXPREC"
 "_ZN4Rcpp21Rcpp_PreciousPreserveEP7SEXPREC"
 "_ZN4Rcpp22Rcpp_precious_preserveEP7SEXPREC"
 "_ZN4Rcpp2asIbEET_P7SEXPREC"
 "_ZN4Rcpp2asIdEET_P7SEXPREC"
 "_ZN4Rcpp2asIiEET_P7SEXPREC"
 "_ZN4Rcpp2asINS_13Function_ImplINS_15PreserveStorageEEEEET_P7SEXPREC"
 "_ZN4Rcpp2asINSt7__cxx1112basic_stringIcSt11char_traitsIcESaIcEEEEET_P7SEXPREC"
 "_ZN4Rcpp2asIP7SEXPRECEET_S2_"
 "_ZN4Rcpp4stopERKNSt7__cxx1112basic_stringIcSt11char_traitsIcESaIcEEE"
 "_ZN4Rcpp4wrapEPKc"
 "_ZN4Rcpp4wrapIbEEP7SEXPRECRKT_"
 "_ZN4Rcpp4wrapIiEEP7SEXPRECRKT_"
 "_ZN4Rcpp4wrapINS_6ShieldIP7SEXPRECEEEES3_RKT_"
 "_ZN4Rcpp4wrapINS_6VectorILi16ENS_15PreserveStorageEEEEEP7SEXPRECRKT_"
 "_ZN4Rcpp4wrapINS_6VectorILi19ENS_15PreserveStorageEEEEEP7SEXPRECRKT_"
 "_ZN4Rcpp4wrapINSt7__cxx1112basic_stringIcSt11char_traitsIcESaIcEEEEEP7SEXPRECRKT_"
 "_ZN4Rcpp4wrapIP7SEXPRECEES2_RKT_"
 "_ZN4Rcpp6r_castILi10EEEP7SEXPRECS2_"
 "_ZN4Rcpp6r_castILi13EEEP7SEXPRECS2_"
 "_ZN4Rcpp6r_castILi14EEEP7SEXPRECS2_"
 "_ZN4Rcpp6r_castILi16EEEP7SEXPRECS2_"
 "_ZN4Rcpp6ShieldIP7SEXPRECEC1ES2_"
 "_ZN4Rcpp6ShieldIP7SEXPRECED1Ev"
 "_ZN4Rcpp6traits11proxy_cacheILi16ENS_15PreserveStorageEE6updateERKNS_6VectorILi16ES2_EE"
 "_ZN4Rcpp6traits11proxy_cacheILi16ENS_15PreserveStorageEEC1Ev"
 "_ZN4Rcpp6traits11proxy_cacheILi16ENS_15PreserveStorageEED1Ev"
 "_ZN4Rcpp6traits11proxy_cacheILi19ENS_15PreserveStorageEE6updateERKNS_6VectorILi19ES2_EE"
 "_ZN4Rcpp6traits11proxy_cacheILi19ENS_15PreserveStorageEEC1Ev"
 "_ZN4Rcpp6traits11proxy_cacheILi19ENS_15PreserveStorageEED1Ev"
 "_ZN4Rcpp6traits12named_objectIA1_cEC1ERKNSt7__cxx1112basic_stringIcSt11char_traitsIcESaIcEEERA1_Kc"
 "_ZN4Rcpp6traits12named_objectIiEC1ERKNSt7__cxx1112basic_stringIcSt11char_traitsIcESaIcEEERKi"
 "_ZN4Rcpp6traits12named_objectINS_6VectorILi16ENS_15PreserveStorageEEEEC1ERKNSt7__cxx1112basic_stringIcSt11char_traitsIcESaIcEEERKS4_"
 "_ZN4Rcpp6traits8ExporterINS_13Function_ImplINS_15PreserveStorageEEEE3getEv"
 "_ZN4Rcpp6traits8ExporterINS_13Function_ImplINS_15PreserveStorageEEEEC1EP7SEXPREC"
 "_ZN4Rcpp6traits8ExporterINS_13Function_ImplINS_15PreserveStorageEEEED1Ev"
 "_ZN4Rcpp6VectorILi16ENS_15PreserveStorageEE4initEv"
 "_ZN4Rcpp6VectorILi16ENS_15PreserveStorageEE5beginEv"
 "_ZN4Rcpp6VectorILi16ENS_15PreserveStorageEE6updateEP7SEXPREC"
 "_ZN4Rcpp6VectorILi16ENS_15PreserveStorageEEC1IyEET_PNS_6traits9enable_ifIXsrNS5_13is_arithmeticIS4_EE5valueEvE4typeE"
 "_ZN4Rcpp6VectorILi16ENS_15PreserveStorageEED1Ev"
 "_ZN4Rcpp6VectorILi19ENS_15PreserveStorageEE15replace_elementINS_6traits12named_objectIA1_cEEEEvNS_8internal14Proxy_IteratorINS8_13generic_proxyILi19ES1_EEEEP7SEXPRECxRKT_"
 "_ZN4Rcpp6VectorILi19ENS_15PreserveStorageEE15replace_elementINS_6traits12named_objectIiEEEEvNS_8internal14Proxy_IteratorINS7_13generic_proxyILi19ES1_EEEEP7SEXPRECxRKT_"
 "_ZN4Rcpp6VectorILi19ENS_15PreserveStorageEE15replace_elementINS_6traits12named_objectINS0_ILi16ES1_EEEEEEvNS_8internal14Proxy_IteratorINS8_13generic_proxyILi19ES1_EEEEP7SEXPRECxRKT_"
 "_ZN4Rcpp6VectorILi19ENS_15PreserveStorageEE16create__dispatchIJNS_6traits12named_objectIA1_cEENS5_IiEENS5_INS0_ILi16ES1_EEEEEEES2_NS4_17integral_constantIbLb1EEEDpRKT_"
 "_ZN4Rcpp6VectorILi19ENS_15PreserveStorageEE20replace_element_implINS_6traits12named_objectIA1_cEEJNS5_IiEENS5_INS0_ILi16ES1_EEEEEEEvRNS_8internal14Proxy_IteratorINSB_13generic_proxyILi19ES1_EEEERNS_6ShieldIP7SEXPRECEERiRKT_DpRKT0_"
 "_ZN4Rcpp6VectorILi19ENS_15PreserveStorageEE20replace_element_implINS_6traits12named_objectIiEEJNS5_INS0_ILi16ES1_EEEEEEEvRNS_8internal14Proxy_IteratorINS9_13generic_proxyILi19ES1_EEEERNS_6ShieldIP7SEXPRECEERiRKT_DpRKT0_"
 "_ZN4Rcpp6VectorILi19ENS_15PreserveStorageEE20replace_element_implINS_6traits12named_objectINS0_ILi16ES1_EEEEEEvRNS_8internal14Proxy_IteratorINS8_13generic_proxyILi19ES1_EEEERNS_6ShieldIP7SEXPRECEERiRKT_"
 "_ZN4Rcpp6VectorILi19ENS_15PreserveStorageEE25replace_element__dispatchINS_6traits12named_objectIA1_cEEEEvNS4_17integral_constantIbLb1EEENS_8internal14Proxy_IteratorINSA_13generic_proxyILi19ES1_EEEEP7SEXPRECxRKT_"
 "_ZN4Rcpp6VectorILi19ENS_15PreserveStorageEE25replace_element__dispatchINS_6traits12named_objectIiEEEEvNS4_17integral_constantIbLb1EEENS_8internal14Proxy_IteratorINS9_13generic_proxyILi19ES1_EEEEP7SEXPRECxRKT_"
 "_ZN4Rcpp6VectorILi19ENS_15PreserveStorageEE25replace_element__dispatchINS_6traits12named_objectINS0_ILi16ES1_EEEEEEvNS4_17integral_constantIbLb1EEENS_8internal14Proxy_IteratorINSA_13generic_proxyILi19ES1_EEEEP7SEXPRECxRKT_"
 "_ZN4Rcpp6VectorILi19ENS_15PreserveStorageEE37replace_element__dispatch__isArgumentINS_6traits12named_objectIA1_cEEEEvNS4_17integral_constantIbLb0EEENS_8internal14Proxy_IteratorINSA_13generic_proxyILi19ES1_EEEEP7SEXPRECxRKT_"
 "_ZN4Rcpp6VectorILi19ENS_15PreserveStorageEE37replace_element__dispatch__isArgumentINS_6traits12named_objectIiEEEEvNS4_17integral_constantIbLb0EEENS_8internal14Proxy_IteratorINS9_13generic_proxyILi19ES1_EEEEP7SEXPRECxRKT_"
 "_ZN4Rcpp6VectorILi19ENS_15PreserveStorageEE37replace_element__dispatch__isArgumentINS_6traits12named_objectINS0_ILi16ES1_EEEEEEvNS4_17integral_constantIbLb0EEENS_8internal14Proxy_IteratorINSA_13generic_proxyILi19ES1_EEEEP7SEXPRECxRKT_"
 "_ZN4Rcpp6VectorILi19ENS_15PreserveStorageEE4initEv"
 "_ZN4Rcpp6VectorILi19ENS_15PreserveStorageEE5beginEv"
 "_ZN4Rcpp6VectorILi19ENS_15PreserveStorageEE6createIJNS_6traits12named_objectIA1_cEENS5_IiEENS5_INS0_ILi16ES1_EEEEEEES2_DpRKT_"
 "_ZN4Rcpp6VectorILi19ENS_15PreserveStorageEE6updateEP7SEXPREC"
 "_ZN4Rcpp6VectorILi19ENS_15PreserveStorageEEC1IyEET_PNS_6traits9enable_ifIXsrNS5_13is_arithmeticIS4_EE5valueEvE4typeE"
 "_ZN4Rcpp6VectorILi19ENS_15PreserveStorageEED1Ev"
 "_ZN4Rcpp7ShelterIP7SEXPRECEC1Ev"
 "_ZN4Rcpp7ShelterIP7SEXPRECEclES2_"
 "_ZN4Rcpp7ShelterIP7SEXPRECED1Ev"
 "_ZN4Rcpp8ArgumentaSIA1_cEENS_6traits12named_objectIT_EERKS5_"
 "_ZN4Rcpp8ArgumentaSIiEENS_6traits12named_objectIT_EERKS4_"
 "_ZN4Rcpp8ArgumentaSINS_6VectorILi16ENS_15PreserveStorageEEEEENS_6traits12named_objectIT_EERKS7_"
 "_ZN4Rcpp8ArgumentC1ERKNSt7__cxx1112basic_stringIcSt11char_traitsIcESaIcEEE"
 "_ZN4Rcpp8ArgumentD1Ev"
 "_ZN4Rcpp8internal10basic_castILi10EEEP7SEXPRECS3_"
 "_ZN4Rcpp8internal10basic_castILi13EEEP7SEXPRECS3_"
 "_ZN4Rcpp8internal10basic_castILi14EEEP7SEXPRECS3_"
 "_ZN4Rcpp8internal10resumeJumpEP7SEXPREC"
 "_ZN4Rcpp8internal11r_true_castILi10EEEP7SEXPRECS3_"
 "_ZN4Rcpp8internal11r_true_castILi13EEEP7SEXPRECS3_"
 "_ZN4Rcpp8internal11r_true_castILi14EEEP7SEXPRECS3_"
 "_ZN4Rcpp8internal11r_true_castILi16EEEP7SEXPRECS3_"
 "_ZN4Rcpp8internal12exitRNGScopeEv"
 "_ZN4Rcpp8internal12primitive_asIbEET_P7SEXPREC"
 "_ZN4Rcpp8internal12primitive_asIdEET_P7SEXPREC"
 "_ZN4Rcpp8internal12primitive_asIiEET_P7SEXPREC"
 "_ZN4Rcpp8internal12string_proxyILi16ENS_15PreserveStorageEE3setEP7SEXPREC"
 "_ZN4Rcpp8internal12string_proxyILi16ENS_15PreserveStorageEE3setINSt7__cxx1112basic_stringIcSt11char_traitsIcESaIcEEEEEvRKT_"
 "_ZN4Rcpp8internal12string_proxyILi16ENS_15PreserveStorageEE4moveEx"
 "_ZN4Rcpp8internal12string_proxyILi16ENS_15PreserveStorageEEaSIcEERS3_RKNSt7__cxx1112basic_stringIT_St11char_traitsIS8_ESaIS8_EEE"
 "_ZN4Rcpp8internal12string_proxyILi16ENS_15PreserveStorageEEC1ERKS3_"
 "_ZN4Rcpp8internal12string_proxyILi16ENS_15PreserveStorageEEC1ERNS_6VectorILi16ES2_EEx"
 "_ZN4Rcpp8internal13enterRNGScopeEv"
 "_ZN4Rcpp8internal13generic_proxyILi19ENS_15PreserveStorageEE3setEP7SEXPREC"
 "_ZN4Rcpp8internal13generic_proxyILi19ENS_15PreserveStorageEE4moveEx"
 "_ZN4Rcpp8internal13generic_proxyILi19ENS_15PreserveStorageEEaSEP7SEXPREC"
 "_ZN4Rcpp8internal13generic_proxyILi19ENS_15PreserveStorageEEC1ERKS3_"
 "_ZN4Rcpp8internal13generic_proxyILi19ENS_15PreserveStorageEEC1ERNS_6VectorILi19ES2_EEx"
 "_ZN4Rcpp8internal13make_charsexpINSt7__cxx1112basic_stringIcSt11char_traitsIcESaIcEEEEEP7SEXPRECRKT_"
 "_ZN4Rcpp8internal13r_init_vectorILi16EEEvP7SEXPREC"
 "_ZN4Rcpp8internal13r_init_vectorILi19EEEvP7SEXPREC"
 "_ZN4Rcpp8internal13wrap_dispatchIbEEP7SEXPRECRKT_NS_6traits23wrap_type_primitive_tagE"
 "_ZN4Rcpp8internal13wrap_dispatchIiEEP7SEXPRECRKT_NS_6traits23wrap_type_primitive_tagE"
 "_ZN4Rcpp8internal13wrap_dispatchINS_6ShieldIP7SEXPRECEEEES4_RKT_NS_6traits21wrap_type_unknown_tagE"
 "_ZN4Rcpp8internal13wrap_dispatchINS_6VectorILi16ENS_15PreserveStorageEEEEEP7SEXPRECRKT_NS_6traits21wrap_type_unknown_tagE"
 "_ZN4Rcpp8internal13wrap_dispatchINS_6VectorILi19ENS_15PreserveStorageEEEEEP7SEXPRECRKT_NS_6traits21wrap_type_unknown_tagE"
 "_ZN4Rcpp8internal13wrap_dispatchINSt7__cxx1112basic_stringIcSt11char_traitsIcESaIcEEEEEP7SEXPRECRKT_NS_6traits23wrap_type_primitive_tagE"
 "_ZN4Rcpp8internal13wrap_dispatchIP7SEXPRECEES3_RKT_NS_6traits21wrap_type_unknown_tagE"
 "_ZN4Rcpp8internal14primitive_wrapIbEEP7SEXPRECRKT_"
 "_ZN4Rcpp8internal14primitive_wrapIiEEP7SEXPRECRKT_"
 "_ZN4Rcpp8internal14primitive_wrapINSt7__cxx1112basic_stringIcSt11char_traitsIcESaIcEEEEEP7SEXPRECRKT_"
 "_ZN4Rcpp8internal14Proxy_IteratorINS0_12string_proxyILi16ENS_15PreserveStorageEEEEC1ERKS4_"
 "_ZN4Rcpp8internal14Proxy_IteratorINS0_12string_proxyILi16ENS_15PreserveStorageEEEEC1ERKS5_"
 "_ZN4Rcpp8internal14Proxy_IteratorINS0_12string_proxyILi16ENS_15PreserveStorageEEEEdeEv"
 "_ZN4Rcpp8internal14Proxy_IteratorINS0_12string_proxyILi16ENS_15PreserveStorageEEEEppEv"
 "_ZN4Rcpp8internal14Proxy_IteratorINS0_13generic_proxyILi19ENS_15PreserveStorageEEEEC1ERKS4_"
 "_ZN4Rcpp8internal14Proxy_IteratorINS0_13generic_proxyILi19ENS_15PreserveStorageEEEEC1ERKS5_"
 "_ZN4Rcpp8internal14Proxy_IteratorINS0_13generic_proxyILi19ENS_15PreserveStorageEEEEdeEv"
 "_ZN4Rcpp8internal14Proxy_IteratorINS0_13generic_proxyILi19ENS_15PreserveStorageEEEEppEv"
 "_ZN4Rcpp8internal14r_vector_startILi10EEEPNS_6traits12storage_typeIXT_EE4typeEP7SEXPREC"
 "_ZN4Rcpp8internal14r_vector_startILi13EEEPNS_6traits12storage_typeIXT_EE4typeEP7SEXPREC"
 "_ZN4Rcpp8internal14r_vector_startILi14EEEPNS_6traits12storage_typeIXT_EE4typeEP7SEXPREC"
 "_ZN4Rcpp8internal16getLongjumpTokenEP7SEXPREC"
 "_ZN4Rcpp8internal16NamedPlaceHolderC1Ev"
 "_ZN4Rcpp8internal16NamedPlaceHolderD1Ev"
 "_ZN4Rcpp8internal17is_Rcpp_eval_callEP7SEXPREC"
 "_ZN4Rcpp8internal18isLongjumpSentinelEP7SEXPREC"
 "_ZN4Rcpp8internal19check_single_stringEP7SEXPREC"
 "_ZN4Rcpp8internal19make_charsexp__implINSt7__cxx1112basic_stringIcSt11char_traitsIcESaIcEEEEEP7SEXPRECRKT_NS_6traits17integral_constantIbLb0EEE"
 "_ZN4Rcpp8internal19Rcpp_protected_evalEPv"
 "_ZN4Rcpp8internal19wrap_dispatch_eigenINS_6ShieldIP7SEXPRECEEEES4_RKT_NS_6traits17integral_constantIbLb0EEE"
 "_ZN4Rcpp8internal19wrap_dispatch_eigenINS_6VectorILi16ENS_15PreserveStorageEEEEEP7SEXPRECRKT_NS_6traits17integral_constantIbLb0EEE"
 "_ZN4Rcpp8internal19wrap_dispatch_eigenINS_6VectorILi19ENS_15PreserveStorageEEEEEP7SEXPRECRKT_NS_6traits17integral_constantIbLb0EEE"
 "_ZN4Rcpp8internal19wrap_dispatch_eigenIP7SEXPRECEES3_RKT_NS_6traits17integral_constantIbLb0EEE"
 "_ZN4Rcpp8internal20primitive_wrap__implIbEEP7SEXPRECRKT_NS_6traits20r_type_primitive_tagE"
 "_ZN4Rcpp8internal20primitive_wrap__implIiEEP7SEXPRECRKT_NS_6traits20r_type_primitive_tagE"
 "_ZN4Rcpp8internal20primitive_wrap__implINSt7__cxx1112basic_stringIcSt11char_traitsIcESaIcEEEEEP7SEXPRECRKT_NS_6traits17r_type_string_tagE"
 "_ZN4Rcpp8internal21wrap_dispatch_unknownINS_6ShieldIP7SEXPRECEEEES4_RKT_NS_6traits17integral_constantIbLb1EEE"
 "_ZN4Rcpp8internal21wrap_dispatch_unknownINS_6VectorILi16ENS_15PreserveStorageEEEEEP7SEXPRECRKT_NS_6traits17integral_constantIbLb1EEE"
 "_ZN4Rcpp8internal21wrap_dispatch_unknownINS_6VectorILi19ENS_15PreserveStorageEEEEEP7SEXPRECRKT_NS_6traits17integral_constantIbLb1EEE"
 "_ZN4Rcpp8internal21wrap_dispatch_unknownIP7SEXPRECEES3_RKT_NS_6traits17integral_constantIbLb1EEE"
 "_ZN4Rcpp8internal25generic_element_converterILi19EE3getEPKc"
 "_ZN4Rcpp8internal25generic_element_converterILi19EE3getIiEEP7SEXPRECRKT_"
 "_ZN4Rcpp8internal25generic_element_converterILi19EE3getINS_6VectorILi16ENS_15PreserveStorageEEEEEP7SEXPRECRKT_"
 "_ZN4Rcpp8internal26primitive_wrap__impl__castIbEEP7SEXPRECRKT_NS_6traits17integral_constantIbLb1EEE"
 "_ZN4Rcpp8internal26primitive_wrap__impl__castIiEEP7SEXPRECRKT_NS_6traits17integral_constantIbLb0EEE"
 "_ZN4Rcpp8internal28make_charsexp__impl__cstringEPKc"
 "_ZN4Rcpp8internal28make_charsexp__impl__cstringERKNSt7__cxx1112basic_stringIcSt11char_traitsIcESaIcEEE"
 "_ZN4Rcpp8internal2asIbEET_P7SEXPRECNS_6traits20r_type_primitive_tagE"
 "_ZN4Rcpp8internal2asIdEET_P7SEXPRECNS_6traits20r_type_primitive_tagE"
 "_ZN4Rcpp8internal2asIiEET_P7SEXPRECNS_6traits20r_type_primitive_tagE"
 "_ZN4Rcpp8internal2asINS_13Function_ImplINS_15PreserveStorageEEEEET_P7SEXPRECNS_6traits18r_type_generic_tagE"
 "_ZN4Rcpp8internal2asINSt7__cxx1112basic_stringIcSt11char_traitsIcESaIcEEEEET_P7SEXPRECNS_6traits17r_type_string_tagE"
 "_ZN4Rcpp8internal32wrap_dispatch_unknown_importableINS_6ShieldIP7SEXPRECEEEES4_RKT_NS_6traits17integral_constantIbLb0EEE"
 "_ZN4Rcpp8internal32wrap_dispatch_unknown_importableINS_6VectorILi16ENS_15PreserveStorageEEEEEP7SEXPRECRKT_NS_6traits17integral_constantIbLb0EEE"
 "_ZN4Rcpp8internal32wrap_dispatch_unknown_importableINS_6VectorILi19ENS_15PreserveStorageEEEEEP7SEXPRECRKT_NS_6traits17integral_constantIbLb0EEE"
 "_ZN4Rcpp8internal32wrap_dispatch_unknown_importableIP7SEXPRECEES3_RKT_NS_6traits17integral_constantIbLb0EEE"
 "_ZN4Rcpp8internal3nthEP7SEXPRECi"
 "_ZN4Rcpp8internal6casterIbiEET0_T_"
 "_ZN4Rcpp8internal6casterIddEET0_T_"
 "_ZN4Rcpp8internal6casterIibEET0_T_"
 "_ZN4Rcpp8internal6casterIiiEET0_T_"
 "_ZN4Rcpp8internal8EvalDataC1EP7SEXPRECS3_"
 "_ZN4Rcpp8internal9as_stringINSt7__cxx1112basic_stringIcSt11char_traitsIcESaIcEEEEET_P7SEXPRECNS_6traits17integral_constantIbLb0EEE"
 "_ZN4Rcpp8internal9maybeJumpEPv8Rboolean"
 "_ZN4Rcpp8RNGScopeC1Ev"
 "_ZN4Rcpp8RNGScopeD1Ev"
 "_ZN4Rcpp8RostreamILb0EEC1Ev"
 "_ZN4Rcpp8RostreamILb0EED0Ev"
 "_ZN4Rcpp8RostreamILb0EED1Ev"
 "_ZN4Rcpp8RostreamILb1EEC1Ev"
 "_ZN4Rcpp8RostreamILb1EED0Ev"
 "_ZN4Rcpp8RostreamILb1EED1Ev"
 "_ZN4Rcpp9exception18record_stack_traceEv"
 "_ZN4Rcpp9exceptionC1EPKcb"
 "_ZN4Rcpp9exceptionD0Ev"
 "_ZN4Rcpp9exceptionD1Ev"
 "_ZN9__gnu_cxx11char_traitsIcE2eqERKcS3_"
 "_ZN9__gnu_cxx11char_traitsIcE6lengthEPKc"
 "_ZN9__gnu_cxx17__normal_iteratorIPKNSt7__cxx1112basic_stringIcSt11char_traitsIcESaIcEEESt6vectorIS6_SaIS6_EEEC1ERKS8_"
 "_ZNK10tinyformat6detail9FormatArg5toIntEv"
 "_ZNK10tinyformat6detail9FormatArg6formatERSoPKcS4_i"
 "_ZNK4Rcpp14not_compatible4whatEv"
 "_ZNK4Rcpp15PreserveStorageINS_12RObject_ImplIS0_EEEcvP7SEXPRECEv"
 "_ZNK4Rcpp15PreserveStorageINS_13Function_ImplIS0_EEE5get__Ev"
 "_ZNK4Rcpp15PreserveStorageINS_6VectorILi16ES0_EEE5get__Ev"
 "_ZNK4Rcpp15PreserveStorageINS_6VectorILi16ES0_EEEcvP7SEXPRECEv"
 "_ZNK4Rcpp15PreserveStorageINS_6VectorILi19ES0_EEE5get__Ev"
 "_ZNK4Rcpp15PreserveStorageINS_6VectorILi19ES0_EEEcvP7SEXPRECEv"
 "_ZNK4Rcpp6ShieldIP7SEXPRECEcvS2_Ev"
 "_ZNK4Rcpp6traits11proxy_cacheILi16ENS_15PreserveStorageEE3getEv"
 "_ZNK4Rcpp6traits11proxy_cacheILi19ENS_15PreserveStorageEE3getEv"
 "_ZNK4Rcpp8internal16NamedPlaceHolderixERKNSt7__cxx1112basic_stringIcSt11char_traitsIcESaIcEEE"
 "_ZNK4Rcpp9exception12include_callEv"
 "_ZNK4Rcpp9exception21copy_stack_trace_to_rEv"
 "_ZNK4Rcpp9exception4whatEv"
 "_ZNK9__gnu_cxx17__normal_iteratorIPKNSt7__cxx1112basic_stringIcSt11char_traitsIcESaIcEEESt6vectorIS6_SaIS6_EEE4baseEv"
 "_ZNKSt6vectorINSt7__cxx1112basic_stringIcSt11char_traitsIcESaIcEEESaIS5_EE3endEv"
 "_ZNKSt6vectorINSt7__cxx1112basic_stringIcSt11char_traitsIcESaIcEEESaIS5_EE4sizeEv"
 "_ZNKSt6vectorINSt7__cxx1112basic_stringIcSt11char_traitsIcESaIcEEESaIS5_EE5beginEv"
 "_ZNKSt8ios_base5flagsEv"
 "_ZNKSt8ios_base5widthEv"
 "_ZNKSt8ios_base9precisionEv"
 "_ZNKSt9type_info4nameEv"
 "_ZNSt11__copy_moveILb0ELb0ESt26random_access_iterator_tagE8__copy_mIPKNSt7__cxx1112basic_stringIcSt11char_traitsIcESaIcEEEN4Rcpp8internal14Proxy_IteratorINSC_12string_proxyILi16ENSB_15PreserveStorageEEEEEEET0_T_SJ_SI_"
 "_ZNSt11char_traitsIcE12to_char_typeERKi"
 "_ZNSt11char_traitsIcE3eofEv"
 "_ZNSt11char_traitsIcE6lengthEPKc"
 "_ZNSt12_Destroy_auxILb0EE9__destroyIPNSt7__cxx1112basic_stringIcSt11char_traitsIcESaIcEEEEEvT_S9_"
 "_ZNSt12_Vector_baseINSt7__cxx1112basic_stringIcSt11char_traitsIcESaIcEEESaIS5_EE12_Vector_implC1Ev"
 "_ZNSt12_Vector_baseINSt7__cxx1112basic_stringIcSt11char_traitsIcESaIcEEESaIS5_EE12_Vector_implD1Ev"
 "_ZNSt12_Vector_baseINSt7__cxx1112basic_stringIcSt11char_traitsIcESaIcEEESaIS5_EE13_M_deallocateEPS5_y"
 "_ZNSt12_Vector_baseINSt7__cxx1112basic_stringIcSt11char_traitsIcESaIcEEESaIS5_EE17_Vector_impl_dataC2Ev"
 "_ZNSt12_Vector_baseINSt7__cxx1112basic_stringIcSt11char_traitsIcESaIcEEESaIS5_EE19_M_get_Tp_allocatorEv"
 "_ZNSt12_Vector_baseINSt7__cxx1112basic_stringIcSt11char_traitsIcESaIcEEESaIS5_EEC2Ev"
 "_ZNSt12_Vector_baseINSt7__cxx1112basic_stringIcSt11char_traitsIcESaIcEEESaIS5_EED2Ev"
 "_ZNSt15__new_allocatorIcED2Ev"
 "_ZNSt15__new_allocatorINSt7__cxx1112basic_stringIcSt11char_traitsIcESaIcEEEE10deallocateEPS5_y"
 "_ZNSt15__new_allocatorINSt7__cxx1112basic_stringIcSt11char_traitsIcESaIcEEEED2Ev"
 "_ZNSt6vectorINSt7__cxx1112basic_stringIcSt11char_traitsIcESaIcEEESaIS5_EEC1Ev"
 "_ZNSt6vectorINSt7__cxx1112basic_stringIcSt11char_traitsIcESaIcEEESaIS5_EED1Ev"
 "_ZNSt7__cxx1112basic_stringIcSt11char_traitsIcESaIcEE12_Alloc_hiderD1Ev"
 "_ZNSt7__cxx1112basic_stringIcSt11char_traitsIcESaIcEE12_M_constructIPKcEEvT_S8_St20forward_iterator_tag"
 "_ZNSt7__cxx1112basic_stringIcSt11char_traitsIcESaIcEEC1IS3_EEPKcRKS3_"
 "_ZNSt8ios_base4setfESt13_Ios_Fmtflags"
 "_ZNSt8ios_base4setfESt13_Ios_FmtflagsS0_"
 "_ZNSt8ios_base5flagsESt13_Ios_Fmtflags"
 "_ZNSt8ios_base5widthEx"
 "_ZNSt8ios_base6unsetfESt13_Ios_Fmtflags"
 "_ZNSt8ios_base9precisionEx"
 "_ZNSt9exceptionC2Ev"
 "_ZSt11__addressofINSt7__cxx1112basic_stringIcSt11char_traitsIcESaIcEEEEPT_RS6_"
 "_ZSt12__miter_baseIN9__gnu_cxx17__normal_iteratorIPKNSt7__cxx1112basic_stringIcSt11char_traitsIcESaIcEEESt6vectorIS7_SaIS7_EEEEET_SE_"
 "_ZSt12__niter_baseIN4Rcpp8internal14Proxy_IteratorINS1_12string_proxyILi16ENS0_15PreserveStorageEEEEEET_S7_"
 "_ZSt12__niter_baseIPKNSt7__cxx1112basic_stringIcSt11char_traitsIcESaIcEEESt6vectorIS5_SaIS5_EEET_N9__gnu_cxx17__normal_iteratorISB_T0_EE"
 "_ZSt12__niter_wrapIN4Rcpp8internal14Proxy_IteratorINS1_12string_proxyILi16ENS0_15PreserveStorageEEEEEET_RKS7_S7_"
 "_ZSt13__copy_move_aILb0EN9__gnu_cxx17__normal_iteratorIPKNSt7__cxx1112basic_stringIcSt11char_traitsIcESaIcEEESt6vectorIS7_SaIS7_EEEEN4Rcpp8internal14Proxy_IteratorINSF_12string_proxyILi16ENSE_15PreserveStorageEEEEEET1_T0_SM_SL_"
 "_ZSt14__copy_move_a1ILb0EPKNSt7__cxx1112basic_stringIcSt11char_traitsIcESaIcEEEN4Rcpp8internal14Proxy_IteratorINS9_12string_proxyILi16ENS8_15PreserveStorageEEEEEET1_T0_SG_SF_"
 "_ZSt14__copy_move_a2ILb0EPKNSt7__cxx1112basic_stringIcSt11char_traitsIcESaIcEEEN4Rcpp8internal14Proxy_IteratorINS9_12string_proxyILi16ENS8_15PreserveStorageEEEEEET1_T0_SG_SF_"
 "_ZSt23__is_constant_evaluatedv"
 "_ZSt3minIiERKT_S2_S2_"
 "_ZSt4copyIN9__gnu_cxx17__normal_iteratorIPKNSt7__cxx1112basic_stringIcSt11char_traitsIcESaIcEEESt6vectorIS7_SaIS7_EEEEN4Rcpp8internal14Proxy_IteratorINSF_12string_proxyILi16ENSE_15PreserveStorageEEEEEET0_T_SM_SL_"
 "_ZSt7forwardIiEOT_RNSt16remove_referenceIS0_E4typeE"
 "_ZSt7forwardIPKcEOT_RNSt16remove_referenceIS2_E4typeE"
 "_ZSt8_DestroyINSt7__cxx1112basic_stringIcSt11char_traitsIcESaIcEEEEvPT_"
 "_ZSt8_DestroyIPNSt7__cxx1112basic_stringIcSt11char_traitsIcESaIcEEEEvT_S7_"
 "_ZStaNRSt13_Ios_FmtflagsS_"
 "_ZStanSt13_Ios_FmtflagsS_"
 "_ZStcoSt13_Ios_Fmtflags"
 "_ZStoRRSt13_Ios_FmtflagsS_"
 "_ZStorSt13_Ios_FmtflagsS_"
 "_ZTCN4Rcpp8RostreamILb0EEE0_So"
 "_ZTCN4Rcpp8RostreamILb1EEE0_So"
 "_ZTIN4Rcpp10RstreambufILb0EEE"
 "_ZTIN4Rcpp10RstreambufILb1EEE"
 "_ZTIN4Rcpp14not_compatibleE"
 "_ZTIN4Rcpp17LongjumpExceptionE"
 "_ZTIN4Rcpp8internal20InterruptedExceptionE"
 "_ZTIN4Rcpp8RostreamILb0EEE"
 "_ZTIN4Rcpp8RostreamILb1EEE"
 "_ZTIN4Rcpp9exceptionE"
 "_ZTISt9exception"
 "_ZTSN4Rcpp10RstreambufILb0EEE"
 "_ZTSN4Rcpp10RstreambufILb1EEE"
 "_ZTSN4Rcpp14not_compatibleE"
 "_ZTSN4Rcpp17LongjumpExceptionE"
 "_ZTSN4Rcpp8internal20InterruptedExceptionE"
 "_ZTSN4Rcpp8RostreamILb0EEE"
 "_ZTSN4Rcpp8RostreamILb1EEE"
 "_ZTSN4Rcpp9exceptionE"
 "_ZTSSt9exception"
 "_ZTTN4Rcpp8RostreamILb0EEE"
 "_ZTTN4Rcpp8RostreamILb1EEE"
 "_ZTv0_n24_N4Rcpp8RostreamILb0EED0Ev"
 "_ZTv0_n24_N4Rcpp8RostreamILb0EED1Ev"
 "_ZTv0_n24_N4Rcpp8RostreamILb1EED0Ev"
 "_ZTv0_n24_N4Rcpp8RostreamILb1EED1Ev"
 "_ZTVN4Rcpp10RstreambufILb0EEE"
 "_ZTVN4Rcpp10RstreambufILb1EEE"
 "_ZTVN4Rcpp14not_compatibleE"
 "_ZTVN4Rcpp8RostreamILb0EEE"
 "_ZTVN4Rcpp8RostreamILb1EEE"
 "_ZTVN4Rcpp9exceptionE"
 "_ZZ20rcpp_get_stack_tracevE3fun"
 "_ZZ20rcpp_set_stack_traceP7SEXPRECE3fun"
 "_ZZ8demangleRKNSt7__cxx1112basic_stringIcSt11char_traitsIcESaIcEEEE3funB5cxx11"
 "_ZZN4Rcpp20Rcpp_precious_removeEP7SEXPRECE3fun"
 "_ZZN4Rcpp22Rcpp_precious_preserveEP7SEXPRECE3fun"
 "_ZZN4Rcpp8internal12exitRNGScopeEvE3fun"
 "_ZZN4Rcpp8internal13enterRNGScopeEvE3fun"
 "_ZZNSt7__cxx1112basic_stringIcSt11char_traitsIcESaIcEE12_M_constructIPKcEEvT_S8_St20forward_iterator_tagEN6_GuardC1EPS4_"
 "_ZZNSt7__cxx1112basic_stringIcSt11char_traitsIcESaIcEE12_M_constructIPKcEEvT_S8_St20forward_iterator_tagEN6_GuardD1Ev"
 "R_init_edgemodelr"
 "_ZdlPvS_"
 "_ZN18llama_adapter_cvec4initERK11llama_model"
 "_ZN18llama_adapter_cvec5applyERK11llama_modelPKfyiii"
 "_ZN18llama_adapter_lora10get_weightEP11ggml_tensor"
 "_ZN18llama_adapter_loraC1Ev"
 "_ZN18llama_adapter_loraD1Ev"
 "_ZN20ggml_context_deleterclEP12ggml_context"
 "_ZN20gguf_context_deleterclEP12gguf_context"
 "_ZN25llama_adapter_lora_weightC1EP11ggml_tensorS1_"
 "_ZN25llama_adapter_lora_weightC1Ev"
 "_ZN27ggml_backend_buffer_deleterclEP19ggml_backend_buffer"
 "_ZN9__gnu_cxx11char_traitsIcE2eqERKcS3_"
 "_ZN9__gnu_cxx11char_traitsIcE6lengthEPKc"
 "_ZN9__gnu_cxx16__aligned_bufferISt4pairIKNSt7__cxx1112basic_stringIcSt11char_traitsIcESaIcEEE25llama_adapter_lora_weightEE6_M_ptrEv"
 "_ZN9__gnu_cxx16__aligned_bufferISt4pairIKNSt7__cxx1112basic_stringIcSt11char_traitsIcESaIcEEE25llama_adapter_lora_weightEE7_M_addrEv"
 "_ZN9__gnu_cxx16__aligned_membufISt4pairIKNSt7__cxx1112basic_stringIcSt11char_traitsIcESaIcEEE25llama_adapter_lora_weightEE6_M_ptrEv"
 "_ZN9__gnu_cxx16__aligned_membufISt4pairIKNSt7__cxx1112basic_stringIcSt11char_traitsIcESaIcEEE25llama_adapter_lora_weightEE7_M_addrEv"
 "_ZN9__gnu_cxx16__aligned_membufISt4pairIKP24ggml_backend_buffer_typeP12ggml_contextEE6_M_ptrEv"
 "_ZN9__gnu_cxx16__aligned_membufISt4pairIKP24ggml_backend_buffer_typeP12ggml_contextEE7_M_addrEv"
 "_ZN9__gnu_cxx17__normal_iteratorIPKP11ggml_tensorSt6vectorIS2_SaIS2_EEEC1ERKS4_"
 "_ZN9__gnu_cxx17__normal_iteratorIPKSt10unique_ptrI12ggml_context20ggml_context_deleterESt6vectorIS4_SaIS4_EEEC1ERKS6_"
 "_ZN9__gnu_cxx17__normal_iteratorIPKSt10unique_ptrI19ggml_backend_buffer27ggml_backend_buffer_deleterESt6vectorIS4_SaIS4_EEEC1ERKS6_"
 "_ZN9__gnu_cxx17__normal_iteratorIPP11ggml_tensorSt6vectorIS2_SaIS2_EEEC1ERKS3_"
 "_ZN9__gnu_cxx17__normal_iteratorIPP24ggml_backend_buffer_typeSt6vectorIS2_SaIS2_EEEC1ERKS3_"
 "_ZN9__gnu_cxx17__normal_iteratorIPP24ggml_backend_buffer_typeSt6vectorIS2_SaIS2_EEEppEv"
 "_ZN9__gnu_cxx17__normal_iteratorIPSt10unique_ptrI12ggml_context20ggml_context_deleterESt6vectorIS4_SaIS4_EEEC1ERKS5_"
 "_ZN9__gnu_cxx17__normal_iteratorIPSt10unique_ptrI19ggml_backend_buffer27ggml_backend_buffer_deleterESt6vectorIS4_SaIS4_EEEC1ERKS5_"
 "_ZN9__gnu_cxxeqIPKP11ggml_tensorSt6vectorIS2_SaIS2_EEEEbRKNS_17__normal_iteratorIT_T0_EESD_"
 "_ZN9__gnu_cxxeqIPKSt10unique_ptrI12ggml_context20ggml_context_deleterESt6vectorIS4_SaIS4_EEEEbRKNS_17__normal_iteratorIT_T0_EESF_"
 "_ZN9__gnu_cxxeqIPKSt10unique_ptrI19ggml_backend_buffer27ggml_backend_buffer_deleterESt6vectorIS4_SaIS4_EEEEbRKNS_17__normal_iteratorIT_T0_EESF_"
 "_ZN9__gnu_cxxmiIPP11ggml_tensorSt6vectorIS2_SaIS2_EEEENS_17__normal_iteratorIT_T0_E15difference_typeERKSA_SD_"
 "_ZN9__gnu_cxxmiIPP24ggml_backend_buffer_typeSt6vectorIS2_SaIS2_EEEENS_17__normal_iteratorIT_T0_E15difference_typeERKSA_SD_"
 "_ZN9__gnu_cxxmiIPSt10unique_ptrI12ggml_context20ggml_context_deleterESt6vectorIS4_SaIS4_EEEENS_17__normal_iteratorIT_T0_E15difference_typeERKSC_SF_"
 "_ZN9__gnu_cxxmiIPSt10unique_ptrI19ggml_backend_buffer27ggml_backend_buffer_deleterESt6vectorIS4_SaIS4_EEEENS_17__normal_iteratorIT_T0_E15difference_typeERKSC_SF_"
 "_ZN9__gnu_cxxneIPP24ggml_backend_buffer_typeSt6vectorIS2_SaIS2_EEEEbRKNS_17__normal_iteratorIT_T0_EESC_"
 "_ZNK18llama_adapter_cvec10tensor_forEi"
 "_ZNK18llama_adapter_cvec8apply_toEP12ggml_contextP11ggml_tensori"
 "_ZNK9__gnu_cxx16__aligned_bufferISt4pairIKNSt7__cxx1112basic_stringIcSt11char_traitsIcESaIcEEE25llama_adapter_lora_weightEE6_M_ptrEv"
 "_ZNK9__gnu_cxx16__aligned_bufferISt4pairIKNSt7__cxx1112basic_stringIcSt11char_traitsIcESaIcEEE25llama_adapter_lora_weightEE7_M_addrEv"
 "_ZNK9__gnu_cxx16__aligned_membufISt4pairIKNSt7__cxx1112basic_stringIcSt11char_traitsIcESaIcEEE25llama_adapter_lora_weightEE6_M_ptrEv"
 "_ZNK9__gnu_cxx16__aligned_membufISt4pairIKNSt7__cxx1112basic_stringIcSt11char_traitsIcESaIcEEE25llama_adapter_lora_weightEE7_M_addrEv"
 "_ZNK9__gnu_cxx16__aligned_membufISt4pairIKP24ggml_backend_buffer_typeP12ggml_contextEE6_M_ptrEv"
 "_ZNK9__gnu_cxx16__aligned_membufISt4pairIKP24ggml_backend_buffer_typeP12ggml_contextEE7_M_addrEv"
 "_ZNK9__gnu_cxx17__normal_iteratorIPKP11ggml_tensorSt6vectorIS2_SaIS2_EEE4baseEv"
 "_ZNK9__gnu_cxx17__normal_iteratorIPKSt10unique_ptrI12ggml_context20ggml_context_deleterESt6vectorIS4_SaIS4_EEE4baseEv"
 "_ZNK9__gnu_cxx17__normal_iteratorIPKSt10unique_ptrI19ggml_backend_buffer27ggml_backend_buffer_deleterESt6vectorIS4_SaIS4_EEE4baseEv"
 "_ZNK9__gnu_cxx17__normal_iteratorIPP11ggml_tensorSt6vectorIS2_SaIS2_EEE4baseEv"
 "_ZNK9__gnu_cxx17__normal_iteratorIPP11ggml_tensorSt6vectorIS2_SaIS2_EEEdeEv"
 "_ZNK9__gnu_cxx17__normal_iteratorIPP11ggml_tensorSt6vectorIS2_SaIS2_EEEmiEx"
 "_ZNK9__gnu_cxx17__normal_iteratorIPP24ggml_backend_buffer_typeSt6vectorIS2_SaIS2_EEE4baseEv"
 "_ZNK9__gnu_cxx17__normal_iteratorIPP24ggml_backend_buffer_typeSt6vectorIS2_SaIS2_EEEdeEv"
 "_ZNK9__gnu_cxx17__normal_iteratorIPP24ggml_backend_buffer_typeSt6vectorIS2_SaIS2_EEEmiEx"
 "_ZNK9__gnu_cxx17__normal_iteratorIPSt10unique_ptrI12ggml_context20ggml_context_deleterESt6vectorIS4_SaIS4_EEE4baseEv"
 "_ZNK9__gnu_cxx17__normal_iteratorIPSt10unique_ptrI12ggml_context20ggml_context_deleterESt6vectorIS4_SaIS4_EEEdeEv"
 "_ZNK9__gnu_cxx17__normal_iteratorIPSt10unique_ptrI12ggml_context20ggml_context_deleterESt6vectorIS4_SaIS4_EEEmiEx"
 "_ZNK9__gnu_cxx17__normal_iteratorIPSt10unique_ptrI19ggml_backend_buffer27ggml_backend_buffer_deleterESt6vectorIS4_SaIS4_EEE4baseEv"
 "_ZNK9__gnu_cxx17__normal_iteratorIPSt10unique_ptrI19ggml_backend_buffer27ggml_backend_buffer_deleterESt6vectorIS4_SaIS4_EEEdeEv"
 "_ZNK9__gnu_cxx17__normal_iteratorIPSt10unique_ptrI19ggml_backend_buffer27ggml_backend_buffer_deleterESt6vectorIS4_SaIS4_EEEmiEx"
 "_ZNKSt10_HashtableINSt7__cxx1112basic_stringIcSt11char_traitsIcESaIcEEESt4pairIKS5_25llama_adapter_lora_weightESaIS9_ENSt8__detail10_Select1stESt8equal_toIS5_ESt4hashIS5_ENSB_18_Mod_range_hashingENSB_20_Default_ranged_hashENSB_20_Prime_rehash_policyENSB_17_Hashtable_traitsILb1ELb0ELb1EEEE12_M_find_nodeEyRS7_y"
 "_ZNKSt10_HashtableINSt7__cxx1112basic_stringIcSt11char_traitsIcESaIcEEESt4pairIKS5_25llama_adapter_lora_weightESaIS9_ENSt8__detail10_Select1stESt8equal_toIS5_ESt4hashIS5_ENSB_18_Mod_range_hashingENSB_20_Default_ranged_hashENSB_20_Prime_rehash_policyENSB_17_Hashtable_traitsILb1ELb0ELb1EEEE15_M_bucket_indexERKNSB_16_Hash_node_valueIS9_Lb1EEE"
 "_ZNKSt10_HashtableINSt7__cxx1112basic_stringIcSt11char_traitsIcESaIcEEESt4pairIKS5_25llama_adapter_lora_weightESaIS9_ENSt8__detail10_Select1stESt8equal_toIS5_ESt4hashIS5_ENSB_18_Mod_range_hashingENSB_20_Default_ranged_hashENSB_20_Prime_rehash_policyENSB_17_Hashtable_traitsILb1ELb0ELb1EEEE15_M_bucket_indexEy"
 "_ZNKSt10_HashtableINSt7__cxx1112basic_stringIcSt11char_traitsIcESaIcEEESt4pairIKS5_25llama_adapter_lora_weightESaIS9_ENSt8__detail10_Select1stESt8equal_toIS5_ESt4hashIS5_ENSB_18_Mod_range_hashingENSB_20_Default_ranged_hashENSB_20_Prime_rehash_policyENSB_17_Hashtable_traitsILb1ELb0ELb1EEEE19_M_find_before_nodeEyRS7_y"
 "_ZNKSt10_HashtableINSt7__cxx1112basic_stringIcSt11char_traitsIcESaIcEEESt4pairIKS5_25llama_adapter_lora_weightESaIS9_ENSt8__detail10_Select1stESt8equal_toIS5_ESt4hashIS5_ENSB_18_Mod_range_hashingENSB_20_Default_ranged_hashENSB_20_Prime_rehash_policyENSB_17_Hashtable_traitsILb1ELb0ELb1EEEE21_M_uses_single_bucketEPPNSB_15_Hash_node_baseE"
 "_ZNKSt10_HashtableINSt7__cxx1112basic_stringIcSt11char_traitsIcESaIcEEESt4pairIKS5_25llama_adapter_lora_weightESaIS9_ENSt8__detail10_Select1stESt8equal_toIS5_ESt4hashIS5_ENSB_18_Mod_range_hashingENSB_20_Default_ranged_hashENSB_20_Prime_rehash_policyENSB_17_Hashtable_traitsILb1ELb0ELb1EEEE4sizeEv"
 "_ZNKSt10_HashtableINSt7__cxx1112basic_stringIcSt11char_traitsIcESaIcEEESt4pairIKS5_25llama_adapter_lora_weightESaIS9_ENSt8__detail10_Select1stESt8equal_toIS5_ESt4hashIS5_ENSB_18_Mod_range_hashingENSB_20_Default_ranged_hashENSB_20_Prime_rehash_policyENSB_17_Hashtable_traitsILb1ELb0ELb1EEEE8_M_beginEv"
 "_ZNKSt10_Select1stISt4pairIKNSt7__cxx1112basic_stringIcSt11char_traitsIcESaIcEEE25llama_adapter_lora_weightEEclERKS9_"
 "_ZNKSt10_Select1stISt4pairIKP24ggml_backend_buffer_typeP12ggml_contextEEclERKS6_"
 "_ZNKSt10unique_ptrI12ggml_context20ggml_context_deleterE3getEv"
 "_ZNKSt10unique_ptrI12gguf_context20gguf_context_deleterE3getEv"
 "_ZNKSt10unique_ptrI12gguf_context20gguf_context_deleterEcvbEv"
 "_ZNKSt10unique_ptrI19ggml_backend_buffer27ggml_backend_buffer_deleterE3getEv"
 "_ZNKSt10unique_ptrI19ggml_backend_buffer27ggml_backend_buffer_deleterEcvbEv"
 "_ZNKSt12_Vector_baseIhSaIhEE19_M_get_Tp_allocatorEv"
 "_ZNKSt12_Vector_baseIP11ggml_tensorSaIS1_EE19_M_get_Tp_allocatorEv"
 "_ZNKSt12_Vector_baseIP24ggml_backend_buffer_typeSaIS1_EE19_M_get_Tp_allocatorEv"
 "_ZNKSt12_Vector_baseISt10unique_ptrI12ggml_context20ggml_context_deleterESaIS3_EE19_M_get_Tp_allocatorEv"
 "_ZNKSt12_Vector_baseISt10unique_ptrI19ggml_backend_buffer27ggml_backend_buffer_deleterESaIS3_EE19_M_get_Tp_allocatorEv"
 "_ZNKSt13_Rb_tree_nodeISt4pairIKNSt7__cxx1112basic_stringIcSt11char_traitsIcESaIcEEE25llama_adapter_lora_weightEE9_M_valptrEv"
 "_ZNKSt13_Rb_tree_nodeISt4pairIKP24ggml_backend_buffer_typeP12ggml_contextEE9_M_valptrEv"
 "_ZNKSt13unordered_mapINSt7__cxx1112basic_stringIcSt11char_traitsIcESaIcEEE25llama_adapter_lora_weightSt4hashIS5_ESt8equal_toIS5_ESaISt4pairIKS5_S6_EEE4sizeEv"
 "_ZNKSt15__str_hash_baseIcSaIcENSt7__cxx1112basic_stringIcSt11char_traitsIcES0_EEEclERKS5_"
 "_ZNKSt15__uniq_ptr_implI12ggml_context20ggml_context_deleterE6_M_ptrEv"
 "_ZNKSt15__uniq_ptr_implI12gguf_context20gguf_context_deleterE6_M_ptrEv"
 "_ZNKSt15__uniq_ptr_implI19ggml_backend_buffer27ggml_backend_buffer_deleterE6_M_ptrEv"
 "_ZNKSt17_Rb_tree_iteratorISt4pairIKNSt7__cxx1112basic_stringIcSt11char_traitsIcESaIcEEE25llama_adapter_lora_weightEEdeEv"
 "_ZNKSt17_Rb_tree_iteratorISt4pairIKP24ggml_backend_buffer_typeP12ggml_contextEEdeEv"
 "_ZNKSt17_Rb_tree_iteratorISt4pairIKP24ggml_backend_buffer_typeP12ggml_contextEEptEv"
 "_ZNKSt23_Rb_tree_const_iteratorISt4pairIKNSt7__cxx1112basic_stringIcSt11char_traitsIcESaIcEEE25llama_adapter_lora_weightEE13_M_const_castEv"
 "_ZNKSt23_Rb_tree_const_iteratorISt4pairIKP24ggml_backend_buffer_typeP12ggml_contextEE13_M_const_castEv"
 "_ZNKSt3mapINSt7__cxx1112basic_stringIcSt11char_traitsIcESaIcEEE25llama_adapter_lora_weightSt4lessIS5_ESaISt4pairIKS5_S6_EEE8key_compEv"
 "_ZNKSt3mapIP24ggml_backend_buffer_typeP12ggml_contextSt4lessIS1_ESaISt4pairIKS1_S3_EEE4sizeEv"
 "_ZNKSt3mapIP24ggml_backend_buffer_typeP12ggml_contextSt4lessIS1_ESaISt4pairIKS1_S3_EEE8key_compEv"
 "_ZNKSt4lessINSt7__cxx1112basic_stringIcSt11char_traitsIcESaIcEEEEclERKS5_S8_"
 "_ZNKSt4lessIP24ggml_backend_buffer_typeEclES1_S1_"
 "_ZNKSt6vectorIhSaIhEE11_M_data_ptrIhEEPT_S4_"
 "_ZNKSt6vectorIhSaIhEE12_M_check_lenEyPKc"
 "_ZNKSt6vectorIhSaIhEE4sizeEv"
 "_ZNKSt6vectorIhSaIhEE8max_sizeEv"
 "_ZNKSt6vectorIP11ggml_tensorSaIS1_EE12_M_check_lenEyPKc"
 "_ZNKSt6vectorIP11ggml_tensorSaIS1_EE3endEv"
 "_ZNKSt6vectorIP11ggml_tensorSaIS1_EE4sizeEv"
 "_ZNKSt6vectorIP11ggml_tensorSaIS1_EE5beginEv"
 "_ZNKSt6vectorIP11ggml_tensorSaIS1_EE5emptyEv"
 "_ZNKSt6vectorIP11ggml_tensorSaIS1_EE8capacityEv"
 "_ZNKSt6vectorIP11ggml_tensorSaIS1_EE8max_sizeEv"
 "_ZNKSt6vectorIP11ggml_tensorSaIS1_EEixEy"
 "_ZNKSt6vectorIP24ggml_backend_buffer_typeSaIS1_EE12_M_check_lenEyPKc"
 "_ZNKSt6vectorIP24ggml_backend_buffer_typeSaIS1_EE4sizeEv"
 "_ZNKSt6vectorIP24ggml_backend_buffer_typeSaIS1_EE8max_sizeEv"
 "_ZNKSt6vectorISt10unique_ptrI12ggml_context20ggml_context_deleterESaIS3_EE12_M_check_lenEyPKc"
 "_ZNKSt6vectorISt10unique_ptrI12ggml_context20ggml_context_deleterESaIS3_EE3endEv"
 "_ZNKSt6vectorISt10unique_ptrI12ggml_context20ggml_context_deleterESaIS3_EE4sizeEv"
 "_ZNKSt6vectorISt10unique_ptrI12ggml_context20ggml_context_deleterESaIS3_EE5beginEv"
 "_ZNKSt6vectorISt10unique_ptrI12ggml_context20ggml_context_deleterESaIS3_EE5emptyEv"
 "_ZNKSt6vectorISt10unique_ptrI12ggml_context20ggml_context_deleterESaIS3_EE8capacityEv"
 "_ZNKSt6vectorISt10unique_ptrI12ggml_context20ggml_context_deleterESaIS3_EE8max_sizeEv"
 "_ZNKSt6vectorISt10unique_ptrI19ggml_backend_buffer27ggml_backend_buffer_deleterESaIS3_EE12_M_check_lenEyPKc"
 "_ZNKSt6vectorISt10unique_ptrI19ggml_backend_buffer27ggml_backend_buffer_deleterESaIS3_EE3endEv"
 "_ZNKSt6vectorISt10unique_ptrI19ggml_backend_buffer27ggml_backend_buffer_deleterESaIS3_EE4sizeEv"
 "_ZNKSt6vectorISt10unique_ptrI19ggml_backend_buffer27ggml_backend_buffer_deleterESaIS3_EE5beginEv"
 "_ZNKSt6vectorISt10unique_ptrI19ggml_backend_buffer27ggml_backend_buffer_deleterESaIS3_EE5emptyEv"
 "_ZNKSt6vectorISt10unique_ptrI19ggml_backend_buffer27ggml_backend_buffer_deleterESaIS3_EE8capacityEv"
 "_ZNKSt6vectorISt10unique_ptrI19ggml_backend_buffer27ggml_backend_buffer_deleterESaIS3_EE8max_sizeEv"
 "_ZNKSt8__detail10_Hash_nodeISt4pairIKNSt7__cxx1112basic_stringIcSt11char_traitsIcESaIcEEE25llama_adapter_lora_weightELb1EE7_M_nextEv"
 "_ZNKSt8__detail10_Select1stclIRKSt4pairIKNSt7__cxx1112basic_stringIcSt11char_traitsIcESaIcEEE25llama_adapter_lora_weightEEEONS0_10__1st_typeIT_E4typeEOSF_"
 "_ZNKSt8__detail14_Node_iteratorISt4pairIKNSt7__cxx1112basic_stringIcSt11char_traitsIcESaIcEEE25llama_adapter_lora_weightELb0ELb1EEdeEv"
 "_ZNKSt8__detail14_Node_iteratorISt4pairIKNSt7__cxx1112basic_stringIcSt11char_traitsIcESaIcEEE25llama_adapter_lora_weightELb0ELb1EEptEv"
 "_ZNKSt8__detail15_Hash_code_baseINSt7__cxx1112basic_stringIcSt11char_traitsIcESaIcEEESt4pairIKS6_25llama_adapter_lora_weightENS_10_Select1stESt4hashIS6_ENS_18_Mod_range_hashingENS_20_Default_ranged_hashELb1EE12_M_hash_codeERS8_"
 "_ZNKSt8__detail15_Hash_code_baseINSt7__cxx1112basic_stringIcSt11char_traitsIcESaIcEEESt4pairIKS6_25llama_adapter_lora_weightENS_10_Select1stESt4hashIS6_ENS_18_Mod_range_hashingENS_20_Default_ranged_hashELb1EE13_M_store_codeERNS_21_Hash_node_code_cacheILb1EEEy"
 "_ZNKSt8__detail15_Hash_code_baseINSt7__cxx1112basic_stringIcSt11char_traitsIcESaIcEEESt4pairIKS6_25llama_adapter_lora_weightENS_10_Select1stESt4hashIS6_ENS_18_Mod_range_hashingENS_20_Default_ranged_hashELb1EE15_M_bucket_indexERKNS_16_Hash_node_valueISA_Lb1EEEy"
 "_ZNKSt8__detail15_Hash_code_baseINSt7__cxx1112basic_stringIcSt11char_traitsIcESaIcEEESt4pairIKS6_25llama_adapter_lora_weightENS_10_Select1stESt4hashIS6_ENS_18_Mod_range_hashingENS_20_Default_ranged_hashELb1EE15_M_bucket_indexEyy"
 "_ZNKSt8__detail15_Hash_code_baseINSt7__cxx1112basic_stringIcSt11char_traitsIcESaIcEEESt4pairIKS6_25llama_adapter_lora_weightENS_10_Select1stESt4hashIS6_ENS_18_Mod_range_hashingENS_20_Default_ranged_hashELb1EE7_M_hashEv"
 "_ZNKSt8__detail15_Hashtable_baseINSt7__cxx1112basic_stringIcSt11char_traitsIcESaIcEEESt4pairIKS6_25llama_adapter_lora_weightENS_10_Select1stESt8equal_toIS6_ESt4hashIS6_ENS_18_Mod_range_hashingENS_20_Default_ranged_hashENS_17_Hashtable_traitsILb1ELb0ELb1EEEE13_M_key_equalsERS8_RKNS_16_Hash_node_valueISA_Lb1EEE"
 "_ZNKSt8__detail15_Hashtable_baseINSt7__cxx1112basic_stringIcSt11char_traitsIcESaIcEEESt4pairIKS6_25llama_adapter_lora_weightENS_10_Select1stESt8equal_toIS6_ESt4hashIS6_ENS_18_Mod_range_hashingENS_20_Default_ranged_hashENS_17_Hashtable_traitsILb1ELb0ELb1EEEE5_M_eqEv"
 "_ZNKSt8__detail15_Hashtable_baseINSt7__cxx1112basic_stringIcSt11char_traitsIcESaIcEEESt4pairIKS6_25llama_adapter_lora_weightENS_10_Select1stESt8equal_toIS6_ESt4hashIS6_ENS_18_Mod_range_hashingENS_20_Default_ranged_hashENS_17_Hashtable_traitsILb1ELb0ELb1EEEE9_M_equalsERS8_yRKNS_16_Hash_node_valueISA_Lb1EEE"
 "_ZNKSt8__detail18_Mod_range_hashingclEyy"
 "_ZNKSt8__detail20_Prime_rehash_policy8_M_stateEv"
 "_ZNKSt8__detail21_Hashtable_ebo_helperILi0ESt8equal_toINSt7__cxx1112basic_stringIcSt11char_traitsIcESaIcEEEELb1EE7_M_cgetEv"
 "_ZNKSt8__detail21_Hashtable_ebo_helperILi1ESt4hashINSt7__cxx1112basic_stringIcSt11char_traitsIcESaIcEEEELb1EE7_M_cgetEv"
 "_ZNKSt8_Rb_treeINSt7__cxx1112basic_stringIcSt11char_traitsIcESaIcEEESt4pairIKS5_25llama_adapter_lora_weightESt10_Select1stIS9_ESt4lessIS5_ESaIS9_EE10_Auto_node6_M_keyEv"
 "_ZNKSt8_Rb_treeINSt7__cxx1112basic_stringIcSt11char_traitsIcESaIcEEESt4pairIKS5_25llama_adapter_lora_weightESt10_Select1stIS9_ESt4lessIS5_ESaIS9_EE4sizeEv"
 "_ZNKSt8_Rb_treeINSt7__cxx1112basic_stringIcSt11char_traitsIcESaIcEEESt4pairIKS5_25llama_adapter_lora_weightESt10_Select1stIS9_ESt4lessIS5_ESaIS9_EE8key_compEv"
 "_ZNKSt8_Rb_treeINSt7__cxx1112basic_stringIcSt11char_traitsIcESaIcEEESt4pairIKS5_25llama_adapter_lora_weightESt10_Select1stIS9_ESt4lessIS5_ESaIS9_EE9_M_mbeginEv"
 "_ZNKSt8_Rb_treeIP24ggml_backend_buffer_typeSt4pairIKS1_P12ggml_contextESt10_Select1stIS6_ESt4lessIS1_ESaIS6_EE10_Auto_node6_M_keyEv"
 "_ZNKSt8_Rb_treeIP24ggml_backend_buffer_typeSt4pairIKS1_P12ggml_contextESt10_Select1stIS6_ESt4lessIS1_ESaIS6_EE4sizeEv"
 "_ZNKSt8_Rb_treeIP24ggml_backend_buffer_typeSt4pairIKS1_P12ggml_contextESt10_Select1stIS6_ESt4lessIS1_ESaIS6_EE8key_compEv"
 "_ZNKSt8_Rb_treeIP24ggml_backend_buffer_typeSt4pairIKS1_P12ggml_contextESt10_Select1stIS6_ESt4lessIS1_ESaIS6_EE9_M_mbeginEv"
 "_ZNKSt8equal_toINSt7__cxx1112basic_stringIcSt11char_traitsIcESaIcEEEEclERKS5_S8_"
 "_ZNSt10_Hash_impl4hashEPKvyy"
 "_ZNSt10_HashtableINSt7__cxx1112basic_stringIcSt11char_traitsIcESaIcEEESt4pairIKS5_25llama_adapter_lora_weightESaIS9_ENSt8__detail10_Select1stESt8equal_toIS5_ESt4hashIS5_ENSB_18_Mod_range_hashingENSB_20_Default_ranged_hashENSB_20_Prime_rehash_policyENSB_17_Hashtable_traitsILb1ELb0ELb1EEEE12_Scoped_nodeC1IJRKSt21piecewise_construct_tSt5tupleIJRS7_EESS_IJEEEEEPNSB_16_Hashtable_allocISaINSB_10_Hash_nodeIS9_Lb1EEEEEEDpOT_"
 "_ZNSt10_HashtableINSt7__cxx1112basic_stringIcSt11char_traitsIcESaIcEEESt4pairIKS5_25llama_adapter_lora_weightESaIS9_ENSt8__detail10_Select1stESt8equal_toIS5_ESt4hashIS5_ENSB_18_Mod_range_hashingENSB_20_Default_ranged_hashENSB_20_Prime_rehash_policyENSB_17_Hashtable_traitsILb1ELb0ELb1EEEE12_Scoped_nodeD1Ev"
 "_ZNSt10_HashtableINSt7__cxx1112basic_stringIcSt11char_traitsIcESaIcEEESt4pairIKS5_25llama_adapter_lora_weightESaIS9_ENSt8__detail10_Select1stESt8equal_toIS5_ESt4hashIS5_ENSB_18_Mod_range_hashingENSB_20_Default_ranged_hashENSB_20_Prime_rehash_policyENSB_17_Hashtable_traitsILb1ELb0ELb1EEEE13_M_rehash_auxEySt17integral_constantIbLb1EE"
 "_ZNSt10_HashtableINSt7__cxx1112basic_stringIcSt11char_traitsIcESaIcEEESt4pairIKS5_25llama_adapter_lora_weightESaIS9_ENSt8__detail10_Select1stESt8equal_toIS5_ESt4hashIS5_ENSB_18_Mod_range_hashingENSB_20_Default_ranged_hashENSB_20_Prime_rehash_policyENSB_17_Hashtable_traitsILb1ELb0ELb1EEEE19_M_allocate_bucketsEy"
 "_ZNSt10_HashtableINSt7__cxx1112basic_stringIcSt11char_traitsIcESaIcEEESt4pairIKS5_25llama_adapter_lora_weightESaIS9_ENSt8__detail10_Select1stESt8equal_toIS5_ESt4hashIS5_ENSB_18_Mod_range_hashingENSB_20_Default_ranged_hashENSB_20_Prime_rehash_policyENSB_17_Hashtable_traitsILb1ELb0ELb1EEEE21_M_deallocate_bucketsEPPNSB_15_Hash_node_baseEy"
 "_ZNSt10_HashtableINSt7__cxx1112basic_stringIcSt11char_traitsIcESaIcEEESt4pairIKS5_25llama_adapter_lora_weightESaIS9_ENSt8__detail10_Select1stESt8equal_toIS5_ESt4hashIS5_ENSB_18_Mod_range_hashingENSB_20_Default_ranged_hashENSB_20_Prime_rehash_policyENSB_17_Hashtable_traitsILb1ELb0ELb1EEEE21_M_deallocate_bucketsEv"
 "_ZNSt10_HashtableINSt7__cxx1112basic_stringIcSt11char_traitsIcESaIcEEESt4pairIKS5_25llama_adapter_lora_weightESaIS9_ENSt8__detail10_Select1stESt8equal_toIS5_ESt4hashIS5_ENSB_18_Mod_range_hashingENSB_20_Default_ranged_hashENSB_20_Prime_rehash_policyENSB_17_Hashtable_traitsILb1ELb0ELb1EEEE21_M_insert_unique_nodeEyyPNSB_10_Hash_nodeIS9_Lb1EEEy"
 "_ZNSt10_HashtableINSt7__cxx1112basic_stringIcSt11char_traitsIcESaIcEEESt4pairIKS5_25llama_adapter_lora_weightESaIS9_ENSt8__detail10_Select1stESt8equal_toIS5_ESt4hashIS5_ENSB_18_Mod_range_hashingENSB_20_Default_ranged_hashENSB_20_Prime_rehash_policyENSB_17_Hashtable_traitsILb1ELb0ELb1EEEE22__small_size_thresholdEv"
 "_ZNSt10_HashtableINSt7__cxx1112basic_stringIcSt11char_traitsIcESaIcEEESt4pairIKS5_25llama_adapter_lora_weightESaIS9_ENSt8__detail10_Select1stESt8equal_toIS5_ESt4hashIS5_ENSB_18_Mod_range_hashingENSB_20_Default_ranged_hashENSB_20_Prime_rehash_policyENSB_17_Hashtable_traitsILb1ELb0ELb1EEEE22_M_insert_bucket_beginEyPNSB_10_Hash_nodeIS9_Lb1EEE"
 "_ZNSt10_HashtableINSt7__cxx1112basic_stringIcSt11char_traitsIcESaIcEEESt4pairIKS5_25llama_adapter_lora_weightESaIS9_ENSt8__detail10_Select1stESt8equal_toIS5_ESt4hashIS5_ENSB_18_Mod_range_hashingENSB_20_Default_ranged_hashENSB_20_Prime_rehash_policyENSB_17_Hashtable_traitsILb1ELb0ELb1EEEE3endEv"
 "_ZNSt10_HashtableINSt7__cxx1112basic_stringIcSt11char_traitsIcESaIcEEESt4pairIKS5_25llama_adapter_lora_weightESaIS9_ENSt8__detail10_Select1stESt8equal_toIS5_ESt4hashIS5_ENSB_18_Mod_range_hashingENSB_20_Default_ranged_hashENSB_20_Prime_rehash_policyENSB_17_Hashtable_traitsILb1ELb0ELb1EEEE4findERS7_"
 "_ZNSt10_HashtableINSt7__cxx1112basic_stringIcSt11char_traitsIcESaIcEEESt4pairIKS5_25llama_adapter_lora_weightESaIS9_ENSt8__detail10_Select1stESt8equal_toIS5_ESt4hashIS5_ENSB_18_Mod_range_hashingENSB_20_Default_ranged_hashENSB_20_Prime_rehash_policyENSB_17_Hashtable_traitsILb1ELb0ELb1EEEE5beginEv"
 "_ZNSt10_HashtableINSt7__cxx1112basic_stringIcSt11char_traitsIcESaIcEEESt4pairIKS5_25llama_adapter_lora_weightESaIS9_ENSt8__detail10_Select1stESt8equal_toIS5_ESt4hashIS5_ENSB_18_Mod_range_hashingENSB_20_Default_ranged_hashENSB_20_Prime_rehash_policyENSB_17_Hashtable_traitsILb1ELb0ELb1EEEE5clearEv"
 "_ZNSt10_HashtableINSt7__cxx1112basic_stringIcSt11char_traitsIcESaIcEEESt4pairIKS5_25llama_adapter_lora_weightESaIS9_ENSt8__detail10_Select1stESt8equal_toIS5_ESt4hashIS5_ENSB_18_Mod_range_hashingENSB_20_Default_ranged_hashENSB_20_Prime_rehash_policyENSB_17_Hashtable_traitsILb1ELb0ELb1EEEE9_M_rehashEyRKy"
 "_ZNSt10_HashtableINSt7__cxx1112basic_stringIcSt11char_traitsIcESaIcEEESt4pairIKS5_25llama_adapter_lora_weightESaIS9_ENSt8__detail10_Select1stESt8equal_toIS5_ESt4hashIS5_ENSB_18_Mod_range_hashingENSB_20_Default_ranged_hashENSB_20_Prime_rehash_policyENSB_17_Hashtable_traitsILb1ELb0ELb1EEEEC1Ev"
 "_ZNSt10_HashtableINSt7__cxx1112basic_stringIcSt11char_traitsIcESaIcEEESt4pairIKS5_25llama_adapter_lora_weightESaIS9_ENSt8__detail10_Select1stESt8equal_toIS5_ESt4hashIS5_ENSB_18_Mod_range_hashingENSB_20_Default_ranged_hashENSB_20_Prime_rehash_policyENSB_17_Hashtable_traitsILb1ELb0ELb1EEEED1Ev"
 "_ZNSt10_Head_baseILy0EP12ggml_contextLb0EE7_M_headERKS2_"
 "_ZNSt10_Head_baseILy0EP12ggml_contextLb0EE7_M_headERS2_"
 "_ZNSt10_Head_baseILy0EP12ggml_contextLb0EEC2Ev"
 "_ZNSt10_Head_baseILy0EP12gguf_contextLb0EE7_M_headERKS2_"
 "_ZNSt10_Head_baseILy0EP12gguf_contextLb0EE7_M_headERS2_"
 "_ZNSt10_Head_baseILy0EP12gguf_contextLb0EEC2Ev"
 "_ZNSt10_Head_baseILy0EP19ggml_backend_bufferLb0EE7_M_headERKS2_"
 "_ZNSt10_Head_baseILy0EP19ggml_backend_bufferLb0EE7_M_headERS2_"
 "_ZNSt10_Head_baseILy0EP19ggml_backend_bufferLb0EEC2Ev"
 "_ZNSt10_Head_baseILy0ERKNSt7__cxx1112basic_stringIcSt11char_traitsIcESaIcEEELb0EE7_M_headERS8_"
 "_ZNSt10_Head_baseILy0ERKNSt7__cxx1112basic_stringIcSt11char_traitsIcESaIcEEELb0EEC2ES7_"
 "_ZNSt10_Head_baseILy0ERKP24ggml_backend_buffer_typeLb0EE7_M_headERS4_"
 "_ZNSt10_Head_baseILy0ERKP24ggml_backend_buffer_typeLb0EEC2ES3_"
 "_ZNSt10_Head_baseILy1E20ggml_context_deleterLb1EE7_M_headERS1_"
 "_ZNSt10_Head_baseILy1E20ggml_context_deleterLb1EEC2Ev"
 "_ZNSt10_Head_baseILy1E20gguf_context_deleterLb1EE7_M_headERS1_"
 "_ZNSt10_Head_baseILy1E20gguf_context_deleterLb1EEC2Ev"
 "_ZNSt10_Head_baseILy1E27ggml_backend_buffer_deleterLb1EE7_M_headERS1_"
 "_ZNSt10_Head_baseILy1E27ggml_backend_buffer_deleterLb1EEC2Ev"
 "_ZNSt10unique_ptrI12ggml_context20ggml_context_deleterE11get_deleterEv"
 "_ZNSt10unique_ptrI12ggml_context20ggml_context_deleterEC1EOS2_"
 "_ZNSt10unique_ptrI12ggml_context20ggml_context_deleterEC1IS1_vEEPS0_"
 "_ZNSt10unique_ptrI12ggml_context20ggml_context_deleterED1Ev"
 "_ZNSt10unique_ptrI12gguf_context20gguf_context_deleterE11get_deleterEv"
 "_ZNSt10unique_ptrI12gguf_context20gguf_context_deleterEC1IS1_vEEPS0_"
 "_ZNSt10unique_ptrI12gguf_context20gguf_context_deleterED1Ev"
 "_ZNSt10unique_ptrI19ggml_backend_buffer27ggml_backend_buffer_deleterE11get_deleterEv"
 "_ZNSt10unique_ptrI19ggml_backend_buffer27ggml_backend_buffer_deleterEC1EOS2_"
 "_ZNSt10unique_ptrI19ggml_backend_buffer27ggml_backend_buffer_deleterEC1IS1_vEEPS0_"
 "_ZNSt10unique_ptrI19ggml_backend_buffer27ggml_backend_buffer_deleterED1Ev"
 "_ZNSt11_Tuple_implILy0EJP12ggml_context20ggml_context_deleterEE7_M_headERKS3_"
 "_ZNSt11_Tuple_implILy0EJP12ggml_context20ggml_context_deleterEE7_M_headERS3_"
 "_ZNSt11_Tuple_implILy0EJP12ggml_context20ggml_context_deleterEEC2EOS3_"
 "_ZNSt11_Tuple_implILy0EJP12ggml_context20ggml_context_deleterEEC2Ev"
 "_ZNSt11_Tuple_implILy0EJP12gguf_context20gguf_context_deleterEE7_M_headERKS3_"
 "_ZNSt11_Tuple_implILy0EJP12gguf_context20gguf_context_deleterEE7_M_headERS3_"
 "_ZNSt11_Tuple_implILy0EJP12gguf_context20gguf_context_deleterEEC2Ev"
 "_ZNSt11_Tuple_implILy0EJP19ggml_backend_buffer27ggml_backend_buffer_deleterEE7_M_headERKS3_"
 "_ZNSt11_Tuple_implILy0EJP19ggml_backend_buffer27ggml_backend_buffer_deleterEE7_M_headERS3_"
 "_ZNSt11_Tuple_implILy0EJP19ggml_backend_buffer27ggml_backend_buffer_deleterEEC2EOS3_"
 "_ZNSt11_Tuple_implILy0EJP19ggml_backend_buffer27ggml_backend_buffer_deleterEEC2Ev"
 "_ZNSt11_Tuple_implILy0EJRKNSt7__cxx1112basic_stringIcSt11char_traitsIcESaIcEEEEE7_M_headERS8_"
 "_ZNSt11_Tuple_implILy0EJRKNSt7__cxx1112basic_stringIcSt11char_traitsIcESaIcEEEEEC2EOS8_"
 "_ZNSt11_Tuple_implILy0EJRKNSt7__cxx1112basic_stringIcSt11char_traitsIcESaIcEEEEEC2ES7_"
 "_ZNSt11_Tuple_implILy0EJRKP24ggml_backend_buffer_typeEE7_M_headERS4_"
 "_ZNSt11_Tuple_implILy0EJRKP24ggml_backend_buffer_typeEEC2EOS4_"
 "_ZNSt11_Tuple_implILy0EJRKP24ggml_backend_buffer_typeEEC2ES3_"
 "_ZNSt11_Tuple_implILy1EJ20ggml_context_deleterEE7_M_headERS1_"
 "_ZNSt11_Tuple_implILy1EJ20ggml_context_deleterEEC2EOS1_"
 "_ZNSt11_Tuple_implILy1EJ20ggml_context_deleterEEC2Ev"
 "_ZNSt11_Tuple_implILy1EJ20gguf_context_deleterEE7_M_headERS1_"
 "_ZNSt11_Tuple_implILy1EJ20gguf_context_deleterEEC2Ev"
 "_ZNSt11_Tuple_implILy1EJ27ggml_backend_buffer_deleterEE7_M_headERS1_"
 "_ZNSt11_Tuple_implILy1EJ27ggml_backend_buffer_deleterEEC2EOS1_"
 "_ZNSt11_Tuple_implILy1EJ27ggml_backend_buffer_deleterEEC2Ev"
 "_ZNSt11char_traitsIcE2ltERKcS2_"
 "_ZNSt11char_traitsIcE6lengthEPKc"
 "_ZNSt11char_traitsIcE7compareEPKcS2_y"
 "_ZNSt12_Destroy_auxILb0EE9__destroyIPSt10unique_ptrI12ggml_context20ggml_context_deleterEEEvT_S7_"
 "_ZNSt12_Destroy_auxILb0EE9__destroyIPSt10unique_ptrI19ggml_backend_buffer27ggml_backend_buffer_deleterEEEvT_S7_"
 "_ZNSt12_Destroy_auxILb1EE9__destroyIPhEEvT_S3_"
 "_ZNSt12_Destroy_auxILb1EE9__destroyIPP24ggml_backend_buffer_typeEEvT_S5_"
 "_ZNSt12_Vector_baseIhSaIhEE11_M_allocateEy"
 "_ZNSt12_Vector_baseIhSaIhEE12_Vector_implC1Ev"
 "_ZNSt12_Vector_baseIhSaIhEE12_Vector_implD1Ev"
 "_ZNSt12_Vector_baseIhSaIhEE13_M_deallocateEPhy"
 "_ZNSt12_Vector_baseIhSaIhEE17_Vector_impl_dataC2Ev"
 "_ZNSt12_Vector_baseIhSaIhEE19_M_get_Tp_allocatorEv"
 "_ZNSt12_Vector_baseIhSaIhEEC2Ev"
 "_ZNSt12_Vector_baseIhSaIhEED2Ev"
 "_ZNSt12_Vector_baseIP11ggml_tensorSaIS1_EE11_M_allocateEy"
 "_ZNSt12_Vector_baseIP11ggml_tensorSaIS1_EE13_M_deallocateEPS1_y"
 "_ZNSt12_Vector_baseIP11ggml_tensorSaIS1_EE19_M_get_Tp_allocatorEv"
 "_ZNSt12_Vector_baseIP24ggml_backend_buffer_typeSaIS1_EE11_M_allocateEy"
 "_ZNSt12_Vector_baseIP24ggml_backend_buffer_typeSaIS1_EE12_Vector_implC1Ev"
 "_ZNSt12_Vector_baseIP24ggml_backend_buffer_typeSaIS1_EE12_Vector_implD1Ev"
 "_ZNSt12_Vector_baseIP24ggml_backend_buffer_typeSaIS1_EE13_M_deallocateEPS1_y"
 "_ZNSt12_Vector_baseIP24ggml_backend_buffer_typeSaIS1_EE17_Vector_impl_dataC2Ev"
 "_ZNSt12_Vector_baseIP24ggml_backend_buffer_typeSaIS1_EE19_M_get_Tp_allocatorEv"
 "_ZNSt12_Vector_baseIP24ggml_backend_buffer_typeSaIS1_EEC2Ev"
 "_ZNSt12_Vector_baseIP24ggml_backend_buffer_typeSaIS1_EED2Ev"
 "_ZNSt12_Vector_baseISt10unique_ptrI12ggml_context20ggml_context_deleterESaIS3_EE11_M_allocateEy"
 "_ZNSt12_Vector_baseISt10unique_ptrI12ggml_context20ggml_context_deleterESaIS3_EE12_Vector_implC1Ev"
 "_ZNSt12_Vector_baseISt10unique_ptrI12ggml_context20ggml_context_deleterESaIS3_EE12_Vector_implD1Ev"
 "_ZNSt12_Vector_baseISt10unique_ptrI12ggml_context20ggml_context_deleterESaIS3_EE13_M_deallocateEPS3_y"
 "_ZNSt12_Vector_baseISt10unique_ptrI12ggml_context20ggml_context_deleterESaIS3_EE17_Vector_impl_dataC2Ev"
 "_ZNSt12_Vector_baseISt10unique_ptrI12ggml_context20ggml_context_deleterESaIS3_EE19_M_get_Tp_allocatorEv"
 "_ZNSt12_Vector_baseISt10unique_ptrI12ggml_context20ggml_context_deleterESaIS3_EEC2Ev"
 "_ZNSt12_Vector_baseISt10unique_ptrI12ggml_context20ggml_context_deleterESaIS3_EED2Ev"
 "_ZNSt12_Vector_baseISt10unique_ptrI19ggml_backend_buffer27ggml_backend_buffer_deleterESaIS3_EE11_M_allocateEy"
 "_ZNSt12_Vector_baseISt10unique_ptrI19ggml_backend_buffer27ggml_backend_buffer_deleterESaIS3_EE12_Vector_implC1Ev"
 "_ZNSt12_Vector_baseISt10unique_ptrI19ggml_backend_buffer27ggml_backend_buffer_deleterESaIS3_EE12_Vector_implD1Ev"
 "_ZNSt12_Vector_baseISt10unique_ptrI19ggml_backend_buffer27ggml_backend_buffer_deleterESaIS3_EE13_M_deallocateEPS3_y"
 "_ZNSt12_Vector_baseISt10unique_ptrI19ggml_backend_buffer27ggml_backend_buffer_deleterESaIS3_EE17_Vector_impl_dataC2Ev"
 "_ZNSt12_Vector_baseISt10unique_ptrI19ggml_backend_buffer27ggml_backend_buffer_deleterESaIS3_EE19_M_get_Tp_allocatorEv"
 "_ZNSt12_Vector_baseISt10unique_ptrI19ggml_backend_buffer27ggml_backend_buffer_deleterESaIS3_EEC2Ev"
 "_ZNSt12_Vector_baseISt10unique_ptrI19ggml_backend_buffer27ggml_backend_buffer_deleterESaIS3_EED2Ev"
 "_ZNSt13_Rb_tree_nodeISt4pairIKNSt7__cxx1112basic_stringIcSt11char_traitsIcESaIcEEE25llama_adapter_lora_weightEE9_M_valptrEv"
 "_ZNSt13_Rb_tree_nodeISt4pairIKP24ggml_backend_buffer_typeP12ggml_contextEE9_M_valptrEv"
 "_ZNSt13unordered_mapINSt7__cxx1112basic_stringIcSt11char_traitsIcESaIcEEE25llama_adapter_lora_weightSt4hashIS5_ESt8equal_toIS5_ESaISt4pairIKS5_S6_EEE3endEv"
 "_ZNSt13unordered_mapINSt7__cxx1112basic_stringIcSt11char_traitsIcESaIcEEE25llama_adapter_lora_weightSt4hashIS5_ESt8equal_toIS5_ESaISt4pairIKS5_S6_EEE4findERSC_"
 "_ZNSt13unordered_mapINSt7__cxx1112basic_stringIcSt11char_traitsIcESaIcEEE25llama_adapter_lora_weightSt4hashIS5_ESt8equal_toIS5_ESaISt4pairIKS5_S6_EEE5beginEv"
 "_ZNSt13unordered_mapINSt7__cxx1112basic_stringIcSt11char_traitsIcESaIcEEE25llama_adapter_lora_weightSt4hashIS5_ESt8equal_toIS5_ESaISt4pairIKS5_S6_EEEC1Ev"
 "_ZNSt13unordered_mapINSt7__cxx1112basic_stringIcSt11char_traitsIcESaIcEEE25llama_adapter_lora_weightSt4hashIS5_ESt8equal_toIS5_ESaISt4pairIKS5_S6_EEED1Ev"
 "_ZNSt13unordered_mapINSt7__cxx1112basic_stringIcSt11char_traitsIcESaIcEEE25llama_adapter_lora_weightSt4hashIS5_ESt8equal_toIS5_ESaISt4pairIKS5_S6_EEEixERSC_"
 "_ZNSt15__new_allocatorIcED2Ev"
 "_ZNSt15__new_allocatorIhE10deallocateEPhy"
 "_ZNSt15__new_allocatorIhE8allocateEyPKv"
 "_ZNSt15__new_allocatorIhED2Ev"
 "_ZNSt15__new_allocatorINSt8__detail10_Hash_nodeISt4pairIKNSt7__cxx1112basic_stringIcSt11char_traitsIcESaIcEEE25llama_adapter_lora_weightELb1EEEE10deallocateEPSC_y"
 "_ZNSt15__new_allocatorINSt8__detail10_Hash_nodeISt4pairIKNSt7__cxx1112basic_stringIcSt11char_traitsIcESaIcEEE25llama_adapter_lora_weightELb1EEEE8allocateEyPKv"
 "_ZNSt15__new_allocatorINSt8__detail10_Hash_nodeISt4pairIKNSt7__cxx1112basic_stringIcSt11char_traitsIcESaIcEEE25llama_adapter_lora_weightELb1EEEED2Ev"
 "_ZNSt15__new_allocatorIP11ggml_tensorE10deallocateEPS1_y"
 "_ZNSt15__new_allocatorIP11ggml_tensorE8allocateEyPKv"
 "_ZNSt15__new_allocatorIP24ggml_backend_buffer_typeE10deallocateEPS1_y"
 "_ZNSt15__new_allocatorIP24ggml_backend_buffer_typeE8allocateEyPKv"
 "_ZNSt15__new_allocatorIP24ggml_backend_buffer_typeED2Ev"
 "_ZNSt15__new_allocatorIPNSt8__detail15_Hash_node_baseEE10deallocateEPS2_y"
 "_ZNSt15__new_allocatorIPNSt8__detail15_Hash_node_baseEE8allocateEyPKv"
 "_ZNSt15__new_allocatorIPNSt8__detail15_Hash_node_baseEED2Ev"
 "_ZNSt15__new_allocatorISt10unique_ptrI12ggml_context20ggml_context_deleterEE10deallocateEPS3_y"
 "_ZNSt15__new_allocatorISt10unique_ptrI12ggml_context20ggml_context_deleterEE8allocateEyPKv"
 "_ZNSt15__new_allocatorISt10unique_ptrI12ggml_context20ggml_context_deleterEED2Ev"
 "_ZNSt15__new_allocatorISt10unique_ptrI19ggml_backend_buffer27ggml_backend_buffer_deleterEE10deallocateEPS3_y"
 "_ZNSt15__new_allocatorISt10unique_ptrI19ggml_backend_buffer27ggml_backend_buffer_deleterEE8allocateEyPKv"
 "_ZNSt15__new_allocatorISt10unique_ptrI19ggml_backend_buffer27ggml_backend_buffer_deleterEED2Ev"
 "_ZNSt15__new_allocatorISt13_Rb_tree_nodeISt4pairIKNSt7__cxx1112basic_stringIcSt11char_traitsIcESaIcEEE25llama_adapter_lora_weightEEE10deallocateEPSB_y"
 "_ZNSt15__new_allocatorISt13_Rb_tree_nodeISt4pairIKNSt7__cxx1112basic_stringIcSt11char_traitsIcESaIcEEE25llama_adapter_lora_weightEEE8allocateEyPKv"
 "_ZNSt15__new_allocatorISt13_Rb_tree_nodeISt4pairIKNSt7__cxx1112basic_stringIcSt11char_traitsIcESaIcEEE25llama_adapter_lora_weightEEED2Ev"
 "_ZNSt15__new_allocatorISt13_Rb_tree_nodeISt4pairIKP24ggml_backend_buffer_typeP12ggml_contextEEE10deallocateEPS8_y"
 "_ZNSt15__new_allocatorISt13_Rb_tree_nodeISt4pairIKP24ggml_backend_buffer_typeP12ggml_contextEEE8allocateEyPKv"
 "_ZNSt15__new_allocatorISt13_Rb_tree_nodeISt4pairIKP24ggml_backend_buffer_typeP12ggml_contextEEED2Ev"
 "_ZNSt15__uniq_ptr_dataI12ggml_context20ggml_context_deleterLb1ELb1EEC1EOS2_"
 "_ZNSt15__uniq_ptr_dataI12ggml_context20ggml_context_deleterLb1ELb1EECI1St15__uniq_ptr_implIS0_S1_EEPS0_"
 "_ZNSt15__uniq_ptr_dataI12gguf_context20gguf_context_deleterLb1ELb1EECI1St15__uniq_ptr_implIS0_S1_EEPS0_"
 "_ZNSt15__uniq_ptr_dataI19ggml_backend_buffer27ggml_backend_buffer_deleterLb1ELb1EEC1EOS2_"
 "_ZNSt15__uniq_ptr_dataI19ggml_backend_buffer27ggml_backend_buffer_deleterLb1ELb1EECI1St15__uniq_ptr_implIS0_S1_EEPS0_"
 "_ZNSt15__uniq_ptr_implI12ggml_context20ggml_context_deleterE10_M_deleterEv"
 "_ZNSt15__uniq_ptr_implI12ggml_context20ggml_context_deleterE6_M_ptrEv"
 "_ZNSt15__uniq_ptr_implI12ggml_context20ggml_context_deleterEC2EOS2_"
 "_ZNSt15__uniq_ptr_implI12ggml_context20ggml_context_deleterEC2EPS0_"
 "_ZNSt15__uniq_ptr_implI12gguf_context20gguf_context_deleterE10_M_deleterEv"
 "_ZNSt15__uniq_ptr_implI12gguf_context20gguf_context_deleterE6_M_ptrEv"
 "_ZNSt15__uniq_ptr_implI12gguf_context20gguf_context_deleterEC2EPS0_"
 "_ZNSt15__uniq_ptr_implI19ggml_backend_buffer27ggml_backend_buffer_deleterE10_M_deleterEv"
 "_ZNSt15__uniq_ptr_implI19ggml_backend_buffer27ggml_backend_buffer_deleterE6_M_ptrEv"
 "_ZNSt15__uniq_ptr_implI19ggml_backend_buffer27ggml_backend_buffer_deleterEC2EOS2_"
 "_ZNSt15__uniq_ptr_implI19ggml_backend_buffer27ggml_backend_buffer_deleterEC2EPS0_"
 "_ZNSt15_Rb_tree_header8_M_resetEv"
 "_ZNSt15_Rb_tree_headerC2Ev"
 "_ZNSt17_Rb_tree_iteratorISt4pairIKNSt7__cxx1112basic_stringIcSt11char_traitsIcESaIcEEE25llama_adapter_lora_weightEEC1EPSt18_Rb_tree_node_base"
 "_ZNSt17_Rb_tree_iteratorISt4pairIKNSt7__cxx1112basic_stringIcSt11char_traitsIcESaIcEEE25llama_adapter_lora_weightEEmmEv"
 "_ZNSt17_Rb_tree_iteratorISt4pairIKNSt7__cxx1112basic_stringIcSt11char_traitsIcESaIcEEE25llama_adapter_lora_weightEEppEv"
 "_ZNSt17_Rb_tree_iteratorISt4pairIKP24ggml_backend_buffer_typeP12ggml_contextEEC1EPSt18_Rb_tree_node_base"
 "_ZNSt17_Rb_tree_iteratorISt4pairIKP24ggml_backend_buffer_typeP12ggml_contextEEmmEv"
 "_ZNSt17_Rb_tree_iteratorISt4pairIKP24ggml_backend_buffer_typeP12ggml_contextEEppEv"
 "_ZNSt19__ptr_traits_ptr_toIPNSt8__detail10_Hash_nodeISt4pairIKNSt7__cxx1112basic_stringIcSt11char_traitsIcESaIcEEE25llama_adapter_lora_weightELb1EEESC_Lb0EE10pointer_toERSC_"
 "_ZNSt19__ptr_traits_ptr_toIPPNSt8__detail15_Hash_node_baseES2_Lb0EE10pointer_toERS2_"
 "_ZNSt20_Rb_tree_key_compareISt4lessINSt7__cxx1112basic_stringIcSt11char_traitsIcESaIcEEEEEC2Ev"
 "_ZNSt20_Rb_tree_key_compareISt4lessIP24ggml_backend_buffer_typeEEC2Ev"
 "_ZNSt23_Rb_tree_const_iteratorISt4pairIKNSt7__cxx1112basic_stringIcSt11char_traitsIcESaIcEEE25llama_adapter_lora_weightEEC1ERKSt17_Rb_tree_iteratorIS9_E"
 "_ZNSt23_Rb_tree_const_iteratorISt4pairIKP24ggml_backend_buffer_typeP12ggml_contextEEC1ERKSt17_Rb_tree_iteratorIS6_E"
 "_ZNSt27__uninitialized_default_n_1ILb1EE18__uninit_default_nIPhyEET_S3_T0_"
 "_ZNSt3mapINSt7__cxx1112basic_stringIcSt11char_traitsIcESaIcEEE25llama_adapter_lora_weightSt4lessIS5_ESaISt4pairIKS5_S6_EEE11lower_boundERSA_"
 "_ZNSt3mapINSt7__cxx1112basic_stringIcSt11char_traitsIcESaIcEEE25llama_adapter_lora_weightSt4lessIS5_ESaISt4pairIKS5_S6_EEE3endEv"
 "_ZNSt3mapINSt7__cxx1112basic_stringIcSt11char_traitsIcESaIcEEE25llama_adapter_lora_weightSt4lessIS5_ESaISt4pairIKS5_S6_EEE4findERSA_"
 "_ZNSt3mapINSt7__cxx1112basic_stringIcSt11char_traitsIcESaIcEEE25llama_adapter_lora_weightSt4lessIS5_ESaISt4pairIKS5_S6_EEE5beginEv"
 "_ZNSt3mapINSt7__cxx1112basic_stringIcSt11char_traitsIcESaIcEEE25llama_adapter_lora_weightSt4lessIS5_ESaISt4pairIKS5_S6_EEEC1Ev"
 "_ZNSt3mapINSt7__cxx1112basic_stringIcSt11char_traitsIcESaIcEEE25llama_adapter_lora_weightSt4lessIS5_ESaISt4pairIKS5_S6_EEED1Ev"
 "_ZNSt3mapINSt7__cxx1112basic_stringIcSt11char_traitsIcESaIcEEE25llama_adapter_lora_weightSt4lessIS5_ESaISt4pairIKS5_S6_EEEixERSA_"
 "_ZNSt3mapIP24ggml_backend_buffer_typeP12ggml_contextSt4lessIS1_ESaISt4pairIKS1_S3_EEE11lower_boundERS7_"
 "_ZNSt3mapIP24ggml_backend_buffer_typeP12ggml_contextSt4lessIS1_ESaISt4pairIKS1_S3_EEE3endEv"
 "_ZNSt3mapIP24ggml_backend_buffer_typeP12ggml_contextSt4lessIS1_ESaISt4pairIKS1_S3_EEE4findERS7_"
 "_ZNSt3mapIP24ggml_backend_buffer_typeP12ggml_contextSt4lessIS1_ESaISt4pairIKS1_S3_EEE5beginEv"
 "_ZNSt3mapIP24ggml_backend_buffer_typeP12ggml_contextSt4lessIS1_ESaISt4pairIKS1_S3_EEEC1Ev"
 "_ZNSt3mapIP24ggml_backend_buffer_typeP12ggml_contextSt4lessIS1_ESaISt4pairIKS1_S3_EEED1Ev"
 "_ZNSt3mapIP24ggml_backend_buffer_typeP12ggml_contextSt4lessIS1_ESaISt4pairIKS1_S3_EEEixERS7_"
 "_ZNSt4pairIKNSt7__cxx1112basic_stringIcSt11char_traitsIcESaIcEEE25llama_adapter_lora_weightEC1IJRS6_EJEEESt21piecewise_construct_tSt5tupleIJDpT_EESC_IJDpT0_EE"
 "_ZNSt4pairIKNSt7__cxx1112basic_stringIcSt11char_traitsIcESaIcEEE25llama_adapter_lora_weightEC1IJRS6_EJLy0EEJEJEEERSt5tupleIJDpT_EERSB_IJDpT1_EESt12_Index_tupleIJXspT0_EEESK_IJXspT2_EEE"
 "_ZNSt4pairIKNSt7__cxx1112basic_stringIcSt11char_traitsIcESaIcEEE25llama_adapter_lora_weightED1Ev"
 "_ZNSt4pairIKP24ggml_backend_buffer_typeP12ggml_contextEC1IJRS2_EJEEESt21piecewise_construct_tSt5tupleIJDpT_EES9_IJDpT0_EE"
 "_ZNSt4pairIKP24ggml_backend_buffer_typeP12ggml_contextEC1IJRS2_EJLy0EEJEJEEERSt5tupleIJDpT_EERS8_IJDpT1_EESt12_Index_tupleIJXspT0_EEESH_IJXspT2_EEE"
 "_ZNSt4pairIPSt18_Rb_tree_node_baseS1_EC1IRPSt13_Rb_tree_nodeIS_IKNSt7__cxx1112basic_stringIcSt11char_traitsIcESaIcEEE25llama_adapter_lora_weightEERS1_Lb1EEEOT_OT0_"
 "_ZNSt4pairIPSt18_Rb_tree_node_baseS1_EC1IRPSt13_Rb_tree_nodeIS_IKP24ggml_backend_buffer_typeP12ggml_contextEERS1_Lb1EEEOT_OT0_"
 "_ZNSt4pairIPSt18_Rb_tree_node_baseS1_EC1IRS1_S4_Lb1EEEOT_OT0_"
 "_ZNSt4pairIPSt18_Rb_tree_node_baseS1_EC1IS1_S1_Lb1EEERKS1_S5_"
 "_ZNSt5tupleIJP12ggml_context20ggml_context_deleterEEC1EOS3_"
 "_ZNSt5tupleIJP12ggml_context20ggml_context_deleterEEC1ILb1ELb1EEEv"
 "_ZNSt5tupleIJP12gguf_context20gguf_context_deleterEEC1ILb1ELb1EEEv"
 "_ZNSt5tupleIJP19ggml_backend_buffer27ggml_backend_buffer_deleterEEC1EOS3_"
 "_ZNSt5tupleIJP19ggml_backend_buffer27ggml_backend_buffer_deleterEEC1ILb1ELb1EEEv"
 "_ZNSt5tupleIJRKNSt7__cxx1112basic_stringIcSt11char_traitsIcESaIcEEEEEC1EOS8_"
 "_ZNSt5tupleIJRKNSt7__cxx1112basic_stringIcSt11char_traitsIcESaIcEEEEEC1ILb1ELb1EEES7_"
 "_ZNSt5tupleIJRKP24ggml_backend_buffer_typeEEC1EOS4_"
 "_ZNSt5tupleIJRKP24ggml_backend_buffer_typeEEC1ILb1ELb1EEES3_"
 "_ZNSt6vectorIhSaIhEE11_S_max_sizeERKS0_"
 "_ZNSt6vectorIhSaIhEE11_S_relocateEPhS2_S2_RS0_"
 "_ZNSt6vectorIhSaIhEE15_M_erase_at_endEPh"
 "_ZNSt6vectorIhSaIhEE17_M_default_appendEy"
 "_ZNSt6vectorIhSaIhEE4dataEv"
 "_ZNSt6vectorIhSaIhEE6resizeEy"
 "_ZNSt6vectorIhSaIhEEC1Ev"
 "_ZNSt6vectorIhSaIhEED1Ev"
 "_ZNSt6vectorIP11ggml_tensorSaIS1_EE11_S_max_sizeERKS2_"
 "_ZNSt6vectorIP11ggml_tensorSaIS1_EE11_S_relocateEPS1_S4_S4_RS2_"
 "_ZNSt6vectorIP11ggml_tensorSaIS1_EE12emplace_backIJS1_EEERS1_DpOT_"
 "_ZNSt6vectorIP11ggml_tensorSaIS1_EE17_M_realloc_insertIJRKS1_EEEvN9__gnu_cxx17__normal_iteratorIPS1_S3_EEDpOT_"
 "_ZNSt6vectorIP11ggml_tensorSaIS1_EE17_M_realloc_insertIJS1_EEEvN9__gnu_cxx17__normal_iteratorIPS1_S3_EEDpOT_"
 "_ZNSt6vectorIP11ggml_tensorSaIS1_EE3endEv"
 "_ZNSt6vectorIP11ggml_tensorSaIS1_EE4backEv"
 "_ZNSt6vectorIP11ggml_tensorSaIS1_EE5beginEv"
 "_ZNSt6vectorIP11ggml_tensorSaIS1_EE7reserveEy"
 "_ZNSt6vectorIP11ggml_tensorSaIS1_EE9push_backEOS1_"
 "_ZNSt6vectorIP11ggml_tensorSaIS1_EE9push_backERKS1_"
 "_ZNSt6vectorIP11ggml_tensorSaIS1_EEixEy"
 "_ZNSt6vectorIP24ggml_backend_buffer_typeSaIS1_EE11_S_max_sizeERKS2_"
 "_ZNSt6vectorIP24ggml_backend_buffer_typeSaIS1_EE11_S_relocateEPS1_S4_S4_RS2_"
 "_ZNSt6vectorIP24ggml_backend_buffer_typeSaIS1_EE12emplace_backIJRS1_EEES5_DpOT_"
 "_ZNSt6vectorIP24ggml_backend_buffer_typeSaIS1_EE17_M_realloc_insertIJRS1_EEEvN9__gnu_cxx17__normal_iteratorIPS1_S3_EEDpOT_"
 "_ZNSt6vectorIP24ggml_backend_buffer_typeSaIS1_EE3endEv"
 "_ZNSt6vectorIP24ggml_backend_buffer_typeSaIS1_EE4backEv"
 "_ZNSt6vectorIP24ggml_backend_buffer_typeSaIS1_EE5beginEv"
 "_ZNSt6vectorIP24ggml_backend_buffer_typeSaIS1_EEC1Ev"
 "_ZNSt6vectorIP24ggml_backend_buffer_typeSaIS1_EED1Ev"
 "_ZNSt6vectorISt10unique_ptrI12ggml_context20ggml_context_deleterESaIS3_EE11_S_max_sizeERKS4_"
 "_ZNSt6vectorISt10unique_ptrI12ggml_context20ggml_context_deleterESaIS3_EE11_S_relocateEPS3_S6_S6_RS4_"
 "_ZNSt6vectorISt10unique_ptrI12ggml_context20ggml_context_deleterESaIS3_EE12emplace_backIJRPS1_EEERS3_DpOT_"
 "_ZNSt6vectorISt10unique_ptrI12ggml_context20ggml_context_deleterESaIS3_EE17_M_realloc_insertIJRPS1_EEEvN9__gnu_cxx17__normal_iteratorIPS3_S5_EEDpOT_"
 "_ZNSt6vectorISt10unique_ptrI12ggml_context20ggml_context_deleterESaIS3_EE3endEv"
 "_ZNSt6vectorISt10unique_ptrI12ggml_context20ggml_context_deleterESaIS3_EE4backEv"
 "_ZNSt6vectorISt10unique_ptrI12ggml_context20ggml_context_deleterESaIS3_EE5beginEv"
 "_ZNSt6vectorISt10unique_ptrI12ggml_context20ggml_context_deleterESaIS3_EE7reserveEy"
 "_ZNSt6vectorISt10unique_ptrI12ggml_context20ggml_context_deleterESaIS3_EEC1Ev"
 "_ZNSt6vectorISt10unique_ptrI12ggml_context20ggml_context_deleterESaIS3_EED1Ev"
 "_ZNSt6vectorISt10unique_ptrI19ggml_backend_buffer27ggml_backend_buffer_deleterESaIS3_EE11_S_max_sizeERKS4_"
 "_ZNSt6vectorISt10unique_ptrI19ggml_backend_buffer27ggml_backend_buffer_deleterESaIS3_EE11_S_relocateEPS3_S6_S6_RS4_"
 "_ZNSt6vectorISt10unique_ptrI19ggml_backend_buffer27ggml_backend_buffer_deleterESaIS3_EE12emplace_backIJRPS1_EEERS3_DpOT_"
 "_ZNSt6vectorISt10unique_ptrI19ggml_backend_buffer27ggml_backend_buffer_deleterESaIS3_EE12emplace_backIJS3_EEERS3_DpOT_"
 "_ZNSt6vectorISt10unique_ptrI19ggml_backend_buffer27ggml_backend_buffer_deleterESaIS3_EE17_M_realloc_insertIJRPS1_EEEvN9__gnu_cxx17__normal_iteratorIPS3_S5_EEDpOT_"
 "_ZNSt6vectorISt10unique_ptrI19ggml_backend_buffer27ggml_backend_buffer_deleterESaIS3_EE17_M_realloc_insertIJS3_EEEvN9__gnu_cxx17__normal_iteratorIPS3_S5_EEDpOT_"
 "_ZNSt6vectorISt10unique_ptrI19ggml_backend_buffer27ggml_backend_buffer_deleterESaIS3_EE3endEv"
 "_ZNSt6vectorISt10unique_ptrI19ggml_backend_buffer27ggml_backend_buffer_deleterESaIS3_EE4backEv"
 "_ZNSt6vectorISt10unique_ptrI19ggml_backend_buffer27ggml_backend_buffer_deleterESaIS3_EE5beginEv"
 "_ZNSt6vectorISt10unique_ptrI19ggml_backend_buffer27ggml_backend_buffer_deleterESaIS3_EE7reserveEy"
 "_ZNSt6vectorISt10unique_ptrI19ggml_backend_buffer27ggml_backend_buffer_deleterESaIS3_EEC1Ev"
 "_ZNSt6vectorISt10unique_ptrI19ggml_backend_buffer27ggml_backend_buffer_deleterESaIS3_EED1Ev"
 "_ZNSt7__cxx1112basic_stringIcSt11char_traitsIcESaIcEE12_Alloc_hiderD1Ev"
 "_ZNSt7__cxx1112basic_stringIcSt11char_traitsIcESaIcEE12_M_constructIPKcEEvT_S8_St20forward_iterator_tag"
 "_ZNSt7__cxx1112basic_stringIcSt11char_traitsIcESaIcEEC1IS3_EEPKcRKS3_"
 "_ZNSt8__detail10_Hash_nodeISt4pairIKNSt7__cxx1112basic_stringIcSt11char_traitsIcESaIcEEE25llama_adapter_lora_weightELb1EEC1Ev"
 "_ZNSt8__detail14_Node_iteratorISt4pairIKNSt7__cxx1112basic_stringIcSt11char_traitsIcESaIcEEE25llama_adapter_lora_weightELb0ELb1EEC1EPNS_10_Hash_nodeISA_Lb1EEE"
 "_ZNSt8__detail14_Node_iteratorISt4pairIKNSt7__cxx1112basic_stringIcSt11char_traitsIcESaIcEEE25llama_adapter_lora_weightELb0ELb1EEppEv"
 "_ZNSt8__detail15_Hash_code_baseINSt7__cxx1112basic_stringIcSt11char_traitsIcESaIcEEESt4pairIKS6_25llama_adapter_lora_weightENS_10_Select1stESt4hashIS6_ENS_18_Mod_range_hashingENS_20_Default_ranged_hashELb1EEC2Ev"
 "_ZNSt8__detail15_Hash_node_baseC1Ev"
 "_ZNSt8__detail15_Hash_node_baseC2Ev"
 "_ZNSt8__detail15_Hashtable_baseINSt7__cxx1112basic_stringIcSt11char_traitsIcESaIcEEESt4pairIKS6_25llama_adapter_lora_weightENS_10_Select1stESt8equal_toIS6_ESt4hashIS6_ENS_18_Mod_range_hashingENS_20_Default_ranged_hashENS_17_Hashtable_traitsILb1ELb0ELb1EEEE9_S_equalsEyRKNS_21_Hash_node_code_cacheILb1EEE"
 "_ZNSt8__detail15_Hashtable_baseINSt7__cxx1112basic_stringIcSt11char_traitsIcESaIcEEESt4pairIKS6_25llama_adapter_lora_weightENS_10_Select1stESt8equal_toIS6_ESt4hashIS6_ENS_18_Mod_range_hashingENS_20_Default_ranged_hashENS_17_Hashtable_traitsILb1ELb0ELb1EEEEC2Ev"
 "_ZNSt8__detail16_Hashtable_allocISaINS_10_Hash_nodeISt4pairIKNSt7__cxx1112basic_stringIcSt11char_traitsIcESaIcEEE25llama_adapter_lora_weightELb1EEEEE16_M_allocate_nodeIJRKSt21piecewise_construct_tSt5tupleIJRS9_EESJ_IJEEEEEPSC_DpOT_"
 "_ZNSt8__detail16_Hashtable_allocISaINS_10_Hash_nodeISt4pairIKNSt7__cxx1112basic_stringIcSt11char_traitsIcESaIcEEE25llama_adapter_lora_weightELb1EEEEE17_M_node_allocatorEv"
 "_ZNSt8__detail16_Hashtable_allocISaINS_10_Hash_nodeISt4pairIKNSt7__cxx1112basic_stringIcSt11char_traitsIcESaIcEEE25llama_adapter_lora_weightELb1EEEEE18_M_deallocate_nodeEPSC_"
 "_ZNSt8__detail16_Hashtable_allocISaINS_10_Hash_nodeISt4pairIKNSt7__cxx1112basic_stringIcSt11char_traitsIcESaIcEEE25llama_adapter_lora_weightELb1EEEEE19_M_allocate_bucketsEy"
 "_ZNSt8__detail16_Hashtable_allocISaINS_10_Hash_nodeISt4pairIKNSt7__cxx1112basic_stringIcSt11char_traitsIcESaIcEEE25llama_adapter_lora_weightELb1EEEEE19_M_deallocate_nodesEPSC_"
 "_ZNSt8__detail16_Hashtable_allocISaINS_10_Hash_nodeISt4pairIKNSt7__cxx1112basic_stringIcSt11char_traitsIcESaIcEEE25llama_adapter_lora_weightELb1EEEEE21_M_deallocate_bucketsEPPNS_15_Hash_node_baseEy"
 "_ZNSt8__detail16_Hashtable_allocISaINS_10_Hash_nodeISt4pairIKNSt7__cxx1112basic_stringIcSt11char_traitsIcESaIcEEE25llama_adapter_lora_weightELb1EEEEE22_M_deallocate_node_ptrEPSC_"
 "_ZNSt8__detail16_Hashtable_allocISaINS_10_Hash_nodeISt4pairIKNSt7__cxx1112basic_stringIcSt11char_traitsIcESaIcEEE25llama_adapter_lora_weightELb1EEEEEC2Ev"
 "_ZNSt8__detail16_Hashtable_allocISaINS_10_Hash_nodeISt4pairIKNSt7__cxx1112basic_stringIcSt11char_traitsIcESaIcEEE25llama_adapter_lora_weightELb1EEEEED2Ev"
 "_ZNSt8__detail19_Node_iterator_baseISt4pairIKNSt7__cxx1112basic_stringIcSt11char_traitsIcESaIcEEE25llama_adapter_lora_weightELb1EE7_M_incrEv"
 "_ZNSt8__detail19_Node_iterator_baseISt4pairIKNSt7__cxx1112basic_stringIcSt11char_traitsIcESaIcEEE25llama_adapter_lora_weightELb1EEC2EPNS_10_Hash_nodeISA_Lb1EEE"
 "_ZNSt8__detail20_Prime_rehash_policy8_M_resetEy"
 "_ZNSt8__detail20_Prime_rehash_policyC1Ef"
 "_ZNSt8__detail21_Hashtable_ebo_helperILi0ESaINS_10_Hash_nodeISt4pairIKNSt7__cxx1112basic_stringIcSt11char_traitsIcESaIcEEE25llama_adapter_lora_weightELb1EEEELb1EE6_M_getEv"
 "_ZNSt8__detail21_Hashtable_ebo_helperILi0ESaINS_10_Hash_nodeISt4pairIKNSt7__cxx1112basic_stringIcSt11char_traitsIcESaIcEEE25llama_adapter_lora_weightELb1EEEELb1EEC2Ev"
 "_ZNSt8__detail21_Hashtable_ebo_helperILi0ESaINS_10_Hash_nodeISt4pairIKNSt7__cxx1112basic_stringIcSt11char_traitsIcESaIcEEE25llama_adapter_lora_weightELb1EEEELb1EED2Ev"
 "_ZNSt8__detail21_Hashtable_ebo_helperILi0ESt8equal_toINSt7__cxx1112basic_stringIcSt11char_traitsIcESaIcEEEELb1EEC2Ev"
 "_ZNSt8__detail21_Hashtable_ebo_helperILi1ESt4hashINSt7__cxx1112basic_stringIcSt11char_traitsIcESaIcEEEELb1EEC2Ev"
 "_ZNSt8__detail22_Hashtable_hash_traitsISt4hashINSt7__cxx1112basic_stringIcSt11char_traitsIcESaIcEEEEE22__small_size_thresholdEv"
 "_ZNSt8__detail9_Map_baseINSt7__cxx1112basic_stringIcSt11char_traitsIcESaIcEEESt4pairIKS6_25llama_adapter_lora_weightESaISA_ENS_10_Select1stESt8equal_toIS6_ESt4hashIS6_ENS_18_Mod_range_hashingENS_20_Default_ranged_hashENS_20_Prime_rehash_policyENS_17_Hashtable_traitsILb1ELb0ELb1EEELb1EEixERS8_"
 "_ZNSt8__detailneERKNS_19_Node_iterator_baseISt4pairIKNSt7__cxx1112basic_stringIcSt11char_traitsIcESaIcEEE25llama_adapter_lora_weightELb1EEESD_"
 "_ZNSt8_Rb_treeINSt7__cxx1112basic_stringIcSt11char_traitsIcESaIcEEESt4pairIKS5_25llama_adapter_lora_weightESt10_Select1stIS9_ESt4lessIS5_ESaIS9_EE10_Auto_node9_M_insertES6_IPSt18_Rb_tree_node_baseSI_E"
 "_ZNSt8_Rb_treeINSt7__cxx1112basic_stringIcSt11char_traitsIcESaIcEEESt4pairIKS5_25llama_adapter_lora_weightESt10_Select1stIS9_ESt4lessIS5_ESaIS9_EE10_Auto_nodeC1IJRKSt21piecewise_construct_tSt5tupleIJRS7_EESL_IJEEEEERSF_DpOT_"
 "_ZNSt8_Rb_treeINSt7__cxx1112basic_stringIcSt11char_traitsIcESaIcEEESt4pairIKS5_25llama_adapter_lora_weightESt10_Select1stIS9_ESt4lessIS5_ESaIS9_EE10_Auto_nodeD1Ev"
 "_ZNSt8_Rb_treeINSt7__cxx1112basic_stringIcSt11char_traitsIcESaIcEEESt4pairIKS5_25llama_adapter_lora_weightESt10_Select1stIS9_ESt4lessIS5_ESaIS9_EE11_M_get_nodeEv"
 "_ZNSt8_Rb_treeINSt7__cxx1112basic_stringIcSt11char_traitsIcESaIcEEESt4pairIKS5_25llama_adapter_lora_weightESt10_Select1stIS9_ESt4lessIS5_ESaIS9_EE11_M_leftmostEv"
 "_ZNSt8_Rb_treeINSt7__cxx1112basic_stringIcSt11char_traitsIcESaIcEEESt4pairIKS5_25llama_adapter_lora_weightESt10_Select1stIS9_ESt4lessIS5_ESaIS9_EE11_M_put_nodeEPSt13_Rb_tree_nodeIS9_E"
 "_ZNSt8_Rb_treeINSt7__cxx1112basic_stringIcSt11char_traitsIcESaIcEEESt4pairIKS5_25llama_adapter_lora_weightESt10_Select1stIS9_ESt4lessIS5_ESaIS9_EE11lower_boundERS7_"
 "_ZNSt8_Rb_treeINSt7__cxx1112basic_stringIcSt11char_traitsIcESaIcEEESt4pairIKS5_25llama_adapter_lora_weightESt10_Select1stIS9_ESt4lessIS5_ESaIS9_EE12_M_drop_nodeEPSt13_Rb_tree_nodeIS9_E"
 "_ZNSt8_Rb_treeINSt7__cxx1112basic_stringIcSt11char_traitsIcESaIcEEESt4pairIKS5_25llama_adapter_lora_weightESt10_Select1stIS9_ESt4lessIS5_ESaIS9_EE12_M_rightmostEv"
 "_ZNSt8_Rb_treeINSt7__cxx1112basic_stringIcSt11char_traitsIcESaIcEEESt4pairIKS5_25llama_adapter_lora_weightESt10_Select1stIS9_ESt4lessIS5_ESaIS9_EE13_Rb_tree_implISD_Lb1EEC1Ev"
 "_ZNSt8_Rb_treeINSt7__cxx1112basic_stringIcSt11char_traitsIcESaIcEEESt4pairIKS5_25llama_adapter_lora_weightESt10_Select1stIS9_ESt4lessIS5_ESaIS9_EE13_Rb_tree_implISD_Lb1EED1Ev"
 "_ZNSt8_Rb_treeINSt7__cxx1112basic_stringIcSt11char_traitsIcESaIcEEESt4pairIKS5_25llama_adapter_lora_weightESt10_Select1stIS9_ESt4lessIS5_ESaIS9_EE14_M_create_nodeIJRKSt21piecewise_construct_tSt5tupleIJRS7_EESK_IJEEEEEPSt13_Rb_tree_nodeIS9_EDpOT_"
 "_ZNSt8_Rb_treeINSt7__cxx1112basic_stringIcSt11char_traitsIcESaIcEEESt4pairIKS5_25llama_adapter_lora_weightESt10_Select1stIS9_ESt4lessIS5_ESaIS9_EE14_M_insert_nodeEPSt18_Rb_tree_node_baseSH_PSt13_Rb_tree_nodeIS9_E"
 "_ZNSt8_Rb_treeINSt7__cxx1112basic_stringIcSt11char_traitsIcESaIcEEESt4pairIKS5_25llama_adapter_lora_weightESt10_Select1stIS9_ESt4lessIS5_ESaIS9_EE14_M_lower_boundEPSt13_Rb_tree_nodeIS9_EPSt18_Rb_tree_node_baseRS7_"
 "_ZNSt8_Rb_treeINSt7__cxx1112basic_stringIcSt11char_traitsIcESaIcEEESt4pairIKS5_25llama_adapter_lora_weightESt10_Select1stIS9_ESt4lessIS5_ESaIS9_EE15_M_destroy_nodeEPSt13_Rb_tree_nodeIS9_E"
 "_ZNSt8_Rb_treeINSt7__cxx1112basic_stringIcSt11char_traitsIcESaIcEEESt4pairIKS5_25llama_adapter_lora_weightESt10_Select1stIS9_ESt4lessIS5_ESaIS9_EE17_M_construct_nodeIJRKSt21piecewise_construct_tSt5tupleIJRS7_EESK_IJEEEEEvPSt13_Rb_tree_nodeIS9_EDpOT_"
 "_ZNSt8_Rb_treeINSt7__cxx1112basic_stringIcSt11char_traitsIcESaIcEEESt4pairIKS5_25llama_adapter_lora_weightESt10_Select1stIS9_ESt4lessIS5_ESaIS9_EE21_M_get_Node_allocatorEv"
 "_ZNSt8_Rb_treeINSt7__cxx1112basic_stringIcSt11char_traitsIcESaIcEEESt4pairIKS5_25llama_adapter_lora_weightESt10_Select1stIS9_ESt4lessIS5_ESaIS9_EE22_M_emplace_hint_uniqueIJRKSt21piecewise_construct_tSt5tupleIJRS7_EESK_IJEEEEESt17_Rb_tree_iteratorIS9_ESt23_Rb_tree_const_iteratorIS9_EDpOT_"
 "_ZNSt8_Rb_treeINSt7__cxx1112basic_stringIcSt11char_traitsIcESaIcEEESt4pairIKS5_25llama_adapter_lora_weightESt10_Select1stIS9_ESt4lessIS5_ESaIS9_EE24_M_get_insert_unique_posERS7_"
 "_ZNSt8_Rb_treeINSt7__cxx1112basic_stringIcSt11char_traitsIcESaIcEEESt4pairIKS5_25llama_adapter_lora_weightESt10_Select1stIS9_ESt4lessIS5_ESaIS9_EE29_M_get_insert_hint_unique_posESt23_Rb_tree_const_iteratorIS9_ERS7_"
 "_ZNSt8_Rb_treeINSt7__cxx1112basic_stringIcSt11char_traitsIcESaIcEEESt4pairIKS5_25llama_adapter_lora_weightESt10_Select1stIS9_ESt4lessIS5_ESaIS9_EE3endEv"
 "_ZNSt8_Rb_treeINSt7__cxx1112basic_stringIcSt11char_traitsIcESaIcEEESt4pairIKS5_25llama_adapter_lora_weightESt10_Select1stIS9_ESt4lessIS5_ESaIS9_EE4findERS7_"
 "_ZNSt8_Rb_treeINSt7__cxx1112basic_stringIcSt11char_traitsIcESaIcEEESt4pairIKS5_25llama_adapter_lora_weightESt10_Select1stIS9_ESt4lessIS5_ESaIS9_EE5beginEv"
 "_ZNSt8_Rb_treeINSt7__cxx1112basic_stringIcSt11char_traitsIcESaIcEEESt4pairIKS5_25llama_adapter_lora_weightESt10_Select1stIS9_ESt4lessIS5_ESaIS9_EE6_M_endEv"
 "_ZNSt8_Rb_treeINSt7__cxx1112basic_stringIcSt11char_traitsIcESaIcEEESt4pairIKS5_25llama_adapter_lora_weightESt10_Select1stIS9_ESt4lessIS5_ESaIS9_EE6_S_keyEPKSt13_Rb_tree_nodeIS9_E"
 "_ZNSt8_Rb_treeINSt7__cxx1112basic_stringIcSt11char_traitsIcESaIcEEESt4pairIKS5_25llama_adapter_lora_weightESt10_Select1stIS9_ESt4lessIS5_ESaIS9_EE6_S_keyEPKSt18_Rb_tree_node_base"
 "_ZNSt8_Rb_treeINSt7__cxx1112basic_stringIcSt11char_traitsIcESaIcEEESt4pairIKS5_25llama_adapter_lora_weightESt10_Select1stIS9_ESt4lessIS5_ESaIS9_EE7_S_leftEPSt18_Rb_tree_node_base"
 "_ZNSt8_Rb_treeINSt7__cxx1112basic_stringIcSt11char_traitsIcESaIcEEESt4pairIKS5_25llama_adapter_lora_weightESt10_Select1stIS9_ESt4lessIS5_ESaIS9_EE8_M_beginEv"
 "_ZNSt8_Rb_treeINSt7__cxx1112basic_stringIcSt11char_traitsIcESaIcEEESt4pairIKS5_25llama_adapter_lora_weightESt10_Select1stIS9_ESt4lessIS5_ESaIS9_EE8_M_eraseEPSt13_Rb_tree_nodeIS9_E"
 "_ZNSt8_Rb_treeINSt7__cxx1112basic_stringIcSt11char_traitsIcESaIcEEESt4pairIKS5_25llama_adapter_lora_weightESt10_Select1stIS9_ESt4lessIS5_ESaIS9_EE8_S_rightEPSt18_Rb_tree_node_base"
 "_ZNSt8_Rb_treeINSt7__cxx1112basic_stringIcSt11char_traitsIcESaIcEEESt4pairIKS5_25llama_adapter_lora_weightESt10_Select1stIS9_ESt4lessIS5_ESaIS9_EEC1Ev"
 "_ZNSt8_Rb_treeINSt7__cxx1112basic_stringIcSt11char_traitsIcESaIcEEESt4pairIKS5_25llama_adapter_lora_weightESt10_Select1stIS9_ESt4lessIS5_ESaIS9_EED1Ev"
 "_ZNSt8_Rb_treeIP24ggml_backend_buffer_typeSt4pairIKS1_P12ggml_contextESt10_Select1stIS6_ESt4lessIS1_ESaIS6_EE10_Auto_node9_M_insertES2_IPSt18_Rb_tree_node_baseSF_E"
 "_ZNSt8_Rb_treeIP24ggml_backend_buffer_typeSt4pairIKS1_P12ggml_contextESt10_Select1stIS6_ESt4lessIS1_ESaIS6_EE10_Auto_nodeC1IJRKSt21piecewise_construct_tSt5tupleIJRS3_EESI_IJEEEEERSC_DpOT_"
 "_ZNSt8_Rb_treeIP24ggml_backend_buffer_typeSt4pairIKS1_P12ggml_contextESt10_Select1stIS6_ESt4lessIS1_ESaIS6_EE10_Auto_nodeD1Ev"
 "_ZNSt8_Rb_treeIP24ggml_backend_buffer_typeSt4pairIKS1_P12ggml_contextESt10_Select1stIS6_ESt4lessIS1_ESaIS6_EE11_M_get_nodeEv"
 "_ZNSt8_Rb_treeIP24ggml_backend_buffer_typeSt4pairIKS1_P12ggml_contextESt10_Select1stIS6_ESt4lessIS1_ESaIS6_EE11_M_leftmostEv"
 "_ZNSt8_Rb_treeIP24ggml_backend_buffer_typeSt4pairIKS1_P12ggml_contextESt10_Select1stIS6_ESt4lessIS1_ESaIS6_EE11_M_put_nodeEPSt13_Rb_tree_nodeIS6_E"
 "_ZNSt8_Rb_treeIP24ggml_backend_buffer_typeSt4pairIKS1_P12ggml_contextESt10_Select1stIS6_ESt4lessIS1_ESaIS6_EE11lower_boundERS3_"
 "_ZNSt8_Rb_treeIP24ggml_backend_buffer_typeSt4pairIKS1_P12ggml_contextESt10_Select1stIS6_ESt4lessIS1_ESaIS6_EE12_M_drop_nodeEPSt13_Rb_tree_nodeIS6_E"
 "_ZNSt8_Rb_treeIP24ggml_backend_buffer_typeSt4pairIKS1_P12ggml_contextESt10_Select1stIS6_ESt4lessIS1_ESaIS6_EE12_M_rightmostEv"
 "_ZNSt8_Rb_treeIP24ggml_backend_buffer_typeSt4pairIKS1_P12ggml_contextESt10_Select1stIS6_ESt4lessIS1_ESaIS6_EE13_Rb_tree_implISA_Lb1EEC1Ev"
 "_ZNSt8_Rb_treeIP24ggml_backend_buffer_typeSt4pairIKS1_P12ggml_contextESt10_Select1stIS6_ESt4lessIS1_ESaIS6_EE13_Rb_tree_implISA_Lb1EED1Ev"
 "_ZNSt8_Rb_treeIP24ggml_backend_buffer_typeSt4pairIKS1_P12ggml_contextESt10_Select1stIS6_ESt4lessIS1_ESaIS6_EE14_M_create_nodeIJRKSt21piecewise_construct_tSt5tupleIJRS3_EESH_IJEEEEEPSt13_Rb_tree_nodeIS6_EDpOT_"
 "_ZNSt8_Rb_treeIP24ggml_backend_buffer_typeSt4pairIKS1_P12ggml_contextESt10_Select1stIS6_ESt4lessIS1_ESaIS6_EE14_M_insert_nodeEPSt18_Rb_tree_node_baseSE_PSt13_Rb_tree_nodeIS6_E"
 "_ZNSt8_Rb_treeIP24ggml_backend_buffer_typeSt4pairIKS1_P12ggml_contextESt10_Select1stIS6_ESt4lessIS1_ESaIS6_EE14_M_lower_boundEPSt13_Rb_tree_nodeIS6_EPSt18_Rb_tree_node_baseRS3_"
 "_ZNSt8_Rb_treeIP24ggml_backend_buffer_typeSt4pairIKS1_P12ggml_contextESt10_Select1stIS6_ESt4lessIS1_ESaIS6_EE15_M_destroy_nodeEPSt13_Rb_tree_nodeIS6_E"
 "_ZNSt8_Rb_treeIP24ggml_backend_buffer_typeSt4pairIKS1_P12ggml_contextESt10_Select1stIS6_ESt4lessIS1_ESaIS6_EE17_M_construct_nodeIJRKSt21piecewise_construct_tSt5tupleIJRS3_EESH_IJEEEEEvPSt13_Rb_tree_nodeIS6_EDpOT_"
 "_ZNSt8_Rb_treeIP24ggml_backend_buffer_typeSt4pairIKS1_P12ggml_contextESt10_Select1stIS6_ESt4lessIS1_ESaIS6_EE21_M_get_Node_allocatorEv"
 "_ZNSt8_Rb_treeIP24ggml_backend_buffer_typeSt4pairIKS1_P12ggml_contextESt10_Select1stIS6_ESt4lessIS1_ESaIS6_EE22_M_emplace_hint_uniqueIJRKSt21piecewise_construct_tSt5tupleIJRS3_EESH_IJEEEEESt17_Rb_tree_iteratorIS6_ESt23_Rb_tree_const_iteratorIS6_EDpOT_"
 "_ZNSt8_Rb_treeIP24ggml_backend_buffer_typeSt4pairIKS1_P12ggml_contextESt10_Select1stIS6_ESt4lessIS1_ESaIS6_EE24_M_get_insert_unique_posERS3_"
 "_ZNSt8_Rb_treeIP24ggml_backend_buffer_typeSt4pairIKS1_P12ggml_contextESt10_Select1stIS6_ESt4lessIS1_ESaIS6_EE29_M_get_insert_hint_unique_posESt23_Rb_tree_const_iteratorIS6_ERS3_"
 "_ZNSt8_Rb_treeIP24ggml_backend_buffer_typeSt4pairIKS1_P12ggml_contextESt10_Select1stIS6_ESt4lessIS1_ESaIS6_EE3endEv"
 "_ZNSt8_Rb_treeIP24ggml_backend_buffer_typeSt4pairIKS1_P12ggml_contextESt10_Select1stIS6_ESt4lessIS1_ESaIS6_EE4findERS3_"
 "_ZNSt8_Rb_treeIP24ggml_backend_buffer_typeSt4pairIKS1_P12ggml_contextESt10_Select1stIS6_ESt4lessIS1_ESaIS6_EE5beginEv"
 "_ZNSt8_Rb_treeIP24ggml_backend_buffer_typeSt4pairIKS1_P12ggml_contextESt10_Select1stIS6_ESt4lessIS1_ESaIS6_EE6_M_endEv"
 "_ZNSt8_Rb_treeIP24ggml_backend_buffer_typeSt4pairIKS1_P12ggml_contextESt10_Select1stIS6_ESt4lessIS1_ESaIS6_EE6_S_keyEPKSt13_Rb_tree_nodeIS6_E"
 "_ZNSt8_Rb_treeIP24ggml_backend_buffer_typeSt4pairIKS1_P12ggml_contextESt10_Select1stIS6_ESt4lessIS1_ESaIS6_EE6_S_keyEPKSt18_Rb_tree_node_base"
 "_ZNSt8_Rb_treeIP24ggml_backend_buffer_typeSt4pairIKS1_P12ggml_contextESt10_Select1stIS6_ESt4lessIS1_ESaIS6_EE7_S_leftEPSt18_Rb_tree_node_base"
 "_ZNSt8_Rb_treeIP24ggml_backend_buffer_typeSt4pairIKS1_P12ggml_contextESt10_Select1stIS6_ESt4lessIS1_ESaIS6_EE8_M_beginEv"
 "_ZNSt8_Rb_treeIP24ggml_backend_buffer_typeSt4pairIKS1_P12ggml_contextESt10_Select1stIS6_ESt4lessIS1_ESaIS6_EE8_M_eraseEPSt13_Rb_tree_nodeIS6_E"
 "_ZNSt8_Rb_treeIP24ggml_backend_buffer_typeSt4pairIKS1_P12ggml_contextESt10_Select1stIS6_ESt4lessIS1_ESaIS6_EE8_S_rightEPSt18_Rb_tree_node_base"
 "_ZNSt8_Rb_treeIP24ggml_backend_buffer_typeSt4pairIKS1_P12ggml_contextESt10_Select1stIS6_ESt4lessIS1_ESaIS6_EEC1Ev"
 "_ZNSt8_Rb_treeIP24ggml_backend_buffer_typeSt4pairIKS1_P12ggml_contextESt10_Select1stIS6_ESt4lessIS1_ESaIS6_EED1Ev"
 "_ZnwyPv"
 "_ZSt10__fill_n_aIPhyhET_S1_T0_RKT1_St26random_access_iterator_tag"
 "_ZSt10_ConstructIhJEEvPT_DpOT0_"
 "_ZSt11__addressofIhEPT_RS0_"
 "_ZSt11__addressofINSt8__detail10_Hash_nodeISt4pairIKNSt7__cxx1112basic_stringIcSt11char_traitsIcESaIcEEE25llama_adapter_lora_weightELb1EEEEPT_RSD_"
 "_ZSt11__addressofIPNSt8__detail15_Hash_node_baseEEPT_RS3_"
 "_ZSt11__addressofISt10unique_ptrI12ggml_context20ggml_context_deleterEEPT_RS4_"
 "_ZSt11__addressofISt10unique_ptrI19ggml_backend_buffer27ggml_backend_buffer_deleterEEPT_RS4_"
 "_ZSt12__get_helperILy0EP12ggml_contextJ20ggml_context_deleterEERKT0_RKSt11_Tuple_implIXT_EJS3_DpT1_EE"
 "_ZSt12__get_helperILy0EP12ggml_contextJ20ggml_context_deleterEERT0_RSt11_Tuple_implIXT_EJS3_DpT1_EE"
 "_ZSt12__get_helperILy0EP12gguf_contextJ20gguf_context_deleterEERKT0_RKSt11_Tuple_implIXT_EJS3_DpT1_EE"
 "_ZSt12__get_helperILy0EP12gguf_contextJ20gguf_context_deleterEERT0_RSt11_Tuple_implIXT_EJS3_DpT1_EE"
 "_ZSt12__get_helperILy0EP19ggml_backend_bufferJ27ggml_backend_buffer_deleterEERKT0_RKSt11_Tuple_implIXT_EJS3_DpT1_EE"
 "_ZSt12__get_helperILy0EP19ggml_backend_bufferJ27ggml_backend_buffer_deleterEERT0_RSt11_Tuple_implIXT_EJS3_DpT1_EE"
 "_ZSt12__get_helperILy0ERKNSt7__cxx1112basic_stringIcSt11char_traitsIcESaIcEEEJEERT0_RSt11_Tuple_implIXT_EJS8_DpT1_EE"
 "_ZSt12__get_helperILy0ERKP24ggml_backend_buffer_typeJEERT0_RSt11_Tuple_implIXT_EJS4_DpT1_EE"
 "_ZSt12__get_helperILy1E20ggml_context_deleterJEERT0_RSt11_Tuple_implIXT_EJS1_DpT1_EE"
 "_ZSt12__get_helperILy1E20gguf_context_deleterJEERT0_RSt11_Tuple_implIXT_EJS1_DpT1_EE"
 "_ZSt12__get_helperILy1E27ggml_backend_buffer_deleterJEERT0_RSt11_Tuple_implIXT_EJS1_DpT1_EE"
 "_ZSt12__niter_baseIPhET_S1_"
 "_ZSt12__niter_baseIPP11ggml_tensorET_S3_"
 "_ZSt12__niter_baseIPP24ggml_backend_buffer_typeET_S3_"
 "_ZSt12__niter_baseIPSt10unique_ptrI12ggml_context20ggml_context_deleterEET_S5_"
 "_ZSt12__niter_baseIPSt10unique_ptrI19ggml_backend_buffer27ggml_backend_buffer_deleterEET_S5_"
 "_ZSt12__relocate_aIPhS0_SaIhEET0_T_S3_S2_RT1_"
 "_ZSt12__relocate_aIPP11ggml_tensorS2_SaIS1_EET0_T_S5_S4_RT1_"
 "_ZSt12__relocate_aIPP24ggml_backend_buffer_typeS2_SaIS1_EET0_T_S5_S4_RT1_"
 "_ZSt12__relocate_aIPSt10unique_ptrI12ggml_context20ggml_context_deleterES4_SaIS3_EET0_T_S7_S6_RT1_"
 "_ZSt12__relocate_aIPSt10unique_ptrI19ggml_backend_buffer27ggml_backend_buffer_deleterES4_SaIS3_EET0_T_S7_S6_RT1_"
 "_ZSt12__str_concatINSt7__cxx1112basic_stringIcSt11char_traitsIcESaIcEEEET_PKNS6_10value_typeENS6_9size_typeES9_SA_RKNS6_14allocator_typeE"
 "_ZSt12__to_addressINSt8__detail10_Hash_nodeISt4pairIKNSt7__cxx1112basic_stringIcSt11char_traitsIcESaIcEEE25llama_adapter_lora_weightELb1EEEEPT_SE_"
 "_ZSt12__to_addressIPNSt8__detail15_Hash_node_baseEEPT_S4_"
 "_ZSt14__relocate_a_1IhhENSt9enable_ifIXsrSt24__is_bitwise_relocatableIT_vE5valueEPS2_E4typeES4_S4_S4_RSaIT0_E"
 "_ZSt14__relocate_a_1IP11ggml_tensorS1_ENSt9enable_ifIXsrSt24__is_bitwise_relocatableIT_vE5valueEPS4_E4typeES6_S6_S6_RSaIT0_E"
 "_ZSt14__relocate_a_1IP24ggml_backend_buffer_typeS1_ENSt9enable_ifIXsrSt24__is_bitwise_relocatableIT_vE5valueEPS4_E4typeES6_S6_S6_RSaIT0_E"
 "_ZSt14__relocate_a_1IPSt10unique_ptrI12ggml_context20ggml_context_deleterES4_SaIS3_EET0_T_S7_S6_RT1_"
 "_ZSt14__relocate_a_1IPSt10unique_ptrI19ggml_backend_buffer27ggml_backend_buffer_deleterES4_SaIS3_EET0_T_S7_S6_RT1_"
 "_ZSt17__size_to_integery"
 "_ZSt19__relocate_object_aISt10unique_ptrI12ggml_context20ggml_context_deleterES3_SaIS3_EEvPT_PT0_RT1_"
 "_ZSt19__relocate_object_aISt10unique_ptrI19ggml_backend_buffer27ggml_backend_buffer_deleterES3_SaIS3_EEvPT_PT0_RT1_"
 "_ZSt19piecewise_construct"
 "_ZSt23__is_constant_evaluatedv"
 "_ZSt25__uninitialized_default_nIPhyET_S1_T0_"
 "_ZSt27__uninitialized_default_n_aIPhyhET_S1_T0_RSaIT1_E"
 "_ZSt3getILy0EJP12ggml_context20ggml_context_deleterEERKNSt13tuple_elementIXT_ESt5tupleIJDpT0_EEE4typeERKS7_"
 "_ZSt3getILy0EJP12ggml_context20ggml_context_deleterEERNSt13tuple_elementIXT_ESt5tupleIJDpT0_EEE4typeERS7_"
 "_ZSt3getILy0EJP12gguf_context20gguf_context_deleterEERKNSt13tuple_elementIXT_ESt5tupleIJDpT0_EEE4typeERKS7_"
 "_ZSt3getILy0EJP12gguf_context20gguf_context_deleterEERNSt13tuple_elementIXT_ESt5tupleIJDpT0_EEE4typeERS7_"
 "_ZSt3getILy0EJP19ggml_backend_buffer27ggml_backend_buffer_deleterEERKNSt13tuple_elementIXT_ESt5tupleIJDpT0_EEE4typeERKS7_"
 "_ZSt3getILy0EJP19ggml_backend_buffer27ggml_backend_buffer_deleterEERNSt13tuple_elementIXT_ESt5tupleIJDpT0_EEE4typeERS7_"
 "_ZSt3getILy0EJRKNSt7__cxx1112basic_stringIcSt11char_traitsIcESaIcEEEEERNSt13tuple_elementIXT_ESt5tupleIJDpT0_EEE4typeERSC_"
 "_ZSt3getILy0EJRKP24ggml_backend_buffer_typeEERNSt13tuple_elementIXT_ESt5tupleIJDpT0_EEE4typeERS8_"
 "_ZSt3getILy1EJP12ggml_context20ggml_context_deleterEERNSt13tuple_elementIXT_ESt5tupleIJDpT0_EEE4typeERS7_"
 "_ZSt3getILy1EJP12gguf_context20gguf_context_deleterEERNSt13tuple_elementIXT_ESt5tupleIJDpT0_EEE4typeERS7_"
 "_ZSt3getILy1EJP19ggml_backend_buffer27ggml_backend_buffer_deleterEERNSt13tuple_elementIXT_ESt5tupleIJDpT0_EEE4typeERS7_"
 "_ZSt3maxIyERKT_S2_S2_"
 "_ZSt3minIyERKT_S2_S2_"
 "_ZSt4moveIRNSt7__cxx1112basic_stringIcSt11char_traitsIcESaIcEEEEONSt16remove_referenceIT_E4typeEOS8_"
 "_ZSt4moveIRP11ggml_tensorEONSt16remove_referenceIT_E4typeEOS4_"
 "_ZSt4moveIRP12ggml_contextEONSt16remove_referenceIT_E4typeEOS4_"
 "_ZSt4moveIRP12gguf_contextEONSt16remove_referenceIT_E4typeEOS4_"
 "_ZSt4moveIRP19ggml_backend_bufferEONSt16remove_referenceIT_E4typeEOS4_"
 "_ZSt4moveIRSt10unique_ptrI12ggml_context20ggml_context_deleterEEONSt16remove_referenceIT_E4typeEOS6_"
 "_ZSt4moveIRSt10unique_ptrI19ggml_backend_buffer27ggml_backend_buffer_deleterEEONSt16remove_referenceIT_E4typeEOS6_"
 "_ZSt4moveIRSt5tupleIJP12ggml_context20ggml_context_deleterEEEONSt16remove_referenceIT_E4typeEOS7_"
 "_ZSt4moveIRSt5tupleIJP19ggml_backend_buffer27ggml_backend_buffer_deleterEEEONSt16remove_referenceIT_E4typeEOS7_"
 "_ZSt6fill_nIPhyhET_S1_T0_RKT1_"
 "_ZSt7forwardIP11ggml_tensorEOT_RNSt16remove_referenceIS2_E4typeE"
 "_ZSt7forwardIRKNSt7__cxx1112basic_stringIcSt11char_traitsIcESaIcEEEEOT_RNSt16remove_referenceIS8_E4typeE"
 "_ZSt7forwardIRKP11ggml_tensorEOT_RNSt16remove_referenceIS4_E4typeE"
 "_ZSt7forwardIRKP24ggml_backend_buffer_typeEOT_RNSt16remove_referenceIS4_E4typeE"
 "_ZSt7forwardIRKSt21piecewise_construct_tEOT_RNSt16remove_referenceIS3_E4typeE"
 "_ZSt7forwardIRKSt4pairIKNSt7__cxx1112basic_stringIcSt11char_traitsIcESaIcEEE25llama_adapter_lora_weightEEOT_RNSt16remove_referenceISC_E4typeE"
 "_ZSt7forwardIRP12ggml_contextEOT_RNSt16remove_referenceIS3_E4typeE"
 "_ZSt7forwardIRP19ggml_backend_bufferEOT_RNSt16remove_referenceIS3_E4typeE"
 "_ZSt7forwardIRP24ggml_backend_buffer_typeEOT_RNSt16remove_referenceIS3_E4typeE"
 "_ZSt7forwardIRPSt13_Rb_tree_nodeISt4pairIKNSt7__cxx1112basic_stringIcSt11char_traitsIcESaIcEEE25llama_adapter_lora_weightEEEOT_RNSt16remove_referenceISE_E4typeE"
 "_ZSt7forwardIRPSt13_Rb_tree_nodeISt4pairIKP24ggml_backend_buffer_typeP12ggml_contextEEEOT_RNSt16remove_referenceISB_E4typeE"
 "_ZSt7forwardIRPSt18_Rb_tree_node_baseEOT_RNSt16remove_referenceIS3_E4typeE"
 "_ZSt7forwardISt10unique_ptrI12ggml_context20ggml_context_deleterEEOT_RNSt16remove_referenceIS4_E4typeE"
 "_ZSt7forwardISt10unique_ptrI19ggml_backend_buffer27ggml_backend_buffer_deleterEEOT_RNSt16remove_referenceIS4_E4typeE"
 "_ZSt7forwardISt5tupleIJEEEOT_RNSt16remove_referenceIS2_E4typeE"
 "_ZSt7forwardISt5tupleIJRKNSt7__cxx1112basic_stringIcSt11char_traitsIcESaIcEEEEEEOT_RNSt16remove_referenceISA_E4typeE"
 "_ZSt7forwardISt5tupleIJRKP24ggml_backend_buffer_typeEEEOT_RNSt16remove_referenceIS6_E4typeE"
 "_ZSt8__fill_aIPhhEvT_S1_RKT0_"
 "_ZSt8_DestroyIPhEvT_S1_"
 "_ZSt8_DestroyIPP24ggml_backend_buffer_typeEvT_S3_"
 "_ZSt8_DestroyIPSt10unique_ptrI12ggml_context20ggml_context_deleterEEvT_S5_"
 "_ZSt8_DestroyIPSt10unique_ptrI19ggml_backend_buffer27ggml_backend_buffer_deleterEEvT_S5_"
 "_ZSt8_DestroyISt10unique_ptrI12ggml_context20ggml_context_deleterEEvPT_"
 "_ZSt8_DestroyISt10unique_ptrI19ggml_backend_buffer27ggml_backend_buffer_deleterEEvPT_"
 "_ZSt9__fill_a1IhEN9__gnu_cxx11__enable_ifIXsrSt9__is_byteIT_E7__valueEvE6__typeEPS3_S7_RKS3_"
 "_ZSt9addressofINSt8__detail10_Hash_nodeISt4pairIKNSt7__cxx1112basic_stringIcSt11char_traitsIcESaIcEEE25llama_adapter_lora_weightELb1EEEEPT_RSD_"
 "_ZSt9addressofIPNSt8__detail15_Hash_node_baseEEPT_RS3_"
 "_ZSteqIcSt11char_traitsIcESaIcEEbRKNSt7__cxx1112basic_stringIT_T0_T1_EEPKS5_"
 "_ZSteqIcSt11char_traitsIcESaIcEEbRKNSt7__cxx1112basic_stringIT_T0_T1_EESA_"
 "_ZSteqRKSt17_Rb_tree_iteratorISt4pairIKNSt7__cxx1112basic_stringIcSt11char_traitsIcESaIcEEE25llama_adapter_lora_weightEESC_"
 "_ZSteqRKSt17_Rb_tree_iteratorISt4pairIKP24ggml_backend_buffer_typeP12ggml_contextEES9_"
 "_ZStltIcSt11char_traitsIcESaIcEEbRKNSt7__cxx1112basic_stringIT_T0_T1_EESA_"
 "_ZStneIcSt11char_traitsIcESaIcEEbRKNSt7__cxx1112basic_stringIT_T0_T1_EEPKS5_"
 "_ZStneRKSt17_Rb_tree_iteratorISt4pairIKNSt7__cxx1112basic_stringIcSt11char_traitsIcESaIcEEE25llama_adapter_lora_weightEESC_"
 "_ZStneRKSt17_Rb_tree_iteratorISt4pairIKP24ggml_backend_buffer_typeP12ggml_contextEES9_"
 "_ZStplIcSt11char_traitsIcESaIcEENSt7__cxx1112basic_stringIT_T0_T1_EEOS8_PKS5_"
 "_ZStplIcSt11char_traitsIcESaIcEENSt7__cxx1112basic_stringIT_T0_T1_EEPKS5_OS8_"
 "_ZStplIcSt11char_traitsIcESaIcEENSt7__cxx1112basic_stringIT_T0_T1_EEPKS5_RKS8_"
 "_ZTISt13runtime_error"
 "_ZTISt9exception"
 "_ZTSSt13runtime_error"
 "_ZTSSt9exception"
 "_ZZNSt7__cxx1112basic_stringIcSt11char_traitsIcESaIcEE12_M_constructIPKcEEvT_S8_St20forward_iterator_tagEN6_GuardC1EPS4_"
 "_ZZNSt7__cxx1112basic_stringIcSt11char_traitsIcESaIcEE12_M_constructIPKcEEvT_S8_St20forward_iterator_tagEN6_GuardD1Ev"
 "llama_adapter_lora_free"
 "llama_adapter_lora_init"
 "_Z13llm_arch_name8llm_arch"
 "_Z18llm_arch_is_hybridRK8llm_arch"
 "_Z19llm_tensor_info_for10llm_tensor"
 "_Z20llm_arch_from_stringRKNSt7__cxx1112basic_stringIcSt11char_traitsIcESaIcEEE"
 "_Z21llm_arch_is_diffusionRK8llm_arch"
 "_Z21llm_arch_is_recurrentRK8llm_arch"
 "_ZdlPvS_"
 "_ZN6LLM_KVC1E8llm_archPKc"
 "_ZN6LLM_KVC2E8llm_archPKc"
 "_ZN9__gnu_cxx11char_traitsIcE2eqERKcS3_"
 "_ZN9__gnu_cxx11char_traitsIcE6lengthEPKc"
 "_ZN9__gnu_cxx16__aligned_membufISt4pairIK10llm_tensor15llm_tensor_infoEE6_M_ptrEv"
 "_ZN9__gnu_cxx16__aligned_membufISt4pairIK10llm_tensor15llm_tensor_infoEE7_M_addrEv"
 "_ZN9__gnu_cxx16__aligned_membufISt4pairIK10llm_tensorPKcEE6_M_ptrEv"
 "_ZN9__gnu_cxx16__aligned_membufISt4pairIK10llm_tensorPKcEE7_M_addrEv"
 "_ZN9__gnu_cxx16__aligned_membufISt4pairIK6llm_kvPKcEE6_M_ptrEv"
 "_ZN9__gnu_cxx16__aligned_membufISt4pairIK6llm_kvPKcEE7_M_addrEv"
 "_ZN9__gnu_cxx16__aligned_membufISt4pairIK8llm_archPKcEE6_M_ptrEv"
 "_ZN9__gnu_cxx16__aligned_membufISt4pairIK8llm_archPKcEE7_M_addrEv"
 "_ZN9__gnu_cxx16__aligned_membufISt4pairIK8llm_archSt3mapI10llm_tensorPKcSt4lessIS5_ESaIS1_IKS5_S7_EEEEE6_M_ptrEv"
 "_ZN9__gnu_cxx16__aligned_membufISt4pairIK8llm_archSt3mapI10llm_tensorPKcSt4lessIS5_ESaIS1_IKS5_S7_EEEEE7_M_addrEv"
 "_ZNK11LLM_TN_IMPL3strB5cxx11Ev"
 "_ZNK6LLM_KVclB5cxx11E6llm_kv"
 "_ZNK9__gnu_cxx16__aligned_membufISt4pairIK10llm_tensor15llm_tensor_infoEE6_M_ptrEv"
 "_ZNK9__gnu_cxx16__aligned_membufISt4pairIK10llm_tensor15llm_tensor_infoEE7_M_addrEv"
 "_ZNK9__gnu_cxx16__aligned_membufISt4pairIK10llm_tensorPKcEE6_M_ptrEv"
 "_ZNK9__gnu_cxx16__aligned_membufISt4pairIK10llm_tensorPKcEE7_M_addrEv"
 "_ZNK9__gnu_cxx16__aligned_membufISt4pairIK6llm_kvPKcEE6_M_ptrEv"
 "_ZNK9__gnu_cxx16__aligned_membufISt4pairIK6llm_kvPKcEE7_M_addrEv"
 "_ZNK9__gnu_cxx16__aligned_membufISt4pairIK8llm_archPKcEE6_M_ptrEv"
 "_ZNK9__gnu_cxx16__aligned_membufISt4pairIK8llm_archPKcEE7_M_addrEv"
 "_ZNK9__gnu_cxx16__aligned_membufISt4pairIK8llm_archSt3mapI10llm_tensorPKcSt4lessIS5_ESaIS1_IKS5_S7_EEEEE6_M_ptrEv"
 "_ZNK9__gnu_cxx16__aligned_membufISt4pairIK8llm_archSt3mapI10llm_tensorPKcSt4lessIS5_ESaIS1_IKS5_S7_EEEEE7_M_addrEv"
 "_ZNKSt10_Select1stISt4pairIK10llm_tensor15llm_tensor_infoEEclERKS4_"
 "_ZNKSt10_Select1stISt4pairIK10llm_tensorPKcEEclERKS5_"
 "_ZNKSt10_Select1stISt4pairIK6llm_kvPKcEEclERKS5_"
 "_ZNKSt10_Select1stISt4pairIK8llm_archPKcEEclERKS5_"
 "_ZNKSt10_Select1stISt4pairIK8llm_archSt3mapI10llm_tensorPKcSt4lessIS4_ESaIS0_IKS4_S6_EEEEEclERKSD_"
 "_ZNKSt13_Rb_tree_nodeISt4pairIK10llm_tensor15llm_tensor_infoEE9_M_valptrEv"
 "_ZNKSt13_Rb_tree_nodeISt4pairIK10llm_tensorPKcEE9_M_valptrEv"
 "_ZNKSt13_Rb_tree_nodeISt4pairIK6llm_kvPKcEE9_M_valptrEv"
 "_ZNKSt13_Rb_tree_nodeISt4pairIK8llm_archPKcEE9_M_valptrEv"
 "_ZNKSt13_Rb_tree_nodeISt4pairIK8llm_archSt3mapI10llm_tensorPKcSt4lessIS4_ESaIS0_IKS4_S6_EEEEE9_M_valptrEv"
 "_ZNKSt16initializer_listISt4pairIK10llm_tensor15llm_tensor_infoEE3endEv"
 "_ZNKSt16initializer_listISt4pairIK10llm_tensor15llm_tensor_infoEE4sizeEv"
 "_ZNKSt16initializer_listISt4pairIK10llm_tensor15llm_tensor_infoEE5beginEv"
 "_ZNKSt16initializer_listISt4pairIK10llm_tensorPKcEE3endEv"
 "_ZNKSt16initializer_listISt4pairIK10llm_tensorPKcEE4sizeEv"
 "_ZNKSt16initializer_listISt4pairIK10llm_tensorPKcEE5beginEv"
 "_ZNKSt16initializer_listISt4pairIK6llm_kvPKcEE3endEv"
 "_ZNKSt16initializer_listISt4pairIK6llm_kvPKcEE4sizeEv"
 "_ZNKSt16initializer_listISt4pairIK6llm_kvPKcEE5beginEv"
 "_ZNKSt16initializer_listISt4pairIK8llm_archPKcEE3endEv"
 "_ZNKSt16initializer_listISt4pairIK8llm_archPKcEE4sizeEv"
 "_ZNKSt16initializer_listISt4pairIK8llm_archPKcEE5beginEv"
 "_ZNKSt16initializer_listISt4pairIK8llm_archSt3mapI10llm_tensorPKcSt4lessIS4_ESaIS0_IKS4_S6_EEEEE3endEv"
 "_ZNKSt16initializer_listISt4pairIK8llm_archSt3mapI10llm_tensorPKcSt4lessIS4_ESaIS0_IKS4_S6_EEEEE4sizeEv"
 "_ZNKSt16initializer_listISt4pairIK8llm_archSt3mapI10llm_tensorPKcSt4lessIS4_ESaIS0_IKS4_S6_EEEEE5beginEv"
 "_ZNKSt23_Rb_tree_const_iteratorISt4pairIK10llm_tensor15llm_tensor_infoEE13_M_const_castEv"
 "_ZNKSt23_Rb_tree_const_iteratorISt4pairIK10llm_tensor15llm_tensor_infoEEdeEv"
 "_ZNKSt23_Rb_tree_const_iteratorISt4pairIK10llm_tensorPKcEE13_M_const_castEv"
 "_ZNKSt23_Rb_tree_const_iteratorISt4pairIK10llm_tensorPKcEEdeEv"
 "_ZNKSt23_Rb_tree_const_iteratorISt4pairIK6llm_kvPKcEE13_M_const_castEv"
 "_ZNKSt23_Rb_tree_const_iteratorISt4pairIK6llm_kvPKcEEdeEv"
 "_ZNKSt23_Rb_tree_const_iteratorISt4pairIK8llm_archPKcEE13_M_const_castEv"
 "_ZNKSt23_Rb_tree_const_iteratorISt4pairIK8llm_archPKcEEdeEv"
 "_ZNKSt23_Rb_tree_const_iteratorISt4pairIK8llm_archPKcEEptEv"
 "_ZNKSt23_Rb_tree_const_iteratorISt4pairIK8llm_archSt3mapI10llm_tensorPKcSt4lessIS4_ESaIS0_IKS4_S6_EEEEE13_M_const_castEv"
 "_ZNKSt23_Rb_tree_const_iteratorISt4pairIK8llm_archSt3mapI10llm_tensorPKcSt4lessIS4_ESaIS0_IKS4_S6_EEEEEdeEv"
 "_ZNKSt3mapI10llm_tensor15llm_tensor_infoSt4lessIS0_ESaISt4pairIKS0_S1_EEE11lower_boundERS5_"
 "_ZNKSt3mapI10llm_tensor15llm_tensor_infoSt4lessIS0_ESaISt4pairIKS0_S1_EEE2atERS5_"
 "_ZNKSt3mapI10llm_tensor15llm_tensor_infoSt4lessIS0_ESaISt4pairIKS0_S1_EEE3endEv"
 "_ZNKSt3mapI10llm_tensor15llm_tensor_infoSt4lessIS0_ESaISt4pairIKS0_S1_EEE8key_compEv"
 "_ZNKSt3mapI10llm_tensorPKcSt4lessIS0_ESaISt4pairIKS0_S2_EEE11lower_boundERS6_"
 "_ZNKSt3mapI10llm_tensorPKcSt4lessIS0_ESaISt4pairIKS0_S2_EEE2atERS6_"
 "_ZNKSt3mapI10llm_tensorPKcSt4lessIS0_ESaISt4pairIKS0_S2_EEE3endEv"
 "_ZNKSt3mapI10llm_tensorPKcSt4lessIS0_ESaISt4pairIKS0_S2_EEE4findERS6_"
 "_ZNKSt3mapI10llm_tensorPKcSt4lessIS0_ESaISt4pairIKS0_S2_EEE8key_compEv"
 "_ZNKSt3mapI6llm_kvPKcSt4lessIS0_ESaISt4pairIKS0_S2_EEE11lower_boundERS6_"
 "_ZNKSt3mapI6llm_kvPKcSt4lessIS0_ESaISt4pairIKS0_S2_EEE2atERS6_"
 "_ZNKSt3mapI6llm_kvPKcSt4lessIS0_ESaISt4pairIKS0_S2_EEE3endEv"
 "_ZNKSt3mapI6llm_kvPKcSt4lessIS0_ESaISt4pairIKS0_S2_EEE8key_compEv"
 "_ZNKSt3mapI8llm_archPKcSt4lessIS0_ESaISt4pairIKS0_S2_EEE11lower_boundERS6_"
 "_ZNKSt3mapI8llm_archPKcSt4lessIS0_ESaISt4pairIKS0_S2_EEE2atERS6_"
 "_ZNKSt3mapI8llm_archPKcSt4lessIS0_ESaISt4pairIKS0_S2_EEE3endEv"
 "_ZNKSt3mapI8llm_archPKcSt4lessIS0_ESaISt4pairIKS0_S2_EEE4findERS6_"
 "_ZNKSt3mapI8llm_archPKcSt4lessIS0_ESaISt4pairIKS0_S2_EEE5beginEv"
 "_ZNKSt3mapI8llm_archPKcSt4lessIS0_ESaISt4pairIKS0_S2_EEE8key_compEv"
 "_ZNKSt3mapI8llm_archS_I10llm_tensorPKcSt4lessIS1_ESaISt4pairIKS1_S3_EEES4_IS0_ESaIS6_IKS0_SA_EEE11lower_boundERSC_"
 "_ZNKSt3mapI8llm_archS_I10llm_tensorPKcSt4lessIS1_ESaISt4pairIKS1_S3_EEES4_IS0_ESaIS6_IKS0_SA_EEE2atERSC_"
 "_ZNKSt3mapI8llm_archS_I10llm_tensorPKcSt4lessIS1_ESaISt4pairIKS1_S3_EEES4_IS0_ESaIS6_IKS0_SA_EEE3endEv"
 "_ZNKSt3mapI8llm_archS_I10llm_tensorPKcSt4lessIS1_ESaISt4pairIKS1_S3_EEES4_IS0_ESaIS6_IKS0_SA_EEE8key_compEv"
 "_ZNKSt4lessI10llm_tensorEclERKS0_S3_"
 "_ZNKSt4lessI6llm_kvEclERKS0_S3_"
 "_ZNKSt4lessI8llm_archEclERKS0_S3_"
 "_ZNKSt8_Rb_treeI10llm_tensorSt4pairIKS0_15llm_tensor_infoESt10_Select1stIS4_ESt4lessIS0_ESaIS4_EE11_Alloc_nodeclIRKS4_EEPSt13_Rb_tree_nodeIS4_EOT_"
 "_ZNKSt8_Rb_treeI10llm_tensorSt4pairIKS0_15llm_tensor_infoESt10_Select1stIS4_ESt4lessIS0_ESaIS4_EE11lower_boundERS2_"
 "_ZNKSt8_Rb_treeI10llm_tensorSt4pairIKS0_15llm_tensor_infoESt10_Select1stIS4_ESt4lessIS0_ESaIS4_EE14_M_lower_boundEPKSt13_Rb_tree_nodeIS4_EPKSt18_Rb_tree_node_baseRS2_"
 "_ZNKSt8_Rb_treeI10llm_tensorSt4pairIKS0_15llm_tensor_infoESt10_Select1stIS4_ESt4lessIS0_ESaIS4_EE3endEv"
 "_ZNKSt8_Rb_treeI10llm_tensorSt4pairIKS0_15llm_tensor_infoESt10_Select1stIS4_ESt4lessIS0_ESaIS4_EE4sizeEv"
 "_ZNKSt8_Rb_treeI10llm_tensorSt4pairIKS0_15llm_tensor_infoESt10_Select1stIS4_ESt4lessIS0_ESaIS4_EE6_M_endEv"
 "_ZNKSt8_Rb_treeI10llm_tensorSt4pairIKS0_15llm_tensor_infoESt10_Select1stIS4_ESt4lessIS0_ESaIS4_EE8_M_beginEv"
 "_ZNKSt8_Rb_treeI10llm_tensorSt4pairIKS0_15llm_tensor_infoESt10_Select1stIS4_ESt4lessIS0_ESaIS4_EE8key_compEv"
 "_ZNKSt8_Rb_treeI10llm_tensorSt4pairIKS0_15llm_tensor_infoESt10_Select1stIS4_ESt4lessIS0_ESaIS4_EE9_M_mbeginEv"
 "_ZNKSt8_Rb_treeI10llm_tensorSt4pairIKS0_PKcESt10_Select1stIS5_ESt4lessIS0_ESaIS5_EE11_Alloc_nodeclIRKS5_EEPSt13_Rb_tree_nodeIS5_EOT_"
 "_ZNKSt8_Rb_treeI10llm_tensorSt4pairIKS0_PKcESt10_Select1stIS5_ESt4lessIS0_ESaIS5_EE11lower_boundERS2_"
 "_ZNKSt8_Rb_treeI10llm_tensorSt4pairIKS0_PKcESt10_Select1stIS5_ESt4lessIS0_ESaIS5_EE14_M_lower_boundEPKSt13_Rb_tree_nodeIS5_EPKSt18_Rb_tree_node_baseRS2_"
 "_ZNKSt8_Rb_treeI10llm_tensorSt4pairIKS0_PKcESt10_Select1stIS5_ESt4lessIS0_ESaIS5_EE3endEv"
 "_ZNKSt8_Rb_treeI10llm_tensorSt4pairIKS0_PKcESt10_Select1stIS5_ESt4lessIS0_ESaIS5_EE4findERS2_"
 "_ZNKSt8_Rb_treeI10llm_tensorSt4pairIKS0_PKcESt10_Select1stIS5_ESt4lessIS0_ESaIS5_EE4sizeEv"
 "_ZNKSt8_Rb_treeI10llm_tensorSt4pairIKS0_PKcESt10_Select1stIS5_ESt4lessIS0_ESaIS5_EE6_M_endEv"
 "_ZNKSt8_Rb_treeI10llm_tensorSt4pairIKS0_PKcESt10_Select1stIS5_ESt4lessIS0_ESaIS5_EE7_M_rootEv"
 "_ZNKSt8_Rb_treeI10llm_tensorSt4pairIKS0_PKcESt10_Select1stIS5_ESt4lessIS0_ESaIS5_EE8_M_beginEv"
 "_ZNKSt8_Rb_treeI10llm_tensorSt4pairIKS0_PKcESt10_Select1stIS5_ESt4lessIS0_ESaIS5_EE8key_compEv"
 "_ZNKSt8_Rb_treeI10llm_tensorSt4pairIKS0_PKcESt10_Select1stIS5_ESt4lessIS0_ESaIS5_EE9_M_mbeginEv"
 "_ZNKSt8_Rb_treeI6llm_kvSt4pairIKS0_PKcESt10_Select1stIS5_ESt4lessIS0_ESaIS5_EE11_Alloc_nodeclIRKS5_EEPSt13_Rb_tree_nodeIS5_EOT_"
 "_ZNKSt8_Rb_treeI6llm_kvSt4pairIKS0_PKcESt10_Select1stIS5_ESt4lessIS0_ESaIS5_EE11lower_boundERS2_"
 "_ZNKSt8_Rb_treeI6llm_kvSt4pairIKS0_PKcESt10_Select1stIS5_ESt4lessIS0_ESaIS5_EE14_M_lower_boundEPKSt13_Rb_tree_nodeIS5_EPKSt18_Rb_tree_node_baseRS2_"
 "_ZNKSt8_Rb_treeI6llm_kvSt4pairIKS0_PKcESt10_Select1stIS5_ESt4lessIS0_ESaIS5_EE3endEv"
 "_ZNKSt8_Rb_treeI6llm_kvSt4pairIKS0_PKcESt10_Select1stIS5_ESt4lessIS0_ESaIS5_EE4sizeEv"
 "_ZNKSt8_Rb_treeI6llm_kvSt4pairIKS0_PKcESt10_Select1stIS5_ESt4lessIS0_ESaIS5_EE6_M_endEv"
 "_ZNKSt8_Rb_treeI6llm_kvSt4pairIKS0_PKcESt10_Select1stIS5_ESt4lessIS0_ESaIS5_EE8_M_beginEv"
 "_ZNKSt8_Rb_treeI6llm_kvSt4pairIKS0_PKcESt10_Select1stIS5_ESt4lessIS0_ESaIS5_EE8key_compEv"
 "_ZNKSt8_Rb_treeI6llm_kvSt4pairIKS0_PKcESt10_Select1stIS5_ESt4lessIS0_ESaIS5_EE9_M_mbeginEv"
 "_ZNKSt8_Rb_treeI8llm_archSt4pairIKS0_PKcESt10_Select1stIS5_ESt4lessIS0_ESaIS5_EE11_Alloc_nodeclIRKS5_EEPSt13_Rb_tree_nodeIS5_EOT_"
 "_ZNKSt8_Rb_treeI8llm_archSt4pairIKS0_PKcESt10_Select1stIS5_ESt4lessIS0_ESaIS5_EE11lower_boundERS2_"
 "_ZNKSt8_Rb_treeI8llm_archSt4pairIKS0_PKcESt10_Select1stIS5_ESt4lessIS0_ESaIS5_EE14_M_lower_boundEPKSt13_Rb_tree_nodeIS5_EPKSt18_Rb_tree_node_baseRS2_"
 "_ZNKSt8_Rb_treeI8llm_archSt4pairIKS0_PKcESt10_Select1stIS5_ESt4lessIS0_ESaIS5_EE3endEv"
 "_ZNKSt8_Rb_treeI8llm_archSt4pairIKS0_PKcESt10_Select1stIS5_ESt4lessIS0_ESaIS5_EE4findERS2_"
 "_ZNKSt8_Rb_treeI8llm_archSt4pairIKS0_PKcESt10_Select1stIS5_ESt4lessIS0_ESaIS5_EE4sizeEv"
 "_ZNKSt8_Rb_treeI8llm_archSt4pairIKS0_PKcESt10_Select1stIS5_ESt4lessIS0_ESaIS5_EE5beginEv"
 "_ZNKSt8_Rb_treeI8llm_archSt4pairIKS0_PKcESt10_Select1stIS5_ESt4lessIS0_ESaIS5_EE6_M_endEv"
 "_ZNKSt8_Rb_treeI8llm_archSt4pairIKS0_PKcESt10_Select1stIS5_ESt4lessIS0_ESaIS5_EE8_M_beginEv"
 "_ZNKSt8_Rb_treeI8llm_archSt4pairIKS0_PKcESt10_Select1stIS5_ESt4lessIS0_ESaIS5_EE8key_compEv"
 "_ZNKSt8_Rb_treeI8llm_archSt4pairIKS0_PKcESt10_Select1stIS5_ESt4lessIS0_ESaIS5_EE9_M_mbeginEv"
 "_ZNKSt8_Rb_treeI8llm_archSt4pairIKS0_St3mapI10llm_tensorPKcSt4lessIS4_ESaIS1_IKS4_S6_EEEESt10_Select1stISD_ES7_IS0_ESaISD_EE11_Alloc_nodeclIRKSD_EEPSt13_Rb_tree_nodeISD_EOT_"
 "_ZNKSt8_Rb_treeI8llm_archSt4pairIKS0_St3mapI10llm_tensorPKcSt4lessIS4_ESaIS1_IKS4_S6_EEEESt10_Select1stISD_ES7_IS0_ESaISD_EE11lower_boundERS2_"
 "_ZNKSt8_Rb_treeI8llm_archSt4pairIKS0_St3mapI10llm_tensorPKcSt4lessIS4_ESaIS1_IKS4_S6_EEEESt10_Select1stISD_ES7_IS0_ESaISD_EE14_M_lower_boundEPKSt13_Rb_tree_nodeISD_EPKSt18_Rb_tree_node_baseRS2_"
 "_ZNKSt8_Rb_treeI8llm_archSt4pairIKS0_St3mapI10llm_tensorPKcSt4lessIS4_ESaIS1_IKS4_S6_EEEESt10_Select1stISD_ES7_IS0_ESaISD_EE3endEv"
 "_ZNKSt8_Rb_treeI8llm_archSt4pairIKS0_St3mapI10llm_tensorPKcSt4lessIS4_ESaIS1_IKS4_S6_EEEESt10_Select1stISD_ES7_IS0_ESaISD_EE4sizeEv"
 "_ZNKSt8_Rb_treeI8llm_archSt4pairIKS0_St3mapI10llm_tensorPKcSt4lessIS4_ESaIS1_IKS4_S6_EEEESt10_Select1stISD_ES7_IS0_ESaISD_EE6_M_endEv"
 "_ZNKSt8_Rb_treeI8llm_archSt4pairIKS0_St3mapI10llm_tensorPKcSt4lessIS4_ESaIS1_IKS4_S6_EEEESt10_Select1stISD_ES7_IS0_ESaISD_EE8_M_beginEv"
 "_ZNKSt8_Rb_treeI8llm_archSt4pairIKS0_St3mapI10llm_tensorPKcSt4lessIS4_ESaIS1_IKS4_S6_EEEESt10_Select1stISD_ES7_IS0_ESaISD_EE8key_compEv"
 "_ZNKSt8_Rb_treeI8llm_archSt4pairIKS0_St3mapI10llm_tensorPKcSt4lessIS4_ESaIS1_IKS4_S6_EEEESt10_Select1stISD_ES7_IS0_ESaISD_EE9_M_mbeginEv"
 "_ZNSt11char_traitsIcE2ltERKcS2_"
 "_ZNSt11char_traitsIcE6lengthEPKc"
 "_ZNSt11char_traitsIcE7compareEPKcS2_y"
 "_ZNSt13_Rb_tree_nodeISt4pairIK10llm_tensor15llm_tensor_infoEE9_M_valptrEv"
 "_ZNSt13_Rb_tree_nodeISt4pairIK10llm_tensorPKcEE9_M_valptrEv"
 "_ZNSt13_Rb_tree_nodeISt4pairIK6llm_kvPKcEE9_M_valptrEv"
 "_ZNSt13_Rb_tree_nodeISt4pairIK8llm_archPKcEE9_M_valptrEv"
 "_ZNSt13_Rb_tree_nodeISt4pairIK8llm_archSt3mapI10llm_tensorPKcSt4lessIS4_ESaIS0_IKS4_S6_EEEEE9_M_valptrEv"
 "_ZNSt15__new_allocatorIcED2Ev"
 "_ZNSt15__new_allocatorISt13_Rb_tree_nodeISt4pairIK10llm_tensor15llm_tensor_infoEEE10deallocateEPS6_y"
 "_ZNSt15__new_allocatorISt13_Rb_tree_nodeISt4pairIK10llm_tensor15llm_tensor_infoEEE8allocateEyPKv"
 "_ZNSt15__new_allocatorISt13_Rb_tree_nodeISt4pairIK10llm_tensor15llm_tensor_infoEEED2Ev"
 "_ZNSt15__new_allocatorISt13_Rb_tree_nodeISt4pairIK10llm_tensorPKcEEE10deallocateEPS7_y"
 "_ZNSt15__new_allocatorISt13_Rb_tree_nodeISt4pairIK10llm_tensorPKcEEE8allocateEyPKv"
 "_ZNSt15__new_allocatorISt13_Rb_tree_nodeISt4pairIK10llm_tensorPKcEEED2Ev"
 "_ZNSt15__new_allocatorISt13_Rb_tree_nodeISt4pairIK6llm_kvPKcEEE10deallocateEPS7_y"
 "_ZNSt15__new_allocatorISt13_Rb_tree_nodeISt4pairIK6llm_kvPKcEEE8allocateEyPKv"
 "_ZNSt15__new_allocatorISt13_Rb_tree_nodeISt4pairIK6llm_kvPKcEEED2Ev"
 "_ZNSt15__new_allocatorISt13_Rb_tree_nodeISt4pairIK8llm_archPKcEEE10deallocateEPS7_y"
 "_ZNSt15__new_allocatorISt13_Rb_tree_nodeISt4pairIK8llm_archPKcEEE8allocateEyPKv"
 "_ZNSt15__new_allocatorISt13_Rb_tree_nodeISt4pairIK8llm_archPKcEEED2Ev"
 "_ZNSt15__new_allocatorISt13_Rb_tree_nodeISt4pairIK8llm_archSt3mapI10llm_tensorPKcSt4lessIS5_ESaIS1_IKS5_S7_EEEEEE10deallocateEPSF_y"
 "_ZNSt15__new_allocatorISt13_Rb_tree_nodeISt4pairIK8llm_archSt3mapI10llm_tensorPKcSt4lessIS5_ESaIS1_IKS5_S7_EEEEEE8allocateEyPKv"
 "_ZNSt15__new_allocatorISt13_Rb_tree_nodeISt4pairIK8llm_archSt3mapI10llm_tensorPKcSt4lessIS5_ESaIS1_IKS5_S7_EEEEEED2Ev"
 "_ZNSt15__new_allocatorISt4pairIK10llm_tensor15llm_tensor_infoEED2Ev"
 "_ZNSt15__new_allocatorISt4pairIK10llm_tensorPKcEED2Ev"
 "_ZNSt15__new_allocatorISt4pairIK6llm_kvPKcEED2Ev"
 "_ZNSt15__new_allocatorISt4pairIK8llm_archPKcEED2Ev"
 "_ZNSt15__new_allocatorISt4pairIK8llm_archSt3mapI10llm_tensorPKcSt4lessIS4_ESaIS0_IKS4_S6_EEEEED2Ev"
 "_ZNSt15_Rb_tree_header8_M_resetEv"
 "_ZNSt15_Rb_tree_headerC2Ev"
 "_ZNSt17_Rb_tree_iteratorISt4pairIK10llm_tensor15llm_tensor_infoEEC1EPSt18_Rb_tree_node_base"
 "_ZNSt17_Rb_tree_iteratorISt4pairIK10llm_tensor15llm_tensor_infoEEmmEv"
 "_ZNSt17_Rb_tree_iteratorISt4pairIK10llm_tensor15llm_tensor_infoEEppEv"
 "_ZNSt17_Rb_tree_iteratorISt4pairIK10llm_tensorPKcEEC1EPSt18_Rb_tree_node_base"
 "_ZNSt17_Rb_tree_iteratorISt4pairIK10llm_tensorPKcEEmmEv"
 "_ZNSt17_Rb_tree_iteratorISt4pairIK10llm_tensorPKcEEppEv"
 "_ZNSt17_Rb_tree_iteratorISt4pairIK6llm_kvPKcEEC1EPSt18_Rb_tree_node_base"
 "_ZNSt17_Rb_tree_iteratorISt4pairIK6llm_kvPKcEEmmEv"
 "_ZNSt17_Rb_tree_iteratorISt4pairIK6llm_kvPKcEEppEv"
 "_ZNSt17_Rb_tree_iteratorISt4pairIK8llm_archPKcEEC1EPSt18_Rb_tree_node_base"
 "_ZNSt17_Rb_tree_iteratorISt4pairIK8llm_archPKcEEmmEv"
 "_ZNSt17_Rb_tree_iteratorISt4pairIK8llm_archPKcEEppEv"
 "_ZNSt17_Rb_tree_iteratorISt4pairIK8llm_archSt3mapI10llm_tensorPKcSt4lessIS4_ESaIS0_IKS4_S6_EEEEEC1EPSt18_Rb_tree_node_base"
 "_ZNSt17_Rb_tree_iteratorISt4pairIK8llm_archSt3mapI10llm_tensorPKcSt4lessIS4_ESaIS0_IKS4_S6_EEEEEmmEv"
 "_ZNSt17_Rb_tree_iteratorISt4pairIK8llm_archSt3mapI10llm_tensorPKcSt4lessIS4_ESaIS0_IKS4_S6_EEEEEppEv"
 "_ZNSt18_Rb_tree_node_base10_S_maximumEPS_"
 "_ZNSt18_Rb_tree_node_base10_S_minimumEPS_"
 "_ZNSt20_Rb_tree_key_compareISt4lessI10llm_tensorEEC2ERKS2_"
 "_ZNSt20_Rb_tree_key_compareISt4lessI6llm_kvEEC2ERKS2_"
 "_ZNSt20_Rb_tree_key_compareISt4lessI8llm_archEEC2ERKS2_"
 "_ZNSt23_Rb_tree_const_iteratorISt4pairIK10llm_tensor15llm_tensor_infoEEC1EPKSt18_Rb_tree_node_base"
 "_ZNSt23_Rb_tree_const_iteratorISt4pairIK10llm_tensor15llm_tensor_infoEEC1ERKSt17_Rb_tree_iteratorIS4_E"
 "_ZNSt23_Rb_tree_const_iteratorISt4pairIK10llm_tensorPKcEEC1EPKSt18_Rb_tree_node_base"
 "_ZNSt23_Rb_tree_const_iteratorISt4pairIK10llm_tensorPKcEEC1ERKSt17_Rb_tree_iteratorIS5_E"
 "_ZNSt23_Rb_tree_const_iteratorISt4pairIK6llm_kvPKcEEC1EPKSt18_Rb_tree_node_base"
 "_ZNSt23_Rb_tree_const_iteratorISt4pairIK6llm_kvPKcEEC1ERKSt17_Rb_tree_iteratorIS5_E"
 "_ZNSt23_Rb_tree_const_iteratorISt4pairIK8llm_archPKcEEC1EPKSt18_Rb_tree_node_base"
 "_ZNSt23_Rb_tree_const_iteratorISt4pairIK8llm_archPKcEEC1ERKSt17_Rb_tree_iteratorIS5_E"
 "_ZNSt23_Rb_tree_const_iteratorISt4pairIK8llm_archPKcEEppEv"
 "_ZNSt23_Rb_tree_const_iteratorISt4pairIK8llm_archSt3mapI10llm_tensorPKcSt4lessIS4_ESaIS0_IKS4_S6_EEEEEC1EPKSt18_Rb_tree_node_base"
 "_ZNSt23_Rb_tree_const_iteratorISt4pairIK8llm_archSt3mapI10llm_tensorPKcSt4lessIS4_ESaIS0_IKS4_S6_EEEEEC1ERKSt17_Rb_tree_iteratorISD_E"
 "_ZNSt3mapI10llm_tensor15llm_tensor_infoSt4lessIS0_ESaISt4pairIKS0_S1_EEEC1ESt16initializer_listIS6_ERKS3_RKS7_"
 "_ZNSt3mapI10llm_tensor15llm_tensor_infoSt4lessIS0_ESaISt4pairIKS0_S1_EEED1Ev"
 "_ZNSt3mapI10llm_tensorPKcSt4lessIS0_ESaISt4pairIKS0_S2_EEEC1ERKS9_"
 "_ZNSt3mapI10llm_tensorPKcSt4lessIS0_ESaISt4pairIKS0_S2_EEEC1ESt16initializer_listIS7_ERKS4_RKS8_"
 "_ZNSt3mapI10llm_tensorPKcSt4lessIS0_ESaISt4pairIKS0_S2_EEED1Ev"
 "_ZNSt3mapI6llm_kvPKcSt4lessIS0_ESaISt4pairIKS0_S2_EEEC1ESt16initializer_listIS7_ERKS4_RKS8_"
 "_ZNSt3mapI6llm_kvPKcSt4lessIS0_ESaISt4pairIKS0_S2_EEED1Ev"
 "_ZNSt3mapI8llm_archPKcSt4lessIS0_ESaISt4pairIKS0_S2_EEEC1ESt16initializer_listIS7_ERKS4_RKS8_"
 "_ZNSt3mapI8llm_archPKcSt4lessIS0_ESaISt4pairIKS0_S2_EEED1Ev"
 "_ZNSt3mapI8llm_archS_I10llm_tensorPKcSt4lessIS1_ESaISt4pairIKS1_S3_EEES4_IS0_ESaIS6_IKS0_SA_EEEC1ESt16initializer_listISD_ERKSB_RKSE_"
 "_ZNSt3mapI8llm_archS_I10llm_tensorPKcSt4lessIS1_ESaISt4pairIKS1_S3_EEES4_IS0_ESaIS6_IKS0_SA_EEED1Ev"
 "_ZNSt4pairIK8llm_archSt3mapI10llm_tensorPKcSt4lessIS3_ESaIS_IKS3_S5_EEEEC1ERKSC_"
 "_ZNSt4pairIK8llm_archSt3mapI10llm_tensorPKcSt4lessIS3_ESaIS_IKS3_S5_EEEEC1IS1_SB_Lb1EEERS1_RKSB_"
 "_ZNSt4pairIK8llm_archSt3mapI10llm_tensorPKcSt4lessIS3_ESaIS_IKS3_S5_EEEED1Ev"
 "_ZNSt4pairIPSt18_Rb_tree_node_baseS1_EC1IRPSt13_Rb_tree_nodeIS_IK10llm_tensor15llm_tensor_infoEERS1_Lb1EEEOT_OT0_"
 "_ZNSt4pairIPSt18_Rb_tree_node_baseS1_EC1IRPSt13_Rb_tree_nodeIS_IK10llm_tensorPKcEERS1_Lb1EEEOT_OT0_"
 "_ZNSt4pairIPSt18_Rb_tree_node_baseS1_EC1IRPSt13_Rb_tree_nodeIS_IK6llm_kvPKcEERS1_Lb1EEEOT_OT0_"
 "_ZNSt4pairIPSt18_Rb_tree_node_baseS1_EC1IRPSt13_Rb_tree_nodeIS_IK8llm_archPKcEERS1_Lb1EEEOT_OT0_"
 "_ZNSt4pairIPSt18_Rb_tree_node_baseS1_EC1IRPSt13_Rb_tree_nodeIS_IK8llm_archSt3mapI10llm_tensorPKcSt4lessIS8_ESaIS_IKS8_SA_EEEEERS1_Lb1EEEOT_OT0_"
 "_ZNSt4pairIPSt18_Rb_tree_node_baseS1_EC1IRS1_S4_Lb1EEEOT_OT0_"
 "_ZNSt4pairIPSt18_Rb_tree_node_baseS1_EC1IS1_S1_Lb1EEERKS1_S5_"
 "_ZNSt7__cxx1112basic_stringIcSt11char_traitsIcESaIcEE12_Alloc_hiderD1Ev"
 "_ZNSt7__cxx1112basic_stringIcSt11char_traitsIcESaIcEE12_M_constructIPKcEEvT_S8_St20forward_iterator_tag"
 "_ZNSt7__cxx1112basic_stringIcSt11char_traitsIcESaIcEEC1IS3_EEPKcRKS3_"
 "_ZNSt8_Rb_treeI10llm_tensorSt4pairIKS0_15llm_tensor_infoESt10_Select1stIS4_ESt4lessIS0_ESaIS4_EE10_M_insert_IRKS4_NSA_11_Alloc_nodeEEESt17_Rb_tree_iteratorIS4_EPSt18_Rb_tree_node_baseSI_OT_RT0_"
 "_ZNSt8_Rb_treeI10llm_tensorSt4pairIKS0_15llm_tensor_infoESt10_Select1stIS4_ESt4lessIS0_ESaIS4_EE11_Alloc_nodeC1ERSA_"
 "_ZNSt8_Rb_treeI10llm_tensorSt4pairIKS0_15llm_tensor_infoESt10_Select1stIS4_ESt4lessIS0_ESaIS4_EE11_M_get_nodeEv"
 "_ZNSt8_Rb_treeI10llm_tensorSt4pairIKS0_15llm_tensor_infoESt10_Select1stIS4_ESt4lessIS0_ESaIS4_EE11_M_leftmostEv"
 "_ZNSt8_Rb_treeI10llm_tensorSt4pairIKS0_15llm_tensor_infoESt10_Select1stIS4_ESt4lessIS0_ESaIS4_EE11_M_put_nodeEPSt13_Rb_tree_nodeIS4_E"
 "_ZNSt8_Rb_treeI10llm_tensorSt4pairIKS0_15llm_tensor_infoESt10_Select1stIS4_ESt4lessIS0_ESaIS4_EE12_M_drop_nodeEPSt13_Rb_tree_nodeIS4_E"
 "_ZNSt8_Rb_treeI10llm_tensorSt4pairIKS0_15llm_tensor_infoESt10_Select1stIS4_ESt4lessIS0_ESaIS4_EE12_M_rightmostEv"
 "_ZNSt8_Rb_treeI10llm_tensorSt4pairIKS0_15llm_tensor_infoESt10_Select1stIS4_ESt4lessIS0_ESaIS4_EE13_Rb_tree_implIS8_Lb1EEC1ERKS8_OSaISt13_Rb_tree_nodeIS4_EE"
 "_ZNSt8_Rb_treeI10llm_tensorSt4pairIKS0_15llm_tensor_infoESt10_Select1stIS4_ESt4lessIS0_ESaIS4_EE13_Rb_tree_implIS8_Lb1EED1Ev"
 "_ZNSt8_Rb_treeI10llm_tensorSt4pairIKS0_15llm_tensor_infoESt10_Select1stIS4_ESt4lessIS0_ESaIS4_EE14_M_create_nodeIJRKS4_EEEPSt13_Rb_tree_nodeIS4_EDpOT_"
 "_ZNSt8_Rb_treeI10llm_tensorSt4pairIKS0_15llm_tensor_infoESt10_Select1stIS4_ESt4lessIS0_ESaIS4_EE15_M_destroy_nodeEPSt13_Rb_tree_nodeIS4_E"
 "_ZNSt8_Rb_treeI10llm_tensorSt4pairIKS0_15llm_tensor_infoESt10_Select1stIS4_ESt4lessIS0_ESaIS4_EE17_M_construct_nodeIJRKS4_EEEvPSt13_Rb_tree_nodeIS4_EDpOT_"
 "_ZNSt8_Rb_treeI10llm_tensorSt4pairIKS0_15llm_tensor_infoESt10_Select1stIS4_ESt4lessIS0_ESaIS4_EE17_M_insert_unique_IRKS4_NSA_11_Alloc_nodeEEESt17_Rb_tree_iteratorIS4_ESt23_Rb_tree_const_iteratorIS4_EOT_RT0_"
 "_ZNSt8_Rb_treeI10llm_tensorSt4pairIKS0_15llm_tensor_infoESt10_Select1stIS4_ESt4lessIS0_ESaIS4_EE21_M_get_Node_allocatorEv"
 "_ZNSt8_Rb_treeI10llm_tensorSt4pairIKS0_15llm_tensor_infoESt10_Select1stIS4_ESt4lessIS0_ESaIS4_EE22_M_insert_range_uniqueIPKS4_EENSt9enable_ifIXsrSt7is_sameIS4_NSt15iterator_traitsIT_E10value_typeEE5valueEvE4typeESH_SH_"
 "_ZNSt8_Rb_treeI10llm_tensorSt4pairIKS0_15llm_tensor_infoESt10_Select1stIS4_ESt4lessIS0_ESaIS4_EE24_M_get_insert_unique_posERS2_"
 "_ZNSt8_Rb_treeI10llm_tensorSt4pairIKS0_15llm_tensor_infoESt10_Select1stIS4_ESt4lessIS0_ESaIS4_EE29_M_get_insert_hint_unique_posESt23_Rb_tree_const_iteratorIS4_ERS2_"
 "_ZNSt8_Rb_treeI10llm_tensorSt4pairIKS0_15llm_tensor_infoESt10_Select1stIS4_ESt4lessIS0_ESaIS4_EE3endEv"
 "_ZNSt8_Rb_treeI10llm_tensorSt4pairIKS0_15llm_tensor_infoESt10_Select1stIS4_ESt4lessIS0_ESaIS4_EE5beginEv"
 "_ZNSt8_Rb_treeI10llm_tensorSt4pairIKS0_15llm_tensor_infoESt10_Select1stIS4_ESt4lessIS0_ESaIS4_EE6_M_endEv"
 "_ZNSt8_Rb_treeI10llm_tensorSt4pairIKS0_15llm_tensor_infoESt10_Select1stIS4_ESt4lessIS0_ESaIS4_EE6_S_keyEPKSt13_Rb_tree_nodeIS4_E"
 "_ZNSt8_Rb_treeI10llm_tensorSt4pairIKS0_15llm_tensor_infoESt10_Select1stIS4_ESt4lessIS0_ESaIS4_EE6_S_keyEPKSt18_Rb_tree_node_base"
 "_ZNSt8_Rb_treeI10llm_tensorSt4pairIKS0_15llm_tensor_infoESt10_Select1stIS4_ESt4lessIS0_ESaIS4_EE7_S_leftEPKSt18_Rb_tree_node_base"
 "_ZNSt8_Rb_treeI10llm_tensorSt4pairIKS0_15llm_tensor_infoESt10_Select1stIS4_ESt4lessIS0_ESaIS4_EE7_S_leftEPSt18_Rb_tree_node_base"
 "_ZNSt8_Rb_treeI10llm_tensorSt4pairIKS0_15llm_tensor_infoESt10_Select1stIS4_ESt4lessIS0_ESaIS4_EE8_M_beginEv"
 "_ZNSt8_Rb_treeI10llm_tensorSt4pairIKS0_15llm_tensor_infoESt10_Select1stIS4_ESt4lessIS0_ESaIS4_EE8_M_eraseEPSt13_Rb_tree_nodeIS4_E"
 "_ZNSt8_Rb_treeI10llm_tensorSt4pairIKS0_15llm_tensor_infoESt10_Select1stIS4_ESt4lessIS0_ESaIS4_EE8_S_rightEPKSt18_Rb_tree_node_base"
 "_ZNSt8_Rb_treeI10llm_tensorSt4pairIKS0_15llm_tensor_infoESt10_Select1stIS4_ESt4lessIS0_ESaIS4_EE8_S_rightEPSt18_Rb_tree_node_base"
 "_ZNSt8_Rb_treeI10llm_tensorSt4pairIKS0_15llm_tensor_infoESt10_Select1stIS4_ESt4lessIS0_ESaIS4_EEC1ERKS8_RKS9_"
 "_ZNSt8_Rb_treeI10llm_tensorSt4pairIKS0_15llm_tensor_infoESt10_Select1stIS4_ESt4lessIS0_ESaIS4_EED1Ev"
 "_ZNSt8_Rb_treeI10llm_tensorSt4pairIKS0_PKcESt10_Select1stIS5_ESt4lessIS0_ESaIS5_EE10_M_insert_IRKS5_NSB_11_Alloc_nodeEEESt17_Rb_tree_iteratorIS5_EPSt18_Rb_tree_node_baseSJ_OT_RT0_"
 "_ZNSt8_Rb_treeI10llm_tensorSt4pairIKS0_PKcESt10_Select1stIS5_ESt4lessIS0_ESaIS5_EE10_S_maximumEPSt18_Rb_tree_node_base"
 "_ZNSt8_Rb_treeI10llm_tensorSt4pairIKS0_PKcESt10_Select1stIS5_ESt4lessIS0_ESaIS5_EE10_S_minimumEPSt18_Rb_tree_node_base"
 "_ZNSt8_Rb_treeI10llm_tensorSt4pairIKS0_PKcESt10_Select1stIS5_ESt4lessIS0_ESaIS5_EE11_Alloc_nodeC1ERSB_"
 "_ZNSt8_Rb_treeI10llm_tensorSt4pairIKS0_PKcESt10_Select1stIS5_ESt4lessIS0_ESaIS5_EE11_M_get_nodeEv"
 "_ZNSt8_Rb_treeI10llm_tensorSt4pairIKS0_PKcESt10_Select1stIS5_ESt4lessIS0_ESaIS5_EE11_M_leftmostEv"
 "_ZNSt8_Rb_treeI10llm_tensorSt4pairIKS0_PKcESt10_Select1stIS5_ESt4lessIS0_ESaIS5_EE11_M_put_nodeEPSt13_Rb_tree_nodeIS5_E"
 "_ZNSt8_Rb_treeI10llm_tensorSt4pairIKS0_PKcESt10_Select1stIS5_ESt4lessIS0_ESaIS5_EE12_M_drop_nodeEPSt13_Rb_tree_nodeIS5_E"
 "_ZNSt8_Rb_treeI10llm_tensorSt4pairIKS0_PKcESt10_Select1stIS5_ESt4lessIS0_ESaIS5_EE12_M_rightmostEv"
 "_ZNSt8_Rb_treeI10llm_tensorSt4pairIKS0_PKcESt10_Select1stIS5_ESt4lessIS0_ESaIS5_EE13_M_clone_nodeILb0ENSB_11_Alloc_nodeEEEPSt13_Rb_tree_nodeIS5_ESG_RT0_"
 "_ZNSt8_Rb_treeI10llm_tensorSt4pairIKS0_PKcESt10_Select1stIS5_ESt4lessIS0_ESaIS5_EE13_Rb_tree_implIS9_Lb1EEC1ERKS9_OSaISt13_Rb_tree_nodeIS5_EE"
 "_ZNSt8_Rb_treeI10llm_tensorSt4pairIKS0_PKcESt10_Select1stIS5_ESt4lessIS0_ESaIS5_EE13_Rb_tree_implIS9_Lb1EEC1ERKSD_"
 "_ZNSt8_Rb_treeI10llm_tensorSt4pairIKS0_PKcESt10_Select1stIS5_ESt4lessIS0_ESaIS5_EE13_Rb_tree_implIS9_Lb1EED1Ev"
 "_ZNSt8_Rb_treeI10llm_tensorSt4pairIKS0_PKcESt10_Select1stIS5_ESt4lessIS0_ESaIS5_EE14_M_create_nodeIJRKS5_EEEPSt13_Rb_tree_nodeIS5_EDpOT_"
 "_ZNSt8_Rb_treeI10llm_tensorSt4pairIKS0_PKcESt10_Select1stIS5_ESt4lessIS0_ESaIS5_EE15_M_destroy_nodeEPSt13_Rb_tree_nodeIS5_E"
 "_ZNSt8_Rb_treeI10llm_tensorSt4pairIKS0_PKcESt10_Select1stIS5_ESt4lessIS0_ESaIS5_EE17_M_construct_nodeIJRKS5_EEEvPSt13_Rb_tree_nodeIS5_EDpOT_"
 "_ZNSt8_Rb_treeI10llm_tensorSt4pairIKS0_PKcESt10_Select1stIS5_ESt4lessIS0_ESaIS5_EE17_M_insert_unique_IRKS5_NSB_11_Alloc_nodeEEESt17_Rb_tree_iteratorIS5_ESt23_Rb_tree_const_iteratorIS5_EOT_RT0_"
 "_ZNSt8_Rb_treeI10llm_tensorSt4pairIKS0_PKcESt10_Select1stIS5_ESt4lessIS0_ESaIS5_EE21_M_get_Node_allocatorEv"
 "_ZNSt8_Rb_treeI10llm_tensorSt4pairIKS0_PKcESt10_Select1stIS5_ESt4lessIS0_ESaIS5_EE22_M_insert_range_uniqueIPKS5_EENSt9enable_ifIXsrSt7is_sameIS5_NSt15iterator_traitsIT_E10value_typeEE5valueEvE4typeESI_SI_"
 "_ZNSt8_Rb_treeI10llm_tensorSt4pairIKS0_PKcESt10_Select1stIS5_ESt4lessIS0_ESaIS5_EE24_M_get_insert_unique_posERS2_"
 "_ZNSt8_Rb_treeI10llm_tensorSt4pairIKS0_PKcESt10_Select1stIS5_ESt4lessIS0_ESaIS5_EE29_M_get_insert_hint_unique_posESt23_Rb_tree_const_iteratorIS5_ERS2_"
 "_ZNSt8_Rb_treeI10llm_tensorSt4pairIKS0_PKcESt10_Select1stIS5_ESt4lessIS0_ESaIS5_EE3endEv"
 "_ZNSt8_Rb_treeI10llm_tensorSt4pairIKS0_PKcESt10_Select1stIS5_ESt4lessIS0_ESaIS5_EE5beginEv"
 "_ZNSt8_Rb_treeI10llm_tensorSt4pairIKS0_PKcESt10_Select1stIS5_ESt4lessIS0_ESaIS5_EE6_M_endEv"
 "_ZNSt8_Rb_treeI10llm_tensorSt4pairIKS0_PKcESt10_Select1stIS5_ESt4lessIS0_ESaIS5_EE6_S_keyEPKSt13_Rb_tree_nodeIS5_E"
 "_ZNSt8_Rb_treeI10llm_tensorSt4pairIKS0_PKcESt10_Select1stIS5_ESt4lessIS0_ESaIS5_EE6_S_keyEPKSt18_Rb_tree_node_base"
 "_ZNSt8_Rb_treeI10llm_tensorSt4pairIKS0_PKcESt10_Select1stIS5_ESt4lessIS0_ESaIS5_EE7_M_copyERKSB_"
 "_ZNSt8_Rb_treeI10llm_tensorSt4pairIKS0_PKcESt10_Select1stIS5_ESt4lessIS0_ESaIS5_EE7_M_copyILb0ENSB_11_Alloc_nodeEEEPSt13_Rb_tree_nodeIS5_ERKSB_RT0_"
 "_ZNSt8_Rb_treeI10llm_tensorSt4pairIKS0_PKcESt10_Select1stIS5_ESt4lessIS0_ESaIS5_EE7_M_copyILb0ENSB_11_Alloc_nodeEEEPSt13_Rb_tree_nodeIS5_ESG_PSt18_Rb_tree_node_baseRT0_"
 "_ZNSt8_Rb_treeI10llm_tensorSt4pairIKS0_PKcESt10_Select1stIS5_ESt4lessIS0_ESaIS5_EE7_M_rootEv"
 "_ZNSt8_Rb_treeI10llm_tensorSt4pairIKS0_PKcESt10_Select1stIS5_ESt4lessIS0_ESaIS5_EE7_S_leftEPKSt18_Rb_tree_node_base"
 "_ZNSt8_Rb_treeI10llm_tensorSt4pairIKS0_PKcESt10_Select1stIS5_ESt4lessIS0_ESaIS5_EE7_S_leftEPSt18_Rb_tree_node_base"
 "_ZNSt8_Rb_treeI10llm_tensorSt4pairIKS0_PKcESt10_Select1stIS5_ESt4lessIS0_ESaIS5_EE8_M_beginEv"
 "_ZNSt8_Rb_treeI10llm_tensorSt4pairIKS0_PKcESt10_Select1stIS5_ESt4lessIS0_ESaIS5_EE8_M_eraseEPSt13_Rb_tree_nodeIS5_E"
 "_ZNSt8_Rb_treeI10llm_tensorSt4pairIKS0_PKcESt10_Select1stIS5_ESt4lessIS0_ESaIS5_EE8_S_rightEPKSt18_Rb_tree_node_base"
 "_ZNSt8_Rb_treeI10llm_tensorSt4pairIKS0_PKcESt10_Select1stIS5_ESt4lessIS0_ESaIS5_EE8_S_rightEPSt18_Rb_tree_node_base"
 "_ZNSt8_Rb_treeI10llm_tensorSt4pairIKS0_PKcESt10_Select1stIS5_ESt4lessIS0_ESaIS5_EEC1ERKS9_RKSA_"
 "_ZNSt8_Rb_treeI10llm_tensorSt4pairIKS0_PKcESt10_Select1stIS5_ESt4lessIS0_ESaIS5_EEC1ERKSB_"
 "_ZNSt8_Rb_treeI10llm_tensorSt4pairIKS0_PKcESt10_Select1stIS5_ESt4lessIS0_ESaIS5_EED1Ev"
 "_ZNSt8_Rb_treeI6llm_kvSt4pairIKS0_PKcESt10_Select1stIS5_ESt4lessIS0_ESaIS5_EE10_M_insert_IRKS5_NSB_11_Alloc_nodeEEESt17_Rb_tree_iteratorIS5_EPSt18_Rb_tree_node_baseSJ_OT_RT0_"
 "_ZNSt8_Rb_treeI6llm_kvSt4pairIKS0_PKcESt10_Select1stIS5_ESt4lessIS0_ESaIS5_EE11_Alloc_nodeC1ERSB_"
 "_ZNSt8_Rb_treeI6llm_kvSt4pairIKS0_PKcESt10_Select1stIS5_ESt4lessIS0_ESaIS5_EE11_M_get_nodeEv"
 "_ZNSt8_Rb_treeI6llm_kvSt4pairIKS0_PKcESt10_Select1stIS5_ESt4lessIS0_ESaIS5_EE11_M_leftmostEv"
 "_ZNSt8_Rb_treeI6llm_kvSt4pairIKS0_PKcESt10_Select1stIS5_ESt4lessIS0_ESaIS5_EE11_M_put_nodeEPSt13_Rb_tree_nodeIS5_E"
 "_ZNSt8_Rb_treeI6llm_kvSt4pairIKS0_PKcESt10_Select1stIS5_ESt4lessIS0_ESaIS5_EE12_M_drop_nodeEPSt13_Rb_tree_nodeIS5_E"
 "_ZNSt8_Rb_treeI6llm_kvSt4pairIKS0_PKcESt10_Select1stIS5_ESt4lessIS0_ESaIS5_EE12_M_rightmostEv"
 "_ZNSt8_Rb_treeI6llm_kvSt4pairIKS0_PKcESt10_Select1stIS5_ESt4lessIS0_ESaIS5_EE13_Rb_tree_implIS9_Lb1EEC1ERKS9_OSaISt13_Rb_tree_nodeIS5_EE"
 "_ZNSt8_Rb_treeI6llm_kvSt4pairIKS0_PKcESt10_Select1stIS5_ESt4lessIS0_ESaIS5_EE13_Rb_tree_implIS9_Lb1EED1Ev"
 "_ZNSt8_Rb_treeI6llm_kvSt4pairIKS0_PKcESt10_Select1stIS5_ESt4lessIS0_ESaIS5_EE14_M_create_nodeIJRKS5_EEEPSt13_Rb_tree_nodeIS5_EDpOT_"
 "_ZNSt8_Rb_treeI6llm_kvSt4pairIKS0_PKcESt10_Select1stIS5_ESt4lessIS0_ESaIS5_EE15_M_destroy_nodeEPSt13_Rb_tree_nodeIS5_E"
 "_ZNSt8_Rb_treeI6llm_kvSt4pairIKS0_PKcESt10_Select1stIS5_ESt4lessIS0_ESaIS5_EE17_M_construct_nodeIJRKS5_EEEvPSt13_Rb_tree_nodeIS5_EDpOT_"
 "_ZNSt8_Rb_treeI6llm_kvSt4pairIKS0_PKcESt10_Select1stIS5_ESt4lessIS0_ESaIS5_EE17_M_insert_unique_IRKS5_NSB_11_Alloc_nodeEEESt17_Rb_tree_iteratorIS5_ESt23_Rb_tree_const_iteratorIS5_EOT_RT0_"
 "_ZNSt8_Rb_treeI6llm_kvSt4pairIKS0_PKcESt10_Select1stIS5_ESt4lessIS0_ESaIS5_EE21_M_get_Node_allocatorEv"
 "_ZNSt8_Rb_treeI6llm_kvSt4pairIKS0_PKcESt10_Select1stIS5_ESt4lessIS0_ESaIS5_EE22_M_insert_range_uniqueIPKS5_EENSt9enable_ifIXsrSt7is_sameIS5_NSt15iterator_traitsIT_E10value_typeEE5valueEvE4typeESI_SI_"
 "_ZNSt8_Rb_treeI6llm_kvSt4pairIKS0_PKcESt10_Select1stIS5_ESt4lessIS0_ESaIS5_EE24_M_get_insert_unique_posERS2_"
 "_ZNSt8_Rb_treeI6llm_kvSt4pairIKS0_PKcESt10_Select1stIS5_ESt4lessIS0_ESaIS5_EE29_M_get_insert_hint_unique_posESt23_Rb_tree_const_iteratorIS5_ERS2_"
 "_ZNSt8_Rb_treeI6llm_kvSt4pairIKS0_PKcESt10_Select1stIS5_ESt4lessIS0_ESaIS5_EE3endEv"
 "_ZNSt8_Rb_treeI6llm_kvSt4pairIKS0_PKcESt10_Select1stIS5_ESt4lessIS0_ESaIS5_EE5beginEv"
 "_ZNSt8_Rb_treeI6llm_kvSt4pairIKS0_PKcESt10_Select1stIS5_ESt4lessIS0_ESaIS5_EE6_M_endEv"
 "_ZNSt8_Rb_treeI6llm_kvSt4pairIKS0_PKcESt10_Select1stIS5_ESt4lessIS0_ESaIS5_EE6_S_keyEPKSt13_Rb_tree_nodeIS5_E"
 "_ZNSt8_Rb_treeI6llm_kvSt4pairIKS0_PKcESt10_Select1stIS5_ESt4lessIS0_ESaIS5_EE6_S_keyEPKSt18_Rb_tree_node_base"
 "_ZNSt8_Rb_treeI6llm_kvSt4pairIKS0_PKcESt10_Select1stIS5_ESt4lessIS0_ESaIS5_EE7_S_leftEPKSt18_Rb_tree_node_base"
 "_ZNSt8_Rb_treeI6llm_kvSt4pairIKS0_PKcESt10_Select1stIS5_ESt4lessIS0_ESaIS5_EE7_S_leftEPSt18_Rb_tree_node_base"
 "_ZNSt8_Rb_treeI6llm_kvSt4pairIKS0_PKcESt10_Select1stIS5_ESt4lessIS0_ESaIS5_EE8_M_beginEv"
 "_ZNSt8_Rb_treeI6llm_kvSt4pairIKS0_PKcESt10_Select1stIS5_ESt4lessIS0_ESaIS5_EE8_M_eraseEPSt13_Rb_tree_nodeIS5_E"
 "_ZNSt8_Rb_treeI6llm_kvSt4pairIKS0_PKcESt10_Select1stIS5_ESt4lessIS0_ESaIS5_EE8_S_rightEPKSt18_Rb_tree_node_base"
 "_ZNSt8_Rb_treeI6llm_kvSt4pairIKS0_PKcESt10_Select1stIS5_ESt4lessIS0_ESaIS5_EE8_S_rightEPSt18_Rb_tree_node_base"
 "_ZNSt8_Rb_treeI6llm_kvSt4pairIKS0_PKcESt10_Select1stIS5_ESt4lessIS0_ESaIS5_EEC1ERKS9_RKSA_"
 "_ZNSt8_Rb_treeI6llm_kvSt4pairIKS0_PKcESt10_Select1stIS5_ESt4lessIS0_ESaIS5_EED1Ev"
 "_ZNSt8_Rb_treeI8llm_archSt4pairIKS0_PKcESt10_Select1stIS5_ESt4lessIS0_ESaIS5_EE10_M_insert_IRKS5_NSB_11_Alloc_nodeEEESt17_Rb_tree_iteratorIS5_EPSt18_Rb_tree_node_baseSJ_OT_RT0_"
 "_ZNSt8_Rb_treeI8llm_archSt4pairIKS0_PKcESt10_Select1stIS5_ESt4lessIS0_ESaIS5_EE11_Alloc_nodeC1ERSB_"
 "_ZNSt8_Rb_treeI8llm_archSt4pairIKS0_PKcESt10_Select1stIS5_ESt4lessIS0_ESaIS5_EE11_M_get_nodeEv"
 "_ZNSt8_Rb_treeI8llm_archSt4pairIKS0_PKcESt10_Select1stIS5_ESt4lessIS0_ESaIS5_EE11_M_leftmostEv"
 "_ZNSt8_Rb_treeI8llm_archSt4pairIKS0_PKcESt10_Select1stIS5_ESt4lessIS0_ESaIS5_EE11_M_put_nodeEPSt13_Rb_tree_nodeIS5_E"
 "_ZNSt8_Rb_treeI8llm_archSt4pairIKS0_PKcESt10_Select1stIS5_ESt4lessIS0_ESaIS5_EE12_M_drop_nodeEPSt13_Rb_tree_nodeIS5_E"
 "_ZNSt8_Rb_treeI8llm_archSt4pairIKS0_PKcESt10_Select1stIS5_ESt4lessIS0_ESaIS5_EE12_M_rightmostEv"
 "_ZNSt8_Rb_treeI8llm_archSt4pairIKS0_PKcESt10_Select1stIS5_ESt4lessIS0_ESaIS5_EE13_Rb_tree_implIS9_Lb1EEC1ERKS9_OSaISt13_Rb_tree_nodeIS5_EE"
 "_ZNSt8_Rb_treeI8llm_archSt4pairIKS0_PKcESt10_Select1stIS5_ESt4lessIS0_ESaIS5_EE13_Rb_tree_implIS9_Lb1EED1Ev"
 "_ZNSt8_Rb_treeI8llm_archSt4pairIKS0_PKcESt10_Select1stIS5_ESt4lessIS0_ESaIS5_EE14_M_create_nodeIJRKS5_EEEPSt13_Rb_tree_nodeIS5_EDpOT_"
 "_ZNSt8_Rb_treeI8llm_archSt4pairIKS0_PKcESt10_Select1stIS5_ESt4lessIS0_ESaIS5_EE15_M_destroy_nodeEPSt13_Rb_tree_nodeIS5_E"
 "_ZNSt8_Rb_treeI8llm_archSt4pairIKS0_PKcESt10_Select1stIS5_ESt4lessIS0_ESaIS5_EE17_M_construct_nodeIJRKS5_EEEvPSt13_Rb_tree_nodeIS5_EDpOT_"
 "_ZNSt8_Rb_treeI8llm_archSt4pairIKS0_PKcESt10_Select1stIS5_ESt4lessIS0_ESaIS5_EE17_M_insert_unique_IRKS5_NSB_11_Alloc_nodeEEESt17_Rb_tree_iteratorIS5_ESt23_Rb_tree_const_iteratorIS5_EOT_RT0_"
 "_ZNSt8_Rb_treeI8llm_archSt4pairIKS0_PKcESt10_Select1stIS5_ESt4lessIS0_ESaIS5_EE21_M_get_Node_allocatorEv"
 "_ZNSt8_Rb_treeI8llm_archSt4pairIKS0_PKcESt10_Select1stIS5_ESt4lessIS0_ESaIS5_EE22_M_insert_range_uniqueIPKS5_EENSt9enable_ifIXsrSt7is_sameIS5_NSt15iterator_traitsIT_E10value_typeEE5valueEvE4typeESI_SI_"
 "_ZNSt8_Rb_treeI8llm_archSt4pairIKS0_PKcESt10_Select1stIS5_ESt4lessIS0_ESaIS5_EE24_M_get_insert_unique_posERS2_"
 "_ZNSt8_Rb_treeI8llm_archSt4pairIKS0_PKcESt10_Select1stIS5_ESt4lessIS0_ESaIS5_EE29_M_get_insert_hint_unique_posESt23_Rb_tree_const_iteratorIS5_ERS2_"
 "_ZNSt8_Rb_treeI8llm_archSt4pairIKS0_PKcESt10_Select1stIS5_ESt4lessIS0_ESaIS5_EE3endEv"
 "_ZNSt8_Rb_treeI8llm_archSt4pairIKS0_PKcESt10_Select1stIS5_ESt4lessIS0_ESaIS5_EE5beginEv"
 "_ZNSt8_Rb_treeI8llm_archSt4pairIKS0_PKcESt10_Select1stIS5_ESt4lessIS0_ESaIS5_EE6_M_endEv"
 "_ZNSt8_Rb_treeI8llm_archSt4pairIKS0_PKcESt10_Select1stIS5_ESt4lessIS0_ESaIS5_EE6_S_keyEPKSt13_Rb_tree_nodeIS5_E"
 "_ZNSt8_Rb_treeI8llm_archSt4pairIKS0_PKcESt10_Select1stIS5_ESt4lessIS0_ESaIS5_EE6_S_keyEPKSt18_Rb_tree_node_base"
 "_ZNSt8_Rb_treeI8llm_archSt4pairIKS0_PKcESt10_Select1stIS5_ESt4lessIS0_ESaIS5_EE7_S_leftEPKSt18_Rb_tree_node_base"
 "_ZNSt8_Rb_treeI8llm_archSt4pairIKS0_PKcESt10_Select1stIS5_ESt4lessIS0_ESaIS5_EE7_S_leftEPSt18_Rb_tree_node_base"
 "_ZNSt8_Rb_treeI8llm_archSt4pairIKS0_PKcESt10_Select1stIS5_ESt4lessIS0_ESaIS5_EE8_M_beginEv"
 "_ZNSt8_Rb_treeI8llm_archSt4pairIKS0_PKcESt10_Select1stIS5_ESt4lessIS0_ESaIS5_EE8_M_eraseEPSt13_Rb_tree_nodeIS5_E"
 "_ZNSt8_Rb_treeI8llm_archSt4pairIKS0_PKcESt10_Select1stIS5_ESt4lessIS0_ESaIS5_EE8_S_rightEPKSt18_Rb_tree_node_base"
 "_ZNSt8_Rb_treeI8llm_archSt4pairIKS0_PKcESt10_Select1stIS5_ESt4lessIS0_ESaIS5_EE8_S_rightEPSt18_Rb_tree_node_base"
 "_ZNSt8_Rb_treeI8llm_archSt4pairIKS0_PKcESt10_Select1stIS5_ESt4lessIS0_ESaIS5_EEC1ERKS9_RKSA_"
 "_ZNSt8_Rb_treeI8llm_archSt4pairIKS0_PKcESt10_Select1stIS5_ESt4lessIS0_ESaIS5_EED1Ev"
 "_ZNSt8_Rb_treeI8llm_archSt4pairIKS0_St3mapI10llm_tensorPKcSt4lessIS4_ESaIS1_IKS4_S6_EEEESt10_Select1stISD_ES7_IS0_ESaISD_EE10_M_insert_IRKSD_NSI_11_Alloc_nodeEEESt17_Rb_tree_iteratorISD_EPSt18_Rb_tree_node_baseSQ_OT_RT0_"
 "_ZNSt8_Rb_treeI8llm_archSt4pairIKS0_St3mapI10llm_tensorPKcSt4lessIS4_ESaIS1_IKS4_S6_EEEESt10_Select1stISD_ES7_IS0_ESaISD_EE11_Alloc_nodeC1ERSI_"
 "_ZNSt8_Rb_treeI8llm_archSt4pairIKS0_St3mapI10llm_tensorPKcSt4lessIS4_ESaIS1_IKS4_S6_EEEESt10_Select1stISD_ES7_IS0_ESaISD_EE11_M_get_nodeEv"
 "_ZNSt8_Rb_treeI8llm_archSt4pairIKS0_St3mapI10llm_tensorPKcSt4lessIS4_ESaIS1_IKS4_S6_EEEESt10_Select1stISD_ES7_IS0_ESaISD_EE11_M_leftmostEv"
 "_ZNSt8_Rb_treeI8llm_archSt4pairIKS0_St3mapI10llm_tensorPKcSt4lessIS4_ESaIS1_IKS4_S6_EEEESt10_Select1stISD_ES7_IS0_ESaISD_EE11_M_put_nodeEPSt13_Rb_tree_nodeISD_E"
 "_ZNSt8_Rb_treeI8llm_archSt4pairIKS0_St3mapI10llm_tensorPKcSt4lessIS4_ESaIS1_IKS4_S6_EEEESt10_Select1stISD_ES7_IS0_ESaISD_EE12_M_drop_nodeEPSt13_Rb_tree_nodeISD_E"
 "_ZNSt8_Rb_treeI8llm_archSt4pairIKS0_St3mapI10llm_tensorPKcSt4lessIS4_ESaIS1_IKS4_S6_EEEESt10_Select1stISD_ES7_IS0_ESaISD_EE12_M_rightmostEv"
 "_ZNSt8_Rb_treeI8llm_archSt4pairIKS0_St3mapI10llm_tensorPKcSt4lessIS4_ESaIS1_IKS4_S6_EEEESt10_Select1stISD_ES7_IS0_ESaISD_EE13_Rb_tree_implISG_Lb1EEC1ERKSG_OSaISt13_Rb_tree_nodeISD_EE"
 "_ZNSt8_Rb_treeI8llm_archSt4pairIKS0_St3mapI10llm_tensorPKcSt4lessIS4_ESaIS1_IKS4_S6_EEEESt10_Select1stISD_ES7_IS0_ESaISD_EE13_Rb_tree_implISG_Lb1EED1Ev"
 "_ZNSt8_Rb_treeI8llm_archSt4pairIKS0_St3mapI10llm_tensorPKcSt4lessIS4_ESaIS1_IKS4_S6_EEEESt10_Select1stISD_ES7_IS0_ESaISD_EE14_M_create_nodeIJRKSD_EEEPSt13_Rb_tree_nodeISD_EDpOT_"
 "_ZNSt8_Rb_treeI8llm_archSt4pairIKS0_St3mapI10llm_tensorPKcSt4lessIS4_ESaIS1_IKS4_S6_EEEESt10_Select1stISD_ES7_IS0_ESaISD_EE15_M_destroy_nodeEPSt13_Rb_tree_nodeISD_E"
 "_ZNSt8_Rb_treeI8llm_archSt4pairIKS0_St3mapI10llm_tensorPKcSt4lessIS4_ESaIS1_IKS4_S6_EEEESt10_Select1stISD_ES7_IS0_ESaISD_EE17_M_construct_nodeIJRKSD_EEEvPSt13_Rb_tree_nodeISD_EDpOT_"
 "_ZNSt8_Rb_treeI8llm_archSt4pairIKS0_St3mapI10llm_tensorPKcSt4lessIS4_ESaIS1_IKS4_S6_EEEESt10_Select1stISD_ES7_IS0_ESaISD_EE17_M_insert_unique_IRKSD_NSI_11_Alloc_nodeEEESt17_Rb_tree_iteratorISD_ESt23_Rb_tree_const_iteratorISD_EOT_RT0_"
 "_ZNSt8_Rb_treeI8llm_archSt4pairIKS0_St3mapI10llm_tensorPKcSt4lessIS4_ESaIS1_IKS4_S6_EEEESt10_Select1stISD_ES7_IS0_ESaISD_EE21_M_get_Node_allocatorEv"
 "_ZNSt8_Rb_treeI8llm_archSt4pairIKS0_St3mapI10llm_tensorPKcSt4lessIS4_ESaIS1_IKS4_S6_EEEESt10_Select1stISD_ES7_IS0_ESaISD_EE22_M_insert_range_uniqueIPKSD_EENSt9enable_ifIXsrSt7is_sameISD_NSt15iterator_traitsIT_E10value_typeEE5valueEvE4typeESP_SP_"
 "_ZNSt8_Rb_treeI8llm_archSt4pairIKS0_St3mapI10llm_tensorPKcSt4lessIS4_ESaIS1_IKS4_S6_EEEESt10_Select1stISD_ES7_IS0_ESaISD_EE24_M_get_insert_unique_posERS2_"
 "_ZNSt8_Rb_treeI8llm_archSt4pairIKS0_St3mapI10llm_tensorPKcSt4lessIS4_ESaIS1_IKS4_S6_EEEESt10_Select1stISD_ES7_IS0_ESaISD_EE29_M_get_insert_hint_unique_posESt23_Rb_tree_const_iteratorISD_ERS2_"
 "_ZNSt8_Rb_treeI8llm_archSt4pairIKS0_St3mapI10llm_tensorPKcSt4lessIS4_ESaIS1_IKS4_S6_EEEESt10_Select1stISD_ES7_IS0_ESaISD_EE3endEv"
 "_ZNSt8_Rb_treeI8llm_archSt4pairIKS0_St3mapI10llm_tensorPKcSt4lessIS4_ESaIS1_IKS4_S6_EEEESt10_Select1stISD_ES7_IS0_ESaISD_EE5beginEv"
 "_ZNSt8_Rb_treeI8llm_archSt4pairIKS0_St3mapI10llm_tensorPKcSt4lessIS4_ESaIS1_IKS4_S6_EEEESt10_Select1stISD_ES7_IS0_ESaISD_EE6_M_endEv"
 "_ZNSt8_Rb_treeI8llm_archSt4pairIKS0_St3mapI10llm_tensorPKcSt4lessIS4_ESaIS1_IKS4_S6_EEEESt10_Select1stISD_ES7_IS0_ESaISD_EE6_S_keyEPKSt13_Rb_tree_nodeISD_E"
 "_ZNSt8_Rb_treeI8llm_archSt4pairIKS0_St3mapI10llm_tensorPKcSt4lessIS4_ESaIS1_IKS4_S6_EEEESt10_Select1stISD_ES7_IS0_ESaISD_EE6_S_keyEPKSt18_Rb_tree_node_base"
 "_ZNSt8_Rb_treeI8llm_archSt4pairIKS0_St3mapI10llm_tensorPKcSt4lessIS4_ESaIS1_IKS4_S6_EEEESt10_Select1stISD_ES7_IS0_ESaISD_EE7_S_leftEPKSt18_Rb_tree_node_base"
 "_ZNSt8_Rb_treeI8llm_archSt4pairIKS0_St3mapI10llm_tensorPKcSt4lessIS4_ESaIS1_IKS4_S6_EEEESt10_Select1stISD_ES7_IS0_ESaISD_EE7_S_leftEPSt18_Rb_tree_node_base"
 "_ZNSt8_Rb_treeI8llm_archSt4pairIKS0_St3mapI10llm_tensorPKcSt4lessIS4_ESaIS1_IKS4_S6_EEEESt10_Select1stISD_ES7_IS0_ESaISD_EE8_M_beginEv"
 "_ZNSt8_Rb_treeI8llm_archSt4pairIKS0_St3mapI10llm_tensorPKcSt4lessIS4_ESaIS1_IKS4_S6_EEEESt10_Select1stISD_ES7_IS0_ESaISD_EE8_M_eraseEPSt13_Rb_tree_nodeISD_E"
 "_ZNSt8_Rb_treeI8llm_archSt4pairIKS0_St3mapI10llm_tensorPKcSt4lessIS4_ESaIS1_IKS4_S6_EEEESt10_Select1stISD_ES7_IS0_ESaISD_EE8_S_rightEPKSt18_Rb_tree_node_base"
 "_ZNSt8_Rb_treeI8llm_archSt4pairIKS0_St3mapI10llm_tensorPKcSt4lessIS4_ESaIS1_IKS4_S6_EEEESt10_Select1stISD_ES7_IS0_ESaISD_EE8_S_rightEPSt18_Rb_tree_node_base"
 "_ZNSt8_Rb_treeI8llm_archSt4pairIKS0_St3mapI10llm_tensorPKcSt4lessIS4_ESaIS1_IKS4_S6_EEEESt10_Select1stISD_ES7_IS0_ESaISD_EEC1ERKSG_RKSH_"
 "_ZNSt8_Rb_treeI8llm_archSt4pairIKS0_St3mapI10llm_tensorPKcSt4lessIS4_ESaIS1_IKS4_S6_EEEESt10_Select1stISD_ES7_IS0_ESaISD_EED1Ev"
 "_ZnwyPv"
 "_ZSt23__is_constant_evaluatedv"
 "_ZSt4moveIRSaISt13_Rb_tree_nodeISt4pairIK10llm_tensor15llm_tensor_infoEEEEONSt16remove_referenceIT_E4typeEOSA_"
 "_ZSt4moveIRSaISt13_Rb_tree_nodeISt4pairIK10llm_tensorPKcEEEEONSt16remove_referenceIT_E4typeEOSB_"
 "_ZSt4moveIRSaISt13_Rb_tree_nodeISt4pairIK6llm_kvPKcEEEEONSt16remove_referenceIT_E4typeEOSB_"
 "_ZSt4moveIRSaISt13_Rb_tree_nodeISt4pairIK8llm_archPKcEEEEONSt16remove_referenceIT_E4typeEOSB_"
 "_ZSt4moveIRSaISt13_Rb_tree_nodeISt4pairIK8llm_archSt3mapI10llm_tensorPKcSt4lessIS5_ESaIS1_IKS5_S7_EEEEEEEONSt16remove_referenceIT_E4typeEOSJ_"
 "_ZSt7forwardIRKSt4pairIK10llm_tensor15llm_tensor_infoEEOT_RNSt16remove_referenceIS7_E4typeE"
 "_ZSt7forwardIRKSt4pairIK10llm_tensorPKcEEOT_RNSt16remove_referenceIS8_E4typeE"
 "_ZSt7forwardIRKSt4pairIK6llm_kvPKcEEOT_RNSt16remove_referenceIS8_E4typeE"
 "_ZSt7forwardIRKSt4pairIK8llm_archPKcEEOT_RNSt16remove_referenceIS8_E4typeE"
 "_ZSt7forwardIRKSt4pairIK8llm_archSt3mapI10llm_tensorPKcSt4lessIS4_ESaIS0_IKS4_S6_EEEEEOT_RNSt16remove_referenceISG_E4typeE"
 "_ZSt7forwardIRPSt13_Rb_tree_nodeISt4pairIK10llm_tensor15llm_tensor_infoEEEOT_RNSt16remove_referenceIS9_E4typeE"
 "_ZSt7forwardIRPSt13_Rb_tree_nodeISt4pairIK10llm_tensorPKcEEEOT_RNSt16remove_referenceISA_E4typeE"
 "_ZSt7forwardIRPSt13_Rb_tree_nodeISt4pairIK6llm_kvPKcEEEOT_RNSt16remove_referenceISA_E4typeE"
 "_ZSt7forwardIRPSt13_Rb_tree_nodeISt4pairIK8llm_archPKcEEEOT_RNSt16remove_referenceISA_E4typeE"
 "_ZSt7forwardIRPSt13_Rb_tree_nodeISt4pairIK8llm_archSt3mapI10llm_tensorPKcSt4lessIS5_ESaIS1_IKS5_S7_EEEEEEOT_RNSt16remove_referenceISI_E4typeE"
 "_ZSt7forwardIRPSt18_Rb_tree_node_baseEOT_RNSt16remove_referenceIS3_E4typeE"
 "_ZSteqIcSt11char_traitsIcESaIcEEbPKT_RKNSt7__cxx1112basic_stringIS3_T0_T1_EE"
 "_ZSteqIcSt11char_traitsIcESaIcEEbRKNSt7__cxx1112basic_stringIT_T0_T1_EEPKS5_"
 "_ZSteqRKSt17_Rb_tree_iteratorISt4pairIK10llm_tensor15llm_tensor_infoEES7_"
 "_ZSteqRKSt17_Rb_tree_iteratorISt4pairIK10llm_tensorPKcEES8_"
 "_ZSteqRKSt17_Rb_tree_iteratorISt4pairIK6llm_kvPKcEES8_"
 "_ZSteqRKSt17_Rb_tree_iteratorISt4pairIK8llm_archPKcEES8_"
 "_ZSteqRKSt17_Rb_tree_iteratorISt4pairIK8llm_archSt3mapI10llm_tensorPKcSt4lessIS4_ESaIS0_IKS4_S6_EEEEESG_"
 "_ZSteqRKSt23_Rb_tree_const_iteratorISt4pairIK10llm_tensor15llm_tensor_infoEES7_"
 "_ZSteqRKSt23_Rb_tree_const_iteratorISt4pairIK10llm_tensorPKcEES8_"
 "_ZSteqRKSt23_Rb_tree_const_iteratorISt4pairIK6llm_kvPKcEES8_"
 "_ZSteqRKSt23_Rb_tree_const_iteratorISt4pairIK8llm_archPKcEES8_"
 "_ZSteqRKSt23_Rb_tree_const_iteratorISt4pairIK8llm_archSt3mapI10llm_tensorPKcSt4lessIS4_ESaIS0_IKS4_S6_EEEEESG_"
 "_ZStneRKSt23_Rb_tree_const_iteratorISt4pairIK8llm_archPKcEES8_"
 "_ZZNSt7__cxx1112basic_stringIcSt11char_traitsIcESaIcEE12_M_constructIPKcEEvT_S8_St20forward_iterator_tagEN6_GuardC1EPS4_"
 "_ZZNSt7__cxx1112basic_stringIcSt11char_traitsIcESaIcEE12_M_constructIPKcEEvT_S8_St20forward_iterator_tagEN6_GuardD1Ev"
 "_ZdlPvS_"
 "_ZN12llama_ubatch6data_tC1Ev"
 "_ZN12llama_ubatch6data_tD1Ev"
 "_ZN12llama_ubatchD1Ev"
 "_ZN18llama_batch_allocr10ubatch_addERKSt6vectorIiSaIiEEjb"
 "_ZN18llama_batch_allocr11get_out_idsEv"
 "_ZN18llama_batch_allocr11split_equalEjb"
 "_ZN18llama_batch_allocr11split_resetEv"
 "_ZN18llama_batch_allocr12split_simpleEj"
 "_ZN18llama_batch_allocr12ubatch_printERK12llama_ubatchi"
 "_ZN18llama_batch_allocr14ubatch_reserveEjj"
 "_ZN18llama_batch_allocr4initERK11llama_batchRK11llama_vocabPK14llama_memory_ijjb"
 "_ZN18llama_batch_allocr5clearEv"
 "_ZN18llama_batch_allocr9split_seqEj"
 "_ZN18llama_batch_allocrC1Ej"
 "_ZN18llama_batch_allocrC2Ej"
 "_ZN9__gnu_cxx16__aligned_bufferIN12llama_ubatch6data_tEE6_M_ptrEv"
 "_ZN9__gnu_cxx16__aligned_bufferIN12llama_ubatch6data_tEE7_M_addrEv"
 "_ZN9__gnu_cxx16__aligned_bufferISt4pairIKSt6bitsetILy64EESt6vectorIiSaIiEEEE6_M_ptrEv"
 "_ZN9__gnu_cxx16__aligned_bufferISt4pairIKSt6bitsetILy64EESt6vectorIiSaIiEEEE7_M_addrEv"
 "_ZN9__gnu_cxx16__aligned_membufIiE6_M_ptrEv"
 "_ZN9__gnu_cxx16__aligned_membufIiE7_M_addrEv"
 "_ZN9__gnu_cxx17__normal_iteratorIPaSt6vectorIaSaIaEEEC1ERKS1_"
 "_ZN9__gnu_cxx17__normal_iteratorIPiSt6vectorIiSaIiEEEC1ERKS1_"
 "_ZN9__gnu_cxx17__normal_iteratorIPiSt6vectorIiSaIiEEEpLEx"
 "_ZN9__gnu_cxx17__normal_iteratorIPKiSt6vectorIiSaIiEEEC1ERKS2_"
 "_ZN9__gnu_cxx17__normal_iteratorIPKiSt6vectorIiSaIiEEEC1IPivEERKNS0_IT_S5_EE"
 "_ZN9__gnu_cxx17__normal_iteratorIPKSt6bitsetILy64EESt6vectorIS2_SaIS2_EEEC1ERKS4_"
 "_ZN9__gnu_cxx17__normal_iteratorIPSt3setIiSt4lessIiESaIiEESt6vectorIS5_SaIS5_EEEC1ERKS6_"
 "_ZN9__gnu_cxx17__normal_iteratorIPSt3setIiSt4lessIiESaIiEESt6vectorIS5_SaIS5_EEEppEv"
 "_ZN9__gnu_cxx17__normal_iteratorIPSt6bitsetILy64EESt6vectorIS2_SaIS2_EEEC1ERKS3_"
 "_ZN9__gnu_cxx17__normal_iteratorIPSt6vectorIbSaIbEES1_IS3_SaIS3_EEEC1ERKS4_"
 "_ZN9__gnu_cxx17__normal_iteratorIPSt6vectorIbSaIbEES1_IS3_SaIS3_EEEppEv"
 "_ZN9__gnu_cxxeqIPKSt6bitsetILy64EESt6vectorIS2_SaIS2_EEEEbRKNS_17__normal_iteratorIT_T0_EESD_"
 "_ZN9__gnu_cxxmiIPaSt6vectorIaSaIaEEEENS_17__normal_iteratorIT_T0_E15difference_typeERKS8_SB_"
 "_ZN9__gnu_cxxmiIPiSt6vectorIiSaIiEEEENS_17__normal_iteratorIT_T0_E15difference_typeERKS8_SB_"
 "_ZN9__gnu_cxxmiIPKiSt6vectorIiSaIiEEEENS_17__normal_iteratorIT_T0_E15difference_typeERKS9_SC_"
 "_ZN9__gnu_cxxmiIPSt6bitsetILy64EESt6vectorIS2_SaIS2_EEEENS_17__normal_iteratorIT_T0_E15difference_typeERKSA_SD_"
 "_ZN9__gnu_cxxneIPiSt6vectorIiSaIiEEEEbRKNS_17__normal_iteratorIT_T0_EESA_"
 "_ZN9__gnu_cxxneIPSt3setIiSt4lessIiESaIiEESt6vectorIS5_SaIS5_EEEEbRKNS_17__normal_iteratorIT_T0_EESF_"
 "_ZN9__gnu_cxxneIPSt6vectorIbSaIbEES1_IS3_SaIS3_EEEEbRKNS_17__normal_iteratorIT_T0_EESC_"
 "_ZNK12llama_ubatch10equal_seqsEv"
 "_ZNK18llama_batch_allocr10get_n_usedEv"
 "_ZNK18llama_batch_allocr11seq_pos_maxEi"
 "_ZNK18llama_batch_allocr11seq_pos_minEi"
 "_ZNK18llama_batch_allocr12get_n_tokensEv"
 "_ZNK18llama_batch_allocr13get_n_outputsEv"
 "_ZNK18llama_batch_allocr9get_batchEv"
 "_ZNK9__gnu_cxx16__aligned_bufferISt4pairIKSt6bitsetILy64EESt6vectorIiSaIiEEEE6_M_ptrEv"
 "_ZNK9__gnu_cxx16__aligned_bufferISt4pairIKSt6bitsetILy64EESt6vectorIiSaIiEEEE7_M_addrEv"
 "_ZNK9__gnu_cxx16__aligned_membufIiE6_M_ptrEv"
 "_ZNK9__gnu_cxx16__aligned_membufIiE7_M_addrEv"
 "_ZNK9__gnu_cxx17__normal_iteratorIPaSt6vectorIaSaIaEEE4baseEv"
 "_ZNK9__gnu_cxx17__normal_iteratorIPiSt6vectorIiSaIiEEE4baseEv"
 "_ZNK9__gnu_cxx17__normal_iteratorIPiSt6vectorIiSaIiEEEdeEv"
 "_ZNK9__gnu_cxx17__normal_iteratorIPiSt6vectorIiSaIiEEEmiEx"
 "_ZNK9__gnu_cxx17__normal_iteratorIPiSt6vectorIiSaIiEEEplEx"
 "_ZNK9__gnu_cxx17__normal_iteratorIPKiSt6vectorIiSaIiEEE4baseEv"
 "_ZNK9__gnu_cxx17__normal_iteratorIPKSt6bitsetILy64EESt6vectorIS2_SaIS2_EEE4baseEv"
 "_ZNK9__gnu_cxx17__normal_iteratorIPSt3setIiSt4lessIiESaIiEESt6vectorIS5_SaIS5_EEE4baseEv"
 "_ZNK9__gnu_cxx17__normal_iteratorIPSt3setIiSt4lessIiESaIiEESt6vectorIS5_SaIS5_EEEdeEv"
 "_ZNK9__gnu_cxx17__normal_iteratorIPSt6bitsetILy64EESt6vectorIS2_SaIS2_EEE4baseEv"
 "_ZNK9__gnu_cxx17__normal_iteratorIPSt6vectorIbSaIbEES1_IS3_SaIS3_EEE4baseEv"
 "_ZNK9__gnu_cxx17__normal_iteratorIPSt6vectorIbSaIbEES1_IS3_SaIS3_EEEdeEv"
 "_ZNKSt10_HashtableISt6bitsetILy64EESt4pairIKS1_St6vectorIiSaIiEEESaIS7_ENSt8__detail10_Select1stESt8equal_toIS1_ESt4hashIS1_ENS9_18_Mod_range_hashingENS9_20_Default_ranged_hashENS9_20_Prime_rehash_policyENS9_17_Hashtable_traitsILb0ELb0ELb1EEEE12_M_find_nodeEyRS3_y"
 "_ZNKSt10_HashtableISt6bitsetILy64EESt4pairIKS1_St6vectorIiSaIiEEESaIS7_ENSt8__detail10_Select1stESt8equal_toIS1_ESt4hashIS1_ENS9_18_Mod_range_hashingENS9_20_Default_ranged_hashENS9_20_Prime_rehash_policyENS9_17_Hashtable_traitsILb0ELb0ELb1EEEE15_M_bucket_indexERKNS9_16_Hash_node_valueIS7_Lb0EEE"
 "_ZNKSt10_HashtableISt6bitsetILy64EESt4pairIKS1_St6vectorIiSaIiEEESaIS7_ENSt8__detail10_Select1stESt8equal_toIS1_ESt4hashIS1_ENS9_18_Mod_range_hashingENS9_20_Default_ranged_hashENS9_20_Prime_rehash_policyENS9_17_Hashtable_traitsILb0ELb0ELb1EEEE15_M_bucket_indexEy"
 "_ZNKSt10_HashtableISt6bitsetILy64EESt4pairIKS1_St6vectorIiSaIiEEESaIS7_ENSt8__detail10_Select1stESt8equal_toIS1_ESt4hashIS1_ENS9_18_Mod_range_hashingENS9_20_Default_ranged_hashENS9_20_Prime_rehash_policyENS9_17_Hashtable_traitsILb0ELb0ELb1EEEE19_M_find_before_nodeEyRS3_y"
 "_ZNKSt10_HashtableISt6bitsetILy64EESt4pairIKS1_St6vectorIiSaIiEEESaIS7_ENSt8__detail10_Select1stESt8equal_toIS1_ESt4hashIS1_ENS9_18_Mod_range_hashingENS9_20_Default_ranged_hashENS9_20_Prime_rehash_policyENS9_17_Hashtable_traitsILb0ELb0ELb1EEEE21_M_uses_single_bucketEPPNS9_15_Hash_node_baseE"
 "_ZNKSt10_HashtableISt6bitsetILy64EESt4pairIKS1_St6vectorIiSaIiEEESaIS7_ENSt8__detail10_Select1stESt8equal_toIS1_ESt4hashIS1_ENS9_18_Mod_range_hashingENS9_20_Default_ranged_hashENS9_20_Prime_rehash_policyENS9_17_Hashtable_traitsILb0ELb0ELb1EEEE8_M_beginEv"
 "_ZNKSt12__shared_ptrIN12llama_ubatch6data_tELN9__gnu_cxx12_Lock_policyE2EE3getEv"
 "_ZNKSt12_Base_bitsetILy2EE10_M_getdataEv"
 "_ZNKSt12_Base_bitsetILy2EE10_M_getwordEy"
 "_ZNKSt12_Base_bitsetILy2EE11_M_is_equalERKS0_"
 "_ZNKSt12_Base_bitsetILy2EE9_M_is_anyEv"
 "_ZNKSt12_Vector_baseIaSaIaEE19_M_get_Tp_allocatorEv"
 "_ZNKSt12_Vector_baseIfSaIfEE19_M_get_Tp_allocatorEv"
 "_ZNKSt12_Vector_baseIiSaIiEE19_M_get_Tp_allocatorEv"
 "_ZNKSt12_Vector_baseIPiSaIS0_EE19_M_get_Tp_allocatorEv"
 "_ZNKSt12_Vector_baseISt3setIiSt4lessIiESaIiEESaIS4_EE19_M_get_Tp_allocatorEv"
 "_ZNKSt12_Vector_baseISt6bitsetILy64EESaIS1_EE19_M_get_Tp_allocatorEv"
 "_ZNKSt12_Vector_baseISt6vectorIbSaIbEESaIS2_EE19_M_get_Tp_allocatorEv"
 "_ZNKSt13_Bit_iteratordeEv"
 "_ZNKSt13_Bit_iteratorixEx"
 "_ZNKSt13_Bvector_baseISaIbEE13_Bvector_impl11_M_end_addrEv"
 "_ZNKSt13_Bvector_baseISaIbEE20_M_get_Bit_allocatorEv"
 "_ZNKSt13_Rb_tree_nodeIiE9_M_valptrEv"
 "_ZNKSt13move_iteratorIPaE4baseEv"
 "_ZNKSt13move_iteratorIPiE4baseEv"
 "_ZNKSt14_Bit_referencecvbEv"
 "_ZNKSt16reverse_iteratorISt23_Rb_tree_const_iteratorIiEEdeEv"
 "_ZNKSt19__shared_ptr_accessIN12llama_ubatch6data_tELN9__gnu_cxx12_Lock_policyE2ELb0ELb0EE6_M_getEv"
 "_ZNKSt19__shared_ptr_accessIN12llama_ubatch6data_tELN9__gnu_cxx12_Lock_policyE2ELb0ELb0EEptEv"
 "_ZNKSt19_Bit_const_iterator13_M_const_castEv"
 "_ZNKSt19_Bit_const_iteratordeEv"
 "_ZNKSt23_Rb_tree_const_iteratorIiEdeEv"
 "_ZNKSt3setIiSt4lessIiESaIiEE4sizeEv"
 "_ZNKSt3setIiSt4lessIiESaIiEE5beginEv"
 "_ZNKSt3setIiSt4lessIiESaIiEE5emptyEv"
 "_ZNKSt3setIiSt4lessIiESaIiEE6rbeginEv"
 "_ZNKSt4hashISt6bitsetILy64EEEclERKS1_"
 "_ZNKSt4lessIiEclERKiS2_"
 "_ZNKSt6bitsetILy64EE15_Unchecked_testEy"
 "_ZNKSt6bitsetILy64EE4noneEv"
 "_ZNKSt6bitsetILy64EE4testEy"
 "_ZNKSt6bitsetILy64EE8_M_checkEyPKc"
 "_ZNKSt6bitsetILy64EEeqERKS0_"
 "_ZNKSt6bitsetILy64EEneERKS0_"
 "_ZNKSt6vectorIaSaIaEE11_M_data_ptrIaEEPT_S4_"
 "_ZNKSt6vectorIaSaIaEE12_M_check_lenEyPKc"
 "_ZNKSt6vectorIaSaIaEE4sizeEv"
 "_ZNKSt6vectorIaSaIaEE8max_sizeEv"
 "_ZNKSt6vectorIbSaIbEE12_M_check_lenEyPKc"
 "_ZNKSt6vectorIbSaIbEE3endEv"
 "_ZNKSt6vectorIbSaIbEE4sizeEv"
 "_ZNKSt6vectorIbSaIbEE5beginEv"
 "_ZNKSt6vectorIbSaIbEE6cbeginEv"
 "_ZNKSt6vectorIbSaIbEE8capacityEv"
 "_ZNKSt6vectorIbSaIbEE8max_sizeEv"
 "_ZNKSt6vectorIfSaIfEE11_M_data_ptrIfEEPT_S4_"
 "_ZNKSt6vectorIfSaIfEE12_M_check_lenEyPKc"
 "_ZNKSt6vectorIfSaIfEE4sizeEv"
 "_ZNKSt6vectorIfSaIfEE8max_sizeEv"
 "_ZNKSt6vectorIiSaIiEE11_M_data_ptrIiEEPT_S4_"
 "_ZNKSt6vectorIiSaIiEE12_M_check_lenEyPKc"
 "_ZNKSt6vectorIiSaIiEE4sizeEv"
 "_ZNKSt6vectorIiSaIiEE6cbeginEv"
 "_ZNKSt6vectorIiSaIiEE8max_sizeEv"
 "_ZNKSt6vectorIiSaIiEEixEy"
 "_ZNKSt6vectorIPiSaIS0_EE11_M_data_ptrIS0_EEPT_S5_"
 "_ZNKSt6vectorIPiSaIS0_EE12_M_check_lenEyPKc"
 "_ZNKSt6vectorIPiSaIS0_EE4sizeEv"
 "_ZNKSt6vectorIPiSaIS0_EE8max_sizeEv"
 "_ZNKSt6vectorIS_IbSaIbEESaIS1_EE12_M_check_lenEyPKc"
 "_ZNKSt6vectorIS_IbSaIbEESaIS1_EE4sizeEv"
 "_ZNKSt6vectorIS_IbSaIbEESaIS1_EE8max_sizeEv"
 "_ZNKSt6vectorISt3setIiSt4lessIiESaIiEESaIS4_EE12_M_check_lenEyPKc"
 "_ZNKSt6vectorISt3setIiSt4lessIiESaIiEESaIS4_EE4sizeEv"
 "_ZNKSt6vectorISt3setIiSt4lessIiESaIiEESaIS4_EE8max_sizeEv"
 "_ZNKSt6vectorISt3setIiSt4lessIiESaIiEESaIS4_EEixEy"
 "_ZNKSt6vectorISt6bitsetILy64EESaIS1_EE12_M_check_lenEyPKc"
 "_ZNKSt6vectorISt6bitsetILy64EESaIS1_EE3endEv"
 "_ZNKSt6vectorISt6bitsetILy64EESaIS1_EE4sizeEv"
 "_ZNKSt6vectorISt6bitsetILy64EESaIS1_EE5beginEv"
 "_ZNKSt6vectorISt6bitsetILy64EESaIS1_EE5emptyEv"
 "_ZNKSt6vectorISt6bitsetILy64EESaIS1_EE8max_sizeEv"
 "_ZNKSt8__detail10_Hash_nodeISt4pairIKSt6bitsetILy64EESt6vectorIiSaIiEEELb0EE7_M_nextEv"
 "_ZNKSt8__detail10_Select1stclIRKSt4pairIKSt6bitsetILy64EESt6vectorIiSaIiEEEEEONS0_10__1st_typeIT_E4typeEOSD_"
 "_ZNKSt8__detail14_Node_iteratorISt4pairIKSt6bitsetILy64EESt6vectorIiSaIiEEELb0ELb0EEptEv"
 "_ZNKSt8__detail15_Hash_code_baseISt6bitsetILy64EESt4pairIKS2_St6vectorIiSaIiEEENS_10_Select1stESt4hashIS2_ENS_18_Mod_range_hashingENS_20_Default_ranged_hashELb0EE12_M_hash_codeERS4_"
 "_ZNKSt8__detail15_Hash_code_baseISt6bitsetILy64EESt4pairIKS2_St6vectorIiSaIiEEENS_10_Select1stESt4hashIS2_ENS_18_Mod_range_hashingENS_20_Default_ranged_hashELb0EE13_M_store_codeERNS_21_Hash_node_code_cacheILb0EEEy"
 "_ZNKSt8__detail15_Hash_code_baseISt6bitsetILy64EESt4pairIKS2_St6vectorIiSaIiEEENS_10_Select1stESt4hashIS2_ENS_18_Mod_range_hashingENS_20_Default_ranged_hashELb0EE15_M_bucket_indexERKNS_16_Hash_node_valueIS8_Lb0EEEy"
 "_ZNKSt8__detail15_Hash_code_baseISt6bitsetILy64EESt4pairIKS2_St6vectorIiSaIiEEENS_10_Select1stESt4hashIS2_ENS_18_Mod_range_hashingENS_20_Default_ranged_hashELb0EE15_M_bucket_indexEyy"
 "_ZNKSt8__detail15_Hash_code_baseISt6bitsetILy64EESt4pairIKS2_St6vectorIiSaIiEEENS_10_Select1stESt4hashIS2_ENS_18_Mod_range_hashingENS_20_Default_ranged_hashELb0EE7_M_hashEv"
 "_ZNKSt8__detail15_Hashtable_baseISt6bitsetILy64EESt4pairIKS2_St6vectorIiSaIiEEENS_10_Select1stESt8equal_toIS2_ESt4hashIS2_ENS_18_Mod_range_hashingENS_20_Default_ranged_hashENS_17_Hashtable_traitsILb0ELb0ELb1EEEE13_M_key_equalsERS4_RKNS_16_Hash_node_valueIS8_Lb0EEE"
 "_ZNKSt8__detail15_Hashtable_baseISt6bitsetILy64EESt4pairIKS2_St6vectorIiSaIiEEENS_10_Select1stESt8equal_toIS2_ESt4hashIS2_ENS_18_Mod_range_hashingENS_20_Default_ranged_hashENS_17_Hashtable_traitsILb0ELb0ELb1EEEE5_M_eqEv"
 "_ZNKSt8__detail15_Hashtable_baseISt6bitsetILy64EESt4pairIKS2_St6vectorIiSaIiEEENS_10_Select1stESt8equal_toIS2_ESt4hashIS2_ENS_18_Mod_range_hashingENS_20_Default_ranged_hashENS_17_Hashtable_traitsILb0ELb0ELb1EEEE9_M_equalsERS4_yRKNS_16_Hash_node_valueIS8_Lb0EEE"
 "_ZNKSt8__detail18_Mod_range_hashingclEyy"
 "_ZNKSt8__detail20_Prime_rehash_policy8_M_stateEv"
 "_ZNKSt8__detail21_Hashtable_ebo_helperILi0ESt8equal_toISt6bitsetILy64EEELb1EE7_M_cgetEv"
 "_ZNKSt8__detail21_Hashtable_ebo_helperILi1ESt4hashISt6bitsetILy64EEELb1EE7_M_cgetEv"
 "_ZNKSt8_Rb_treeIiiSt9_IdentityIiESt4lessIiESaIiEE11_Alloc_nodeclIRKiEEPSt13_Rb_tree_nodeIiEOT_"
 "_ZNKSt8_Rb_treeIiiSt9_IdentityIiESt4lessIiESaIiEE3endEv"
 "_ZNKSt8_Rb_treeIiiSt9_IdentityIiESt4lessIiESaIiEE4sizeEv"
 "_ZNKSt8_Rb_treeIiiSt9_IdentityIiESt4lessIiESaIiEE5beginEv"
 "_ZNKSt8_Rb_treeIiiSt9_IdentityIiESt4lessIiESaIiEE5emptyEv"
 "_ZNKSt8_Rb_treeIiiSt9_IdentityIiESt4lessIiESaIiEE6rbeginEv"
 "_ZNKSt8_Rb_treeIiiSt9_IdentityIiESt4lessIiESaIiEE9_M_mbeginEv"
 "_ZNKSt8equal_toISt6bitsetILy64EEEclERKS1_S4_"
 "_ZNKSt9_IdentityIiEclERKi"
 "_ZNSt10_Hash_impl4hashEPKvyy"
 "_ZNSt10_HashtableISt6bitsetILy64EESt4pairIKS1_St6vectorIiSaIiEEESaIS7_ENSt8__detail10_Select1stESt8equal_toIS1_ESt4hashIS1_ENS9_18_Mod_range_hashingENS9_20_Default_ranged_hashENS9_20_Prime_rehash_policyENS9_17_Hashtable_traitsILb0ELb0ELb1EEEE12_Scoped_nodeC1IJRKSt21piecewise_construct_tSt5tupleIJRS3_EESQ_IJEEEEEPNS9_16_Hashtable_allocISaINS9_10_Hash_nodeIS7_Lb0EEEEEEDpOT_"
 "_ZNSt10_HashtableISt6bitsetILy64EESt4pairIKS1_St6vectorIiSaIiEEESaIS7_ENSt8__detail10_Select1stESt8equal_toIS1_ESt4hashIS1_ENS9_18_Mod_range_hashingENS9_20_Default_ranged_hashENS9_20_Prime_rehash_policyENS9_17_Hashtable_traitsILb0ELb0ELb1EEEE12_Scoped_nodeD1Ev"
 "_ZNSt10_HashtableISt6bitsetILy64EESt4pairIKS1_St6vectorIiSaIiEEESaIS7_ENSt8__detail10_Select1stESt8equal_toIS1_ESt4hashIS1_ENS9_18_Mod_range_hashingENS9_20_Default_ranged_hashENS9_20_Prime_rehash_policyENS9_17_Hashtable_traitsILb0ELb0ELb1EEEE13_M_rehash_auxEySt17integral_constantIbLb1EE"
 "_ZNSt10_HashtableISt6bitsetILy64EESt4pairIKS1_St6vectorIiSaIiEEESaIS7_ENSt8__detail10_Select1stESt8equal_toIS1_ESt4hashIS1_ENS9_18_Mod_range_hashingENS9_20_Default_ranged_hashENS9_20_Prime_rehash_policyENS9_17_Hashtable_traitsILb0ELb0ELb1EEEE19_M_allocate_bucketsEy"
 "_ZNSt10_HashtableISt6bitsetILy64EESt4pairIKS1_St6vectorIiSaIiEEESaIS7_ENSt8__detail10_Select1stESt8equal_toIS1_ESt4hashIS1_ENS9_18_Mod_range_hashingENS9_20_Default_ranged_hashENS9_20_Prime_rehash_policyENS9_17_Hashtable_traitsILb0ELb0ELb1EEEE21_M_deallocate_bucketsEPPNS9_15_Hash_node_baseEy"
 "_ZNSt10_HashtableISt6bitsetILy64EESt4pairIKS1_St6vectorIiSaIiEEESaIS7_ENSt8__detail10_Select1stESt8equal_toIS1_ESt4hashIS1_ENS9_18_Mod_range_hashingENS9_20_Default_ranged_hashENS9_20_Prime_rehash_policyENS9_17_Hashtable_traitsILb0ELb0ELb1EEEE21_M_deallocate_bucketsEv"
 "_ZNSt10_HashtableISt6bitsetILy64EESt4pairIKS1_St6vectorIiSaIiEEESaIS7_ENSt8__detail10_Select1stESt8equal_toIS1_ESt4hashIS1_ENS9_18_Mod_range_hashingENS9_20_Default_ranged_hashENS9_20_Prime_rehash_policyENS9_17_Hashtable_traitsILb0ELb0ELb1EEEE21_M_insert_unique_nodeEyyPNS9_10_Hash_nodeIS7_Lb0EEEy"
 "_ZNSt10_HashtableISt6bitsetILy64EESt4pairIKS1_St6vectorIiSaIiEEESaIS7_ENSt8__detail10_Select1stESt8equal_toIS1_ESt4hashIS1_ENS9_18_Mod_range_hashingENS9_20_Default_ranged_hashENS9_20_Prime_rehash_policyENS9_17_Hashtable_traitsILb0ELb0ELb1EEEE22_M_insert_bucket_beginEyPNS9_10_Hash_nodeIS7_Lb0EEE"
 "_ZNSt10_HashtableISt6bitsetILy64EESt4pairIKS1_St6vectorIiSaIiEEESaIS7_ENSt8__detail10_Select1stESt8equal_toIS1_ESt4hashIS1_ENS9_18_Mod_range_hashingENS9_20_Default_ranged_hashENS9_20_Prime_rehash_policyENS9_17_Hashtable_traitsILb0ELb0ELb1EEEE5clearEv"
 "_ZNSt10_HashtableISt6bitsetILy64EESt4pairIKS1_St6vectorIiSaIiEEESaIS7_ENSt8__detail10_Select1stESt8equal_toIS1_ESt4hashIS1_ENS9_18_Mod_range_hashingENS9_20_Default_ranged_hashENS9_20_Prime_rehash_policyENS9_17_Hashtable_traitsILb0ELb0ELb1EEEE9_M_rehashEyRKy"
 "_ZNSt10_HashtableISt6bitsetILy64EESt4pairIKS1_St6vectorIiSaIiEEESaIS7_ENSt8__detail10_Select1stESt8equal_toIS1_ESt4hashIS1_ENS9_18_Mod_range_hashingENS9_20_Default_ranged_hashENS9_20_Prime_rehash_policyENS9_17_Hashtable_traitsILb0ELb0ELb1EEEEC1Ev"
 "_ZNSt10_HashtableISt6bitsetILy64EESt4pairIKS1_St6vectorIiSaIiEEESaIS7_ENSt8__detail10_Select1stESt8equal_toIS1_ESt4hashIS1_ENS9_18_Mod_range_hashingENS9_20_Default_ranged_hashENS9_20_Prime_rehash_policyENS9_17_Hashtable_traitsILb0ELb0ELb1EEEED1Ev"
 "_ZNSt10_Head_baseILy0ERKSt6bitsetILy64EELb0EE7_M_headERS4_"
 "_ZNSt10_Head_baseILy0ERKSt6bitsetILy64EELb0EEC2ES3_"
 "_ZNSt10shared_ptrIN12llama_ubatch6data_tEEC1EOS2_"
 "_ZNSt10shared_ptrIN12llama_ubatch6data_tEEC1ISaIvEJEEESt20_Sp_alloc_shared_tagIT_EDpOT0_"
 "_ZNSt10shared_ptrIN12llama_ubatch6data_tEED1Ev"
 "_ZNSt11__copy_moveILb0ELb0ESt26random_access_iterator_tagE12__assign_oneIiiEEvPT_PT0_"
 "_ZNSt11__copy_moveILb0ELb0ESt26random_access_iterator_tagE12__assign_oneImmEEvPT_PT0_"
 "_ZNSt11__copy_moveILb0ELb0ESt26random_access_iterator_tagE8__copy_mISt13_Bit_iteratorS3_EET0_T_S5_S4_"
 "_ZNSt11__copy_moveILb0ELb0ESt26random_access_iterator_tagE8__copy_mISt19_Bit_const_iteratorSt13_Bit_iteratorEET0_T_S6_S5_"
 "_ZNSt11__copy_moveILb0ELb1ESt26random_access_iterator_tagE8__copy_mIiiEEPT0_PT_S6_S4_"
 "_ZNSt11__copy_moveILb0ELb1ESt26random_access_iterator_tagE8__copy_mImmEEPT0_PT_S6_S4_"
 "_ZNSt11__copy_moveILb1ELb0ESt26random_access_iterator_tagE12__assign_oneIaaEEvPT_PT0_"
 "_ZNSt11__copy_moveILb1ELb0ESt26random_access_iterator_tagE12__assign_oneIiiEEvPT_PT0_"
 "_ZNSt11__copy_moveILb1ELb1ESt26random_access_iterator_tagE8__copy_mIaaEEPT0_PT_S6_S4_"
 "_ZNSt11__copy_moveILb1ELb1ESt26random_access_iterator_tagE8__copy_mIiiEEPT0_PT_S6_S4_"
 "_ZNSt11_Tuple_implILy0EJRKSt6bitsetILy64EEEE7_M_headERS4_"
 "_ZNSt11_Tuple_implILy0EJRKSt6bitsetILy64EEEEC2EOS4_"
 "_ZNSt11_Tuple_implILy0EJRKSt6bitsetILy64EEEEC2ES3_"
 "_ZNSt12__shared_ptrIN12llama_ubatch6data_tELN9__gnu_cxx12_Lock_policyE2EE31_M_enable_shared_from_this_withIS1_S1_EENSt9enable_ifIXntsrNS4_15__has_esft_baseIT0_vEE5valueEvE4typeEPT_"
 "_ZNSt12__shared_ptrIN12llama_ubatch6data_tELN9__gnu_cxx12_Lock_policyE2EEC2EOS4_"
 "_ZNSt12__shared_ptrIN12llama_ubatch6data_tELN9__gnu_cxx12_Lock_policyE2EEC2ISaIvEJEEESt20_Sp_alloc_shared_tagIT_EDpOT0_"
 "_ZNSt12__shared_ptrIN12llama_ubatch6data_tELN9__gnu_cxx12_Lock_policyE2EED2Ev"
 "_ZNSt12_Base_bitsetILy2EE10_M_getwordEy"
 "_ZNSt12_Base_bitsetILy2EE10_S_maskbitEy"
 "_ZNSt12_Base_bitsetILy2EE11_S_whichbitEy"
 "_ZNSt12_Base_bitsetILy2EE12_S_whichwordEy"
 "_ZNSt12_Base_bitsetILy2EE9_M_do_andERKS0_"
 "_ZNSt12_Base_bitsetILy2EE9_M_do_setEv"
 "_ZNSt12_Base_bitsetILy2EE9_M_hiwordEv"
 "_ZNSt12_Destroy_auxILb0EE9__destroyIPSt3setIiSt4lessIiESaIiEEEEvT_S8_"
 "_ZNSt12_Destroy_auxILb0EE9__destroyIPSt6vectorIbSaIbEEEEvT_S6_"
 "_ZNSt12_Destroy_auxILb0EE9__destroyIPSt6vectorIiSaIiEEEEvT_S6_"
 "_ZNSt12_Destroy_auxILb1EE9__destroyIPaEEvT_S3_"
 "_ZNSt12_Destroy_auxILb1EE9__destroyIPfEEvT_S3_"
 "_ZNSt12_Destroy_auxILb1EE9__destroyIPiEEvT_S3_"
 "_ZNSt12_Destroy_auxILb1EE9__destroyIPPiEEvT_S4_"
 "_ZNSt12_Destroy_auxILb1EE9__destroyIPSt6bitsetILy64EEEEvT_S5_"
 "_ZNSt12_Vector_baseIaSaIaEE11_M_allocateEy"
 "_ZNSt12_Vector_baseIaSaIaEE12_Vector_implC1ERKS0_"
 "_ZNSt12_Vector_baseIaSaIaEE12_Vector_implC1Ev"
 "_ZNSt12_Vector_baseIaSaIaEE12_Vector_implD1Ev"
 "_ZNSt12_Vector_baseIaSaIaEE13_M_deallocateEPay"
 "_ZNSt12_Vector_baseIaSaIaEE17_M_create_storageEy"
 "_ZNSt12_Vector_baseIaSaIaEE17_Vector_impl_dataC2Ev"
 "_ZNSt12_Vector_baseIaSaIaEE19_M_get_Tp_allocatorEv"
 "_ZNSt12_Vector_baseIaSaIaEEC2Ev"
 "_ZNSt12_Vector_baseIaSaIaEEC2EyRKS0_"
 "_ZNSt12_Vector_baseIaSaIaEED2Ev"
 "_ZNSt12_Vector_baseIfSaIfEE11_M_allocateEy"
 "_ZNSt12_Vector_baseIfSaIfEE12_Vector_implC1Ev"
 "_ZNSt12_Vector_baseIfSaIfEE12_Vector_implD1Ev"
 "_ZNSt12_Vector_baseIfSaIfEE13_M_deallocateEPfy"
 "_ZNSt12_Vector_baseIfSaIfEE17_Vector_impl_dataC2Ev"
 "_ZNSt12_Vector_baseIfSaIfEE19_M_get_Tp_allocatorEv"
 "_ZNSt12_Vector_baseIfSaIfEEC2Ev"
 "_ZNSt12_Vector_baseIfSaIfEED2Ev"
 "_ZNSt12_Vector_baseIiSaIiEE11_M_allocateEy"
 "_ZNSt12_Vector_baseIiSaIiEE12_Vector_implC1ERKS0_"
 "_ZNSt12_Vector_baseIiSaIiEE12_Vector_implC1Ev"
 "_ZNSt12_Vector_baseIiSaIiEE12_Vector_implD1Ev"
 "_ZNSt12_Vector_baseIiSaIiEE13_M_deallocateEPiy"
 "_ZNSt12_Vector_baseIiSaIiEE17_M_create_storageEy"
 "_ZNSt12_Vector_baseIiSaIiEE17_Vector_impl_dataC2Ev"
 "_ZNSt12_Vector_baseIiSaIiEE19_M_get_Tp_allocatorEv"
 "_ZNSt12_Vector_baseIiSaIiEEC2Ev"
 "_ZNSt12_Vector_baseIiSaIiEEC2EyRKS0_"
 "_ZNSt12_Vector_baseIiSaIiEED2Ev"
 "_ZNSt12_Vector_baseIPiSaIS0_EE11_M_allocateEy"
 "_ZNSt12_Vector_baseIPiSaIS0_EE12_Vector_implC1Ev"
 "_ZNSt12_Vector_baseIPiSaIS0_EE12_Vector_implD1Ev"
 "_ZNSt12_Vector_baseIPiSaIS0_EE13_M_deallocateEPS0_y"
 "_ZNSt12_Vector_baseIPiSaIS0_EE17_Vector_impl_dataC2Ev"
 "_ZNSt12_Vector_baseIPiSaIS0_EE19_M_get_Tp_allocatorEv"
 "_ZNSt12_Vector_baseIPiSaIS0_EEC2Ev"
 "_ZNSt12_Vector_baseIPiSaIS0_EED2Ev"
 "_ZNSt12_Vector_baseISt3setIiSt4lessIiESaIiEESaIS4_EE11_M_allocateEy"
 "_ZNSt12_Vector_baseISt3setIiSt4lessIiESaIiEESaIS4_EE12_Vector_implC1Ev"
 "_ZNSt12_Vector_baseISt3setIiSt4lessIiESaIiEESaIS4_EE12_Vector_implD1Ev"
 "_ZNSt12_Vector_baseISt3setIiSt4lessIiESaIiEESaIS4_EE13_M_deallocateEPS4_y"
 "_ZNSt12_Vector_baseISt3setIiSt4lessIiESaIiEESaIS4_EE17_Vector_impl_dataC2Ev"
 "_ZNSt12_Vector_baseISt3setIiSt4lessIiESaIiEESaIS4_EE19_M_get_Tp_allocatorEv"
 "_ZNSt12_Vector_baseISt3setIiSt4lessIiESaIiEESaIS4_EEC2Ev"
 "_ZNSt12_Vector_baseISt3setIiSt4lessIiESaIiEESaIS4_EED2Ev"
 "_ZNSt12_Vector_baseISt6bitsetILy64EESaIS1_EE11_M_allocateEy"
 "_ZNSt12_Vector_baseISt6bitsetILy64EESaIS1_EE12_Vector_implC1Ev"
 "_ZNSt12_Vector_baseISt6bitsetILy64EESaIS1_EE12_Vector_implD1Ev"
 "_ZNSt12_Vector_baseISt6bitsetILy64EESaIS1_EE13_M_deallocateEPS1_y"
 "_ZNSt12_Vector_baseISt6bitsetILy64EESaIS1_EE17_Vector_impl_dataC2Ev"
 "_ZNSt12_Vector_baseISt6bitsetILy64EESaIS1_EE19_M_get_Tp_allocatorEv"
 "_ZNSt12_Vector_baseISt6bitsetILy64EESaIS1_EEC2Ev"
 "_ZNSt12_Vector_baseISt6bitsetILy64EESaIS1_EED2Ev"
 "_ZNSt12_Vector_baseISt6vectorIbSaIbEESaIS2_EE11_M_allocateEy"
 "_ZNSt12_Vector_baseISt6vectorIbSaIbEESaIS2_EE12_Vector_implC1Ev"
 "_ZNSt12_Vector_baseISt6vectorIbSaIbEESaIS2_EE12_Vector_implD1Ev"
 "_ZNSt12_Vector_baseISt6vectorIbSaIbEESaIS2_EE13_M_deallocateEPS2_y"
 "_ZNSt12_Vector_baseISt6vectorIbSaIbEESaIS2_EE17_Vector_impl_dataC2Ev"
 "_ZNSt12_Vector_baseISt6vectorIbSaIbEESaIS2_EE19_M_get_Tp_allocatorEv"
 "_ZNSt12_Vector_baseISt6vectorIbSaIbEESaIS2_EEC2Ev"
 "_ZNSt12_Vector_baseISt6vectorIbSaIbEESaIS2_EED2Ev"
 "_ZNSt12_Vector_baseISt6vectorIiSaIiEESaIS2_EE11_M_allocateEy"
 "_ZNSt12_Vector_baseISt6vectorIiSaIiEESaIS2_EE12_Vector_implC1ERKS3_"
 "_ZNSt12_Vector_baseISt6vectorIiSaIiEESaIS2_EE12_Vector_implD1Ev"
 "_ZNSt12_Vector_baseISt6vectorIiSaIiEESaIS2_EE13_M_deallocateEPS2_y"
 "_ZNSt12_Vector_baseISt6vectorIiSaIiEESaIS2_EE17_M_create_storageEy"
 "_ZNSt12_Vector_baseISt6vectorIiSaIiEESaIS2_EE17_Vector_impl_dataC2Ev"
 "_ZNSt12_Vector_baseISt6vectorIiSaIiEESaIS2_EE19_M_get_Tp_allocatorEv"
 "_ZNSt12_Vector_baseISt6vectorIiSaIiEESaIS2_EEC2EyRKS3_"
 "_ZNSt12_Vector_baseISt6vectorIiSaIiEESaIS2_EED2Ev"
 "_ZNSt13_Bit_iteratorC1EPmj"
 "_ZNSt13_Bit_iteratorC1Ev"
 "_ZNSt13_Bit_iteratormmEv"
 "_ZNSt13_Bit_iteratorpLEx"
 "_ZNSt13_Bit_iteratorppEv"
 "_ZNSt13_Bvector_baseISaIbEE11_M_allocateEy"
 "_ZNSt13_Bvector_baseISaIbEE13_Bvector_implC1EOS2_"
 "_ZNSt13_Bvector_baseISaIbEE13_Bvector_implC1Ev"
 "_ZNSt13_Bvector_baseISaIbEE13_Bvector_implD1Ev"
 "_ZNSt13_Bvector_baseISaIbEE13_M_deallocateEv"
 "_ZNSt13_Bvector_baseISaIbEE18_Bvector_impl_data8_M_resetEv"
 "_ZNSt13_Bvector_baseISaIbEE18_Bvector_impl_dataC1Ev"
 "_ZNSt13_Bvector_baseISaIbEE18_Bvector_impl_dataC2EOS2_"
 "_ZNSt13_Bvector_baseISaIbEE18_Bvector_impl_dataC2Ev"
 "_ZNSt13_Bvector_baseISaIbEE8_S_nwordEy"
 "_ZNSt13_Bvector_baseISaIbEEC2EOS1_"
 "_ZNSt13_Bvector_baseISaIbEEC2Ev"
 "_ZNSt13_Bvector_baseISaIbEED2Ev"
 "_ZNSt13_Rb_tree_nodeIiE9_M_valptrEv"
 "_ZNSt13move_iteratorIPaEC1ES0_"
 "_ZNSt13move_iteratorIPiEC1ES0_"
 "_ZNSt13unordered_mapISt6bitsetILy64EESt6vectorIiSaIiEESt4hashIS1_ESt8equal_toIS1_ESaISt4pairIKS1_S4_EEE5clearEv"
 "_ZNSt13unordered_mapISt6bitsetILy64EESt6vectorIiSaIiEESt4hashIS1_ESt8equal_toIS1_ESaISt4pairIKS1_S4_EEEC1Ev"
 "_ZNSt13unordered_mapISt6bitsetILy64EESt6vectorIiSaIiEESt4hashIS1_ESt8equal_toIS1_ESaISt4pairIKS1_S4_EEED1Ev"
 "_ZNSt13unordered_mapISt6bitsetILy64EESt6vectorIiSaIiEESt4hashIS1_ESt8equal_toIS1_ESaISt4pairIKS1_S4_EEEixERSA_"
 "_ZNSt14__shared_countILN9__gnu_cxx12_Lock_policyE2EE7_M_swapERS2_"
 "_ZNSt14__shared_countILN9__gnu_cxx12_Lock_policyE2EEC1Ev"
 "_ZNSt14__shared_countILN9__gnu_cxx12_Lock_policyE2EEC1IN12llama_ubatch6data_tESaIvEJEEERPT_St20_Sp_alloc_shared_tagIT0_EDpOT1_"
 "_ZNSt14__shared_countILN9__gnu_cxx12_Lock_policyE2EED1Ev"
 "_ZNSt14_Bit_referenceaSEb"
 "_ZNSt14_Bit_referenceaSERKS_"
 "_ZNSt14_Bit_referenceC1EPmm"
 "_ZNSt14_Sp_ebo_helperILi0ESaIvELb1EE6_S_getERS1_"
 "_ZNSt14_Sp_ebo_helperILi0ESaIvELb1EEC2ERKS0_"
 "_ZNSt15__allocated_ptrISaISt23_Sp_counted_ptr_inplaceIN12llama_ubatch6data_tESaIvELN9__gnu_cxx12_Lock_policyE2EEEE3getEv"
 "_ZNSt15__allocated_ptrISaISt23_Sp_counted_ptr_inplaceIN12llama_ubatch6data_tESaIvELN9__gnu_cxx12_Lock_policyE2EEEEaSEDn"
 "_ZNSt15__allocated_ptrISaISt23_Sp_counted_ptr_inplaceIN12llama_ubatch6data_tESaIvELN9__gnu_cxx12_Lock_policyE2EEEEC1ERS7_PS6_"
 "_ZNSt15__allocated_ptrISaISt23_Sp_counted_ptr_inplaceIN12llama_ubatch6data_tESaIvELN9__gnu_cxx12_Lock_policyE2EEEED1Ev"
 "_ZNSt15__new_allocatorIaE10deallocateEPay"
 "_ZNSt15__new_allocatorIaE8allocateEyPKv"
 "_ZNSt15__new_allocatorIaED2Ev"
 "_ZNSt15__new_allocatorIfE10deallocateEPfy"
 "_ZNSt15__new_allocatorIfE8allocateEyPKv"
 "_ZNSt15__new_allocatorIfED2Ev"
 "_ZNSt15__new_allocatorIiE10deallocateEPiy"
 "_ZNSt15__new_allocatorIiE8allocateEyPKv"
 "_ZNSt15__new_allocatorIiED2Ev"
 "_ZNSt15__new_allocatorImE10deallocateEPmy"
 "_ZNSt15__new_allocatorImE8allocateEyPKv"
 "_ZNSt15__new_allocatorImED2Ev"
 "_ZNSt15__new_allocatorINSt8__detail10_Hash_nodeISt4pairIKSt6bitsetILy64EESt6vectorIiSaIiEEELb0EEEE10deallocateEPSA_y"
 "_ZNSt15__new_allocatorINSt8__detail10_Hash_nodeISt4pairIKSt6bitsetILy64EESt6vectorIiSaIiEEELb0EEEE8allocateEyPKv"
 "_ZNSt15__new_allocatorINSt8__detail10_Hash_nodeISt4pairIKSt6bitsetILy64EESt6vectorIiSaIiEEELb0EEEED2Ev"
 "_ZNSt15__new_allocatorIPiE10deallocateEPS0_y"
 "_ZNSt15__new_allocatorIPiE8allocateEyPKv"
 "_ZNSt15__new_allocatorIPiED2Ev"
 "_ZNSt15__new_allocatorIPNSt8__detail15_Hash_node_baseEE10deallocateEPS2_y"
 "_ZNSt15__new_allocatorIPNSt8__detail15_Hash_node_baseEE8allocateEyPKv"
 "_ZNSt15__new_allocatorIPNSt8__detail15_Hash_node_baseEED2Ev"
 "_ZNSt15__new_allocatorISt13_Rb_tree_nodeIiEE10deallocateEPS1_y"
 "_ZNSt15__new_allocatorISt13_Rb_tree_nodeIiEE8allocateEyPKv"
 "_ZNSt15__new_allocatorISt13_Rb_tree_nodeIiEED2Ev"
 "_ZNSt15__new_allocatorISt23_Sp_counted_ptr_inplaceIN12llama_ubatch6data_tESaIvELN9__gnu_cxx12_Lock_policyE2EEE10deallocateEPS6_y"
 "_ZNSt15__new_allocatorISt23_Sp_counted_ptr_inplaceIN12llama_ubatch6data_tESaIvELN9__gnu_cxx12_Lock_policyE2EEE8allocateEyPKv"
 "_ZNSt15__new_allocatorISt23_Sp_counted_ptr_inplaceIN12llama_ubatch6data_tESaIvELN9__gnu_cxx12_Lock_policyE2EEED2Ev"
 "_ZNSt15__new_allocatorISt3setIiSt4lessIiESaIiEEE10deallocateEPS4_y"
 "_ZNSt15__new_allocatorISt3setIiSt4lessIiESaIiEEE8allocateEyPKv"
 "_ZNSt15__new_allocatorISt3setIiSt4lessIiESaIiEEED2Ev"
 "_ZNSt15__new_allocatorISt6bitsetILy64EEE10deallocateEPS1_y"
 "_ZNSt15__new_allocatorISt6bitsetILy64EEE8allocateEyPKv"
 "_ZNSt15__new_allocatorISt6bitsetILy64EEED2Ev"
 "_ZNSt15__new_allocatorISt6vectorIbSaIbEEE10deallocateEPS2_y"
 "_ZNSt15__new_allocatorISt6vectorIbSaIbEEE8allocateEyPKv"
 "_ZNSt15__new_allocatorISt6vectorIbSaIbEEED2Ev"
 "_ZNSt15__new_allocatorISt6vectorIiSaIiEEE10deallocateEPS2_y"
 "_ZNSt15__new_allocatorISt6vectorIiSaIiEEE8allocateEyPKv"
 "_ZNSt15__new_allocatorISt6vectorIiSaIiEEED2Ev"
 "_ZNSt15_Rb_tree_header12_M_move_dataERS_"
 "_ZNSt15_Rb_tree_header8_M_resetEv"
 "_ZNSt15_Rb_tree_headerC2EOS_"
 "_ZNSt15_Rb_tree_headerC2Ev"
 "_ZNSt16_Sp_counted_baseILN9__gnu_cxx12_Lock_policyE2EE10_M_destroyEv"
 "_ZNSt16_Sp_counted_baseILN9__gnu_cxx12_Lock_policyE2EE10_M_releaseEv"
 "_ZNSt16_Sp_counted_baseILN9__gnu_cxx12_Lock_policyE2EE19_M_release_last_useEv"
 "_ZNSt16_Sp_counted_baseILN9__gnu_cxx12_Lock_policyE2EE24_M_release_last_use_coldEv"
 "_ZNSt16_Sp_counted_baseILN9__gnu_cxx12_Lock_policyE2EEC2Ev"
 "_ZNSt16_Sp_counted_baseILN9__gnu_cxx12_Lock_policyE2EED2Ev"
 "_ZNSt16reverse_iteratorISt23_Rb_tree_const_iteratorIiEEC1ES1_"
 "_ZNSt17_Rb_tree_iteratorIiEC1EPSt18_Rb_tree_node_base"
 "_ZNSt17_Rb_tree_iteratorIiEmmEv"
 "_ZNSt18_Bit_iterator_base10_M_bump_upEv"
 "_ZNSt18_Bit_iterator_base12_M_bump_downEv"
 "_ZNSt18_Bit_iterator_base7_M_incrEx"
 "_ZNSt18_Bit_iterator_baseC2EPmj"
 "_ZNSt19__ptr_traits_ptr_toIPNSt8__detail10_Hash_nodeISt4pairIKSt6bitsetILy64EESt6vectorIiSaIiEEELb0EEESA_Lb0EE10pointer_toERSA_"
 "_ZNSt19__ptr_traits_ptr_toIPPNSt8__detail15_Hash_node_baseES2_Lb0EE10pointer_toERS2_"
 "_ZNSt19_Bit_const_iteratorC1EPmj"
 "_ZNSt19_Bit_const_iteratorC1ERKSt13_Bit_iterator"
 "_ZNSt19_Bit_const_iteratorppEv"
 "_ZNSt19_Sp_make_shared_tag5_S_tiEv"
 "_ZNSt20__copy_move_backwardILb0ELb0ESt26random_access_iterator_tagE13__copy_move_bISt13_Bit_iteratorS3_EET0_T_S5_S4_"
 "_ZNSt20__copy_move_backwardILb1ELb1ESt26random_access_iterator_tagE13__copy_move_bIaaEEPT0_PT_S6_S4_"
 "_ZNSt20__copy_move_backwardILb1ELb1ESt26random_access_iterator_tagE13__copy_move_bIiiEEPT0_PT_S6_S4_"
 "_ZNSt20__uninitialized_copyILb1EE13__uninit_copyIN9__gnu_cxx17__normal_iteratorIPiSt6vectorIiSaIiEEEES4_EET0_T_SA_S9_"
 "_ZNSt20__uninitialized_copyILb1EE13__uninit_copyISt13move_iteratorIPaES3_EET0_T_S6_S5_"
 "_ZNSt20__uninitialized_copyILb1EE13__uninit_copyISt13move_iteratorIPiES3_EET0_T_S6_S5_"
 "_ZNSt20_Rb_tree_key_compareISt4lessIiEEC2EOS2_"
 "_ZNSt20_Rb_tree_key_compareISt4lessIiEEC2Ev"
 "_ZNSt22__uninitialized_fill_nILb1EE15__uninit_fill_nIPayaEET_S3_T0_RKT1_"
 "_ZNSt22__uninitialized_fill_nILb1EE15__uninit_fill_nIPiyiEET_S3_T0_RKT1_"
 "_ZNSt23_Rb_tree_const_iteratorIiEC1EPKSt18_Rb_tree_node_base"
 "_ZNSt23_Rb_tree_const_iteratorIiEC1ERKSt17_Rb_tree_iteratorIiE"
 "_ZNSt23_Rb_tree_const_iteratorIiEmmEv"
 "_ZNSt23_Sp_counted_ptr_inplaceIN12llama_ubatch6data_tESaIvELN9__gnu_cxx12_Lock_policyE2EE10_M_destroyEv"
 "_ZNSt23_Sp_counted_ptr_inplaceIN12llama_ubatch6data_tESaIvELN9__gnu_cxx12_Lock_policyE2EE10_M_disposeEv"
 "_ZNSt23_Sp_counted_ptr_inplaceIN12llama_ubatch6data_tESaIvELN9__gnu_cxx12_Lock_policyE2EE14_M_get_deleterERKSt9type_info"
 "_ZNSt23_Sp_counted_ptr_inplaceIN12llama_ubatch6data_tESaIvELN9__gnu_cxx12_Lock_policyE2EE5_Impl8_M_allocEv"
 "_ZNSt23_Sp_counted_ptr_inplaceIN12llama_ubatch6data_tESaIvELN9__gnu_cxx12_Lock_policyE2EE5_ImplC1ES2_"
 "_ZNSt23_Sp_counted_ptr_inplaceIN12llama_ubatch6data_tESaIvELN9__gnu_cxx12_Lock_policyE2EE6_M_ptrEv"
 "_ZNSt23_Sp_counted_ptr_inplaceIN12llama_ubatch6data_tESaIvELN9__gnu_cxx12_Lock_policyE2EEC1IJEEES2_DpOT_"
 "_ZNSt23_Sp_counted_ptr_inplaceIN12llama_ubatch6data_tESaIvELN9__gnu_cxx12_Lock_policyE2EED0Ev"
 "_ZNSt23_Sp_counted_ptr_inplaceIN12llama_ubatch6data_tESaIvELN9__gnu_cxx12_Lock_policyE2EED1Ev"
 "_ZNSt27__uninitialized_default_n_1ILb0EE18__uninit_default_nIPSt3setIiSt4lessIiESaIiEEyEET_S8_T0_"
 "_ZNSt27__uninitialized_default_n_1ILb0EE18__uninit_default_nIPSt6vectorIbSaIbEEyEET_S6_T0_"
 "_ZNSt27__uninitialized_default_n_1ILb0EE18__uninit_default_nIPSt6vectorIiSaIiEEyEET_S6_T0_"
 "_ZNSt27__uninitialized_default_n_1ILb1EE18__uninit_default_nIPayEET_S3_T0_"
 "_ZNSt27__uninitialized_default_n_1ILb1EE18__uninit_default_nIPfyEET_S3_T0_"
 "_ZNSt27__uninitialized_default_n_1ILb1EE18__uninit_default_nIPiyEET_S3_T0_"
 "_ZNSt27__uninitialized_default_n_1ILb1EE18__uninit_default_nIPPiyEET_S4_T0_"
 "_ZNSt3setIiSt4lessIiESaIiEE5clearEv"
 "_ZNSt3setIiSt4lessIiESaIiEE6insertERKi"
 "_ZNSt3setIiSt4lessIiESaIiEEC1EOS3_"
 "_ZNSt3setIiSt4lessIiESaIiEEC1Ev"
 "_ZNSt3setIiSt4lessIiESaIiEED1Ev"
 "_ZNSt4pairIKSt6bitsetILy64EESt6vectorIiSaIiEEEC1IJRS2_EJEEESt21piecewise_construct_tSt5tupleIJDpT_EESA_IJDpT0_EE"
 "_ZNSt4pairIKSt6bitsetILy64EESt6vectorIiSaIiEEEC1IJRS2_EJLy0EEJEJEEERSt5tupleIJDpT_EERS9_IJDpT1_EESt12_Index_tupleIJXspT0_EEESI_IJXspT2_EEE"
 "_ZNSt4pairIKSt6bitsetILy64EESt6vectorIiSaIiEEED1Ev"
 "_ZNSt4pairIPSt18_Rb_tree_node_baseS1_EC1IRPSt13_Rb_tree_nodeIiERS1_Lb1EEEOT_OT0_"
 "_ZNSt4pairIPSt18_Rb_tree_node_baseS1_EC1IS1_S1_Lb1EEERKS1_S5_"
 "_ZNSt4pairISt17_Rb_tree_iteratorIiEbEC1IS1_bLb1EEEOT_OT0_"
 "_ZNSt4pairISt23_Rb_tree_const_iteratorIiEbEC1IRSt17_Rb_tree_iteratorIiERbLb1EEEOT_OT0_"
 "_ZNSt5tupleIJRKSt6bitsetILy64EEEEC1EOS4_"
 "_ZNSt5tupleIJRKSt6bitsetILy64EEEEC1ILb1ELb1EEES3_"
 "_ZNSt6bitsetILy64EE14_M_do_sanitizeEv"
 "_ZNSt6bitsetILy64EE14_Unchecked_setEyi"
 "_ZNSt6bitsetILy64EE3setEv"
 "_ZNSt6bitsetILy64EE3setEyb"
 "_ZNSt6bitsetILy64EEaNERKS0_"
 "_ZNSt6vectorIaSaIaEE11_S_max_sizeERKS0_"
 "_ZNSt6vectorIaSaIaEE11_S_relocateEPaS2_S2_RS0_"
 "_ZNSt6vectorIaSaIaEE14_M_fill_insertEN9__gnu_cxx17__normal_iteratorIPaS1_EEyRKa"
 "_ZNSt6vectorIaSaIaEE15_M_erase_at_endEPa"
 "_ZNSt6vectorIaSaIaEE16_Temporary_value6_M_ptrEv"
 "_ZNSt6vectorIaSaIaEE16_Temporary_value6_M_valEv"
 "_ZNSt6vectorIaSaIaEE16_Temporary_value8_StorageC1Ev"
 "_ZNSt6vectorIaSaIaEE16_Temporary_value8_StorageD1Ev"
 "_ZNSt6vectorIaSaIaEE16_Temporary_valueC1IJRKaEEEPS1_DpOT_"
 "_ZNSt6vectorIaSaIaEE16_Temporary_valueD1Ev"
 "_ZNSt6vectorIaSaIaEE17_M_default_appendEy"
 "_ZNSt6vectorIaSaIaEE17_S_check_init_lenEyRKS0_"
 "_ZNSt6vectorIaSaIaEE21_M_default_initializeEy"
 "_ZNSt6vectorIaSaIaEE3endEv"
 "_ZNSt6vectorIaSaIaEE4dataEv"
 "_ZNSt6vectorIaSaIaEE5clearEv"
 "_ZNSt6vectorIaSaIaEE6resizeEy"
 "_ZNSt6vectorIaSaIaEE6resizeEyRKa"
 "_ZNSt6vectorIaSaIaEEC1Ev"
 "_ZNSt6vectorIaSaIaEEC1EyRKS0_"
 "_ZNSt6vectorIaSaIaEED1Ev"
 "_ZNSt6vectorIaSaIaEEixEy"
 "_ZNSt6vectorIbSaIbEE14_M_fill_insertESt13_Bit_iteratoryb"
 "_ZNSt6vectorIbSaIbEE15_M_copy_alignedESt19_Bit_const_iteratorS2_St13_Bit_iterator"
 "_ZNSt6vectorIbSaIbEE15_M_erase_at_endESt13_Bit_iterator"
 "_ZNSt6vectorIbSaIbEE3endEv"
 "_ZNSt6vectorIbSaIbEE5beginEv"
 "_ZNSt6vectorIbSaIbEE5clearEv"
 "_ZNSt6vectorIbSaIbEE6insertESt19_Bit_const_iteratoryRKb"
 "_ZNSt6vectorIbSaIbEE6resizeEyb"
 "_ZNSt6vectorIbSaIbEEC1EOS1_"
 "_ZNSt6vectorIbSaIbEEC1Ev"
 "_ZNSt6vectorIbSaIbEED1Ev"
 "_ZNSt6vectorIbSaIbEEixEy"
 "_ZNSt6vectorIfSaIfEE11_S_max_sizeERKS0_"
 "_ZNSt6vectorIfSaIfEE11_S_relocateEPfS2_S2_RS0_"
 "_ZNSt6vectorIfSaIfEE15_M_erase_at_endEPf"
 "_ZNSt6vectorIfSaIfEE17_M_default_appendEy"
 "_ZNSt6vectorIfSaIfEE4dataEv"
 "_ZNSt6vectorIfSaIfEE5clearEv"
 "_ZNSt6vectorIfSaIfEE6resizeEy"
 "_ZNSt6vectorIfSaIfEEC1Ev"
 "_ZNSt6vectorIfSaIfEED1Ev"
 "_ZNSt6vectorIiSaIiEE11_S_max_sizeERKS0_"
 "_ZNSt6vectorIiSaIiEE11_S_relocateEPiS2_S2_RS0_"
 "_ZNSt6vectorIiSaIiEE12emplace_backIJiEEERiDpOT_"
 "_ZNSt6vectorIiSaIiEE14_M_fill_insertEN9__gnu_cxx17__normal_iteratorIPiS1_EEyRKi"
 "_ZNSt6vectorIiSaIiEE15_M_erase_at_endEPi"
 "_ZNSt6vectorIiSaIiEE15_M_range_insertIN9__gnu_cxx17__normal_iteratorIPiS1_EEEEvS6_T_S7_St20forward_iterator_tag"
 "_ZNSt6vectorIiSaIiEE16_Temporary_value6_M_ptrEv"
 "_ZNSt6vectorIiSaIiEE16_Temporary_value6_M_valEv"
 "_ZNSt6vectorIiSaIiEE16_Temporary_value8_StorageC1Ev"
 "_ZNSt6vectorIiSaIiEE16_Temporary_value8_StorageD1Ev"
 "_ZNSt6vectorIiSaIiEE16_Temporary_valueC1IJRKiEEEPS1_DpOT_"
 "_ZNSt6vectorIiSaIiEE16_Temporary_valueD1Ev"
 "_ZNSt6vectorIiSaIiEE17_M_default_appendEy"
 "_ZNSt6vectorIiSaIiEE17_M_realloc_insertIJiEEEvN9__gnu_cxx17__normal_iteratorIPiS1_EEDpOT_"
 "_ZNSt6vectorIiSaIiEE17_M_realloc_insertIJRKiEEEvN9__gnu_cxx17__normal_iteratorIPiS1_EEDpOT_"
 "_ZNSt6vectorIiSaIiEE17_S_check_init_lenEyRKS0_"
 "_ZNSt6vectorIiSaIiEE18_M_fill_initializeEyRKi"
 "_ZNSt6vectorIiSaIiEE3endEv"
 "_ZNSt6vectorIiSaIiEE4backEv"
 "_ZNSt6vectorIiSaIiEE4dataEv"
 "_ZNSt6vectorIiSaIiEE5beginEv"
 "_ZNSt6vectorIiSaIiEE5clearEv"
 "_ZNSt6vectorIiSaIiEE6insertIN9__gnu_cxx17__normal_iteratorIPiS1_EEvEES6_NS4_IPKiS1_EET_SA_"
 "_ZNSt6vectorIiSaIiEE6resizeEy"
 "_ZNSt6vectorIiSaIiEE6resizeEyRKi"
 "_ZNSt6vectorIiSaIiEE9push_backEOi"
 "_ZNSt6vectorIiSaIiEE9push_backERKi"
 "_ZNSt6vectorIiSaIiEEC1Ev"
 "_ZNSt6vectorIiSaIiEEC1EyRKiRKS0_"
 "_ZNSt6vectorIiSaIiEED1Ev"
 "_ZNSt6vectorIiSaIiEEixEy"
 "_ZNSt6vectorIPiSaIS0_EE11_S_max_sizeERKS1_"
 "_ZNSt6vectorIPiSaIS0_EE11_S_relocateEPS0_S3_S3_RS1_"
 "_ZNSt6vectorIPiSaIS0_EE15_M_erase_at_endEPS0_"
 "_ZNSt6vectorIPiSaIS0_EE17_M_default_appendEy"
 "_ZNSt6vectorIPiSaIS0_EE4dataEv"
 "_ZNSt6vectorIPiSaIS0_EE5clearEv"
 "_ZNSt6vectorIPiSaIS0_EE6resizeEy"
 "_ZNSt6vectorIPiSaIS0_EEC1Ev"
 "_ZNSt6vectorIPiSaIS0_EED1Ev"
 "_ZNSt6vectorIPiSaIS0_EEixEy"
 "_ZNSt6vectorIS_IbSaIbEESaIS1_EE11_S_max_sizeERKS2_"
 "_ZNSt6vectorIS_IbSaIbEESaIS1_EE11_S_relocateEPS1_S4_S4_RS2_"
 "_ZNSt6vectorIS_IbSaIbEESaIS1_EE15_M_erase_at_endEPS1_"
 "_ZNSt6vectorIS_IbSaIbEESaIS1_EE17_M_default_appendEy"
 "_ZNSt6vectorIS_IbSaIbEESaIS1_EE3endEv"
 "_ZNSt6vectorIS_IbSaIbEESaIS1_EE5beginEv"
 "_ZNSt6vectorIS_IbSaIbEESaIS1_EE6resizeEy"
 "_ZNSt6vectorIS_IbSaIbEESaIS1_EEC1Ev"
 "_ZNSt6vectorIS_IbSaIbEESaIS1_EED1Ev"
 "_ZNSt6vectorIS_IbSaIbEESaIS1_EEixEy"
 "_ZNSt6vectorIS_IiSaIiEESaIS1_EE11_S_max_sizeERKS2_"
 "_ZNSt6vectorIS_IiSaIiEESaIS1_EE17_S_check_init_lenEyRKS2_"
 "_ZNSt6vectorIS_IiSaIiEESaIS1_EE21_M_default_initializeEy"
 "_ZNSt6vectorIS_IiSaIiEESaIS1_EEC1EyRKS2_"
 "_ZNSt6vectorIS_IiSaIiEESaIS1_EED1Ev"
 "_ZNSt6vectorIS_IiSaIiEESaIS1_EEixEy"
 "_ZNSt6vectorISt3setIiSt4lessIiESaIiEESaIS4_EE11_S_max_sizeERKS5_"
 "_ZNSt6vectorISt3setIiSt4lessIiESaIiEESaIS4_EE11_S_relocateEPS4_S7_S7_RS5_"
 "_ZNSt6vectorISt3setIiSt4lessIiESaIiEESaIS4_EE15_M_erase_at_endEPS4_"
 "_ZNSt6vectorISt3setIiSt4lessIiESaIiEESaIS4_EE17_M_default_appendEy"
 "_ZNSt6vectorISt3setIiSt4lessIiESaIiEESaIS4_EE3endEv"
 "_ZNSt6vectorISt3setIiSt4lessIiESaIiEESaIS4_EE5beginEv"
 "_ZNSt6vectorISt3setIiSt4lessIiESaIiEESaIS4_EE6resizeEy"
 "_ZNSt6vectorISt3setIiSt4lessIiESaIiEESaIS4_EEC1Ev"
 "_ZNSt6vectorISt3setIiSt4lessIiESaIiEESaIS4_EED1Ev"
 "_ZNSt6vectorISt3setIiSt4lessIiESaIiEESaIS4_EEixEy"
 "_ZNSt6vectorISt6bitsetILy64EESaIS1_EE11_S_max_sizeERKS2_"
 "_ZNSt6vectorISt6bitsetILy64EESaIS1_EE11_S_relocateEPS1_S4_S4_RS2_"
 "_ZNSt6vectorISt6bitsetILy64EESaIS1_EE15_M_erase_at_endEPS1_"
 "_ZNSt6vectorISt6bitsetILy64EESaIS1_EE17_M_realloc_insertIJRKS1_EEEvN9__gnu_cxx17__normal_iteratorIPS1_S3_EEDpOT_"
 "_ZNSt6vectorISt6bitsetILy64EESaIS1_EE3endEv"
 "_ZNSt6vectorISt6bitsetILy64EESaIS1_EE5beginEv"
 "_ZNSt6vectorISt6bitsetILy64EESaIS1_EE5clearEv"
 "_ZNSt6vectorISt6bitsetILy64EESaIS1_EE9push_backERKS1_"
 "_ZNSt6vectorISt6bitsetILy64EESaIS1_EEC1Ev"
 "_ZNSt6vectorISt6bitsetILy64EESaIS1_EED1Ev"
 "_ZNSt6vectorISt6bitsetILy64EESaIS1_EEixEy"
 "_ZNSt8__detail10_Hash_nodeISt4pairIKSt6bitsetILy64EESt6vectorIiSaIiEEELb0EEC1Ev"
 "_ZNSt8__detail14_Node_iteratorISt4pairIKSt6bitsetILy64EESt6vectorIiSaIiEEELb0ELb0EEC1EPNS_10_Hash_nodeIS8_Lb0EEE"
 "_ZNSt8__detail15_Hash_code_baseISt6bitsetILy64EESt4pairIKS2_St6vectorIiSaIiEEENS_10_Select1stESt4hashIS2_ENS_18_Mod_range_hashingENS_20_Default_ranged_hashELb0EEC2Ev"
 "_ZNSt8__detail15_Hash_node_baseC1Ev"
 "_ZNSt8__detail15_Hash_node_baseC2Ev"
 "_ZNSt8__detail15_Hashtable_baseISt6bitsetILy64EESt4pairIKS2_St6vectorIiSaIiEEENS_10_Select1stESt8equal_toIS2_ESt4hashIS2_ENS_18_Mod_range_hashingENS_20_Default_ranged_hashENS_17_Hashtable_traitsILb0ELb0ELb1EEEE9_S_equalsEyRKNS_21_Hash_node_code_cacheILb0EEE"
 "_ZNSt8__detail15_Hashtable_baseISt6bitsetILy64EESt4pairIKS2_St6vectorIiSaIiEEENS_10_Select1stESt8equal_toIS2_ESt4hashIS2_ENS_18_Mod_range_hashingENS_20_Default_ranged_hashENS_17_Hashtable_traitsILb0ELb0ELb1EEEEC2Ev"
 "_ZNSt8__detail16_Hashtable_allocISaINS_10_Hash_nodeISt4pairIKSt6bitsetILy64EESt6vectorIiSaIiEEELb0EEEEE16_M_allocate_nodeIJRKSt21piecewise_construct_tSt5tupleIJRS5_EESH_IJEEEEEPSA_DpOT_"
 "_ZNSt8__detail16_Hashtable_allocISaINS_10_Hash_nodeISt4pairIKSt6bitsetILy64EESt6vectorIiSaIiEEELb0EEEEE17_M_node_allocatorEv"
 "_ZNSt8__detail16_Hashtable_allocISaINS_10_Hash_nodeISt4pairIKSt6bitsetILy64EESt6vectorIiSaIiEEELb0EEEEE18_M_deallocate_nodeEPSA_"
 "_ZNSt8__detail16_Hashtable_allocISaINS_10_Hash_nodeISt4pairIKSt6bitsetILy64EESt6vectorIiSaIiEEELb0EEEEE19_M_allocate_bucketsEy"
 "_ZNSt8__detail16_Hashtable_allocISaINS_10_Hash_nodeISt4pairIKSt6bitsetILy64EESt6vectorIiSaIiEEELb0EEEEE19_M_deallocate_nodesEPSA_"
 "_ZNSt8__detail16_Hashtable_allocISaINS_10_Hash_nodeISt4pairIKSt6bitsetILy64EESt6vectorIiSaIiEEELb0EEEEE21_M_deallocate_bucketsEPPNS_15_Hash_node_baseEy"
 "_ZNSt8__detail16_Hashtable_allocISaINS_10_Hash_nodeISt4pairIKSt6bitsetILy64EESt6vectorIiSaIiEEELb0EEEEE22_M_deallocate_node_ptrEPSA_"
 "_ZNSt8__detail16_Hashtable_allocISaINS_10_Hash_nodeISt4pairIKSt6bitsetILy64EESt6vectorIiSaIiEEELb0EEEEEC2Ev"
 "_ZNSt8__detail16_Hashtable_allocISaINS_10_Hash_nodeISt4pairIKSt6bitsetILy64EESt6vectorIiSaIiEEELb0EEEEED2Ev"
 "_ZNSt8__detail19_Node_iterator_baseISt4pairIKSt6bitsetILy64EESt6vectorIiSaIiEEELb0EEC2EPNS_10_Hash_nodeIS8_Lb0EEE"
 "_ZNSt8__detail20_Prime_rehash_policy8_M_resetEy"
 "_ZNSt8__detail20_Prime_rehash_policyC1Ef"
 "_ZNSt8__detail21_Hashtable_ebo_helperILi0ESaINS_10_Hash_nodeISt4pairIKSt6bitsetILy64EESt6vectorIiSaIiEEELb0EEEELb1EE6_M_getEv"
 "_ZNSt8__detail21_Hashtable_ebo_helperILi0ESaINS_10_Hash_nodeISt4pairIKSt6bitsetILy64EESt6vectorIiSaIiEEELb0EEEELb1EEC2Ev"
 "_ZNSt8__detail21_Hashtable_ebo_helperILi0ESaINS_10_Hash_nodeISt4pairIKSt6bitsetILy64EESt6vectorIiSaIiEEELb0EEEELb1EED2Ev"
 "_ZNSt8__detail21_Hashtable_ebo_helperILi0ESt8equal_toISt6bitsetILy64EEELb1EEC2Ev"
 "_ZNSt8__detail21_Hashtable_ebo_helperILi1ESt4hashISt6bitsetILy64EEELb1EEC2Ev"
 "_ZNSt8__detail9_Map_baseISt6bitsetILy64EESt4pairIKS2_St6vectorIiSaIiEEESaIS8_ENS_10_Select1stESt8equal_toIS2_ESt4hashIS2_ENS_18_Mod_range_hashingENS_20_Default_ranged_hashENS_20_Prime_rehash_policyENS_17_Hashtable_traitsILb0ELb0ELb1EEELb1EEixERS4_"
 "_ZNSt8_Rb_treeIiiSt9_IdentityIiESt4lessIiESaIiEE10_M_insert_IRKiNS5_11_Alloc_nodeEEESt17_Rb_tree_iteratorIiEPSt18_Rb_tree_node_baseSD_OT_RT0_"
 "_ZNSt8_Rb_treeIiiSt9_IdentityIiESt4lessIiESaIiEE11_Alloc_nodeC1ERS5_"
 "_ZNSt8_Rb_treeIiiSt9_IdentityIiESt4lessIiESaIiEE11_M_get_nodeEv"
 "_ZNSt8_Rb_treeIiiSt9_IdentityIiESt4lessIiESaIiEE11_M_put_nodeEPSt13_Rb_tree_nodeIiE"
 "_ZNSt8_Rb_treeIiiSt9_IdentityIiESt4lessIiESaIiEE12_M_drop_nodeEPSt13_Rb_tree_nodeIiE"
 "_ZNSt8_Rb_treeIiiSt9_IdentityIiESt4lessIiESaIiEE13_Rb_tree_implIS3_Lb1EEC1EOS7_"
 "_ZNSt8_Rb_treeIiiSt9_IdentityIiESt4lessIiESaIiEE13_Rb_tree_implIS3_Lb1EEC1Ev"
 "_ZNSt8_Rb_treeIiiSt9_IdentityIiESt4lessIiESaIiEE13_Rb_tree_implIS3_Lb1EED1Ev"
 "_ZNSt8_Rb_treeIiiSt9_IdentityIiESt4lessIiESaIiEE14_M_create_nodeIJRKiEEEPSt13_Rb_tree_nodeIiEDpOT_"
 "_ZNSt8_Rb_treeIiiSt9_IdentityIiESt4lessIiESaIiEE15_M_destroy_nodeEPSt13_Rb_tree_nodeIiE"
 "_ZNSt8_Rb_treeIiiSt9_IdentityIiESt4lessIiESaIiEE16_M_insert_uniqueIRKiEESt4pairISt17_Rb_tree_iteratorIiEbEOT_"
 "_ZNSt8_Rb_treeIiiSt9_IdentityIiESt4lessIiESaIiEE17_M_construct_nodeIJRKiEEEvPSt13_Rb_tree_nodeIiEDpOT_"
 "_ZNSt8_Rb_treeIiiSt9_IdentityIiESt4lessIiESaIiEE21_M_get_Node_allocatorEv"
 "_ZNSt8_Rb_treeIiiSt9_IdentityIiESt4lessIiESaIiEE24_M_get_insert_unique_posERKi"
 "_ZNSt8_Rb_treeIiiSt9_IdentityIiESt4lessIiESaIiEE5beginEv"
 "_ZNSt8_Rb_treeIiiSt9_IdentityIiESt4lessIiESaIiEE5clearEv"
 "_ZNSt8_Rb_treeIiiSt9_IdentityIiESt4lessIiESaIiEE6_M_endEv"
 "_ZNSt8_Rb_treeIiiSt9_IdentityIiESt4lessIiESaIiEE6_S_keyEPKSt13_Rb_tree_nodeIiE"
 "_ZNSt8_Rb_treeIiiSt9_IdentityIiESt4lessIiESaIiEE6_S_keyEPKSt18_Rb_tree_node_base"
 "_ZNSt8_Rb_treeIiiSt9_IdentityIiESt4lessIiESaIiEE7_S_leftEPSt18_Rb_tree_node_base"
 "_ZNSt8_Rb_treeIiiSt9_IdentityIiESt4lessIiESaIiEE8_M_beginEv"
 "_ZNSt8_Rb_treeIiiSt9_IdentityIiESt4lessIiESaIiEE8_M_eraseEPSt13_Rb_tree_nodeIiE"
 "_ZNSt8_Rb_treeIiiSt9_IdentityIiESt4lessIiESaIiEE8_S_rightEPSt18_Rb_tree_node_base"
 "_ZNSt8_Rb_treeIiiSt9_IdentityIiESt4lessIiESaIiEEC1EOS5_"
 "_ZNSt8_Rb_treeIiiSt9_IdentityIiESt4lessIiESaIiEEC1Ev"
 "_ZNSt8_Rb_treeIiiSt9_IdentityIiESt4lessIiESaIiEED1Ev"
 "_ZNSt9_SanitizeILy0EE14_S_do_sanitizeEm"
 "_ZnwyPv"
 "_ZSt10__fill_n_aIPayaET_S1_T0_RKT1_St26random_access_iterator_tag"
 "_ZSt10__fill_n_aIPfyfET_S1_T0_RKT1_St26random_access_iterator_tag"
 "_ZSt10__fill_n_aIPiyiET_S1_T0_RKT1_St26random_access_iterator_tag"
 "_ZSt10__fill_n_aIPPiyS0_ET_S2_T0_RKT1_St26random_access_iterator_tag"
 "_ZSt10_ConstructIaJEEvPT_DpOT0_"
 "_ZSt10_ConstructIfJEEvPT_DpOT0_"
 "_ZSt10_ConstructIiJEEvPT_DpOT0_"
 "_ZSt10_ConstructIN12llama_ubatch6data_tEJEEvPT_DpOT0_"
 "_ZSt10_ConstructIPiJEEvPT_DpOT0_"
 "_ZSt10_ConstructISt3setIiSt4lessIiESaIiEEJEEvPT_DpOT0_"
 "_ZSt10_ConstructISt6vectorIbSaIbEEJEEvPT_DpOT0_"
 "_ZSt10_ConstructISt6vectorIiSaIiEEJEEvPT_DpOT0_"
 "_ZSt11__addressofIaEPT_RS0_"
 "_ZSt11__addressofIfEPT_RS0_"
 "_ZSt11__addressofIiEPT_RS0_"
 "_ZSt11__addressofImEPT_RS0_"
 "_ZSt11__addressofINSt8__detail10_Hash_nodeISt4pairIKSt6bitsetILy64EESt6vectorIiSaIiEEELb0EEEEPT_RSB_"
 "_ZSt11__addressofIPiEPT_RS1_"
 "_ZSt11__addressofIPNSt8__detail15_Hash_node_baseEEPT_RS3_"
 "_ZSt11__addressofISaISt23_Sp_counted_ptr_inplaceIN12llama_ubatch6data_tESaIvELN9__gnu_cxx12_Lock_policyE2EEEEPT_RS8_"
 "_ZSt11__addressofISt3setIiSt4lessIiESaIiEEEPT_RS5_"
 "_ZSt11__addressofISt6bitsetILy64EEEPT_RS2_"
 "_ZSt11__addressofISt6vectorIbSaIbEEEPT_RS3_"
 "_ZSt11__addressofISt6vectorIiSaIiEEEPT_RS3_"
 "_ZSt11make_sharedIN12llama_ubatch6data_tEJEESt10shared_ptrINSt9enable_ifIXntsrSt8is_arrayIT_E5valueES5_E4typeEEDpOT0_"
 "_ZSt12__get_helperILy0ERKSt6bitsetILy64EEJEERT0_RSt11_Tuple_implIXT_EJS4_DpT1_EE"
 "_ZSt12__miter_baseIN9__gnu_cxx17__normal_iteratorIPiSt6vectorIiSaIiEEEEET_S7_"
 "_ZSt12__miter_baseIPaEDTcl12__miter_basecldtfp_4baseEEESt13move_iteratorIT_E"
 "_ZSt12__miter_baseIPaET_S1_"
 "_ZSt12__miter_baseIPiEDTcl12__miter_basecldtfp_4baseEEESt13move_iteratorIT_E"
 "_ZSt12__miter_baseIPiET_S1_"
 "_ZSt12__miter_baseIPmET_S1_"
 "_ZSt12__miter_baseISt13_Bit_iteratorET_S1_"
 "_ZSt12__miter_baseISt19_Bit_const_iteratorET_S1_"
 "_ZSt12__niter_baseIPaET_S1_"
 "_ZSt12__niter_baseIPfET_S1_"
 "_ZSt12__niter_baseIPiET_S1_"
 "_ZSt12__niter_baseIPiSt6vectorIiSaIiEEET_N9__gnu_cxx17__normal_iteratorIS4_T0_EE"
 "_ZSt12__niter_baseIPmET_S1_"
 "_ZSt12__niter_baseIPPiET_S2_"
 "_ZSt12__niter_baseIPSt3setIiSt4lessIiESaIiEEET_S6_"
 "_ZSt12__niter_baseIPSt6bitsetILy64EEET_S3_"
 "_ZSt12__niter_baseIPSt6vectorIbSaIbEEET_S4_"
 "_ZSt12__niter_baseISt13_Bit_iteratorET_S1_"
 "_ZSt12__niter_baseISt19_Bit_const_iteratorET_S1_"
 "_ZSt12__niter_wrapIN9__gnu_cxx17__normal_iteratorIPiSt6vectorIiSaIiEEEES2_ET_S7_T0_"
 "_ZSt12__niter_wrapIPaET_RKS1_S1_"
 "_ZSt12__niter_wrapIPiET_RKS1_S1_"
 "_ZSt12__niter_wrapIPmET_RKS1_S1_"
 "_ZSt12__niter_wrapISt13_Bit_iteratorET_RKS1_S1_"
 "_ZSt12__relocate_aIPaS0_SaIaEET0_T_S3_S2_RT1_"
 "_ZSt12__relocate_aIPfS0_SaIfEET0_T_S3_S2_RT1_"
 "_ZSt12__relocate_aIPiS0_SaIiEET0_T_S3_S2_RT1_"
 "_ZSt12__relocate_aIPPiS1_SaIS0_EET0_T_S4_S3_RT1_"
 "_ZSt12__relocate_aIPSt3setIiSt4lessIiESaIiEES5_SaIS4_EET0_T_S8_S7_RT1_"
 "_ZSt12__relocate_aIPSt6bitsetILy64EES2_SaIS1_EET0_T_S5_S4_RT1_"
 "_ZSt12__relocate_aIPSt6vectorIbSaIbEES3_SaIS2_EET0_T_S6_S5_RT1_"
 "_ZSt12__to_addressINSt8__detail10_Hash_nodeISt4pairIKSt6bitsetILy64EESt6vectorIiSaIiEEELb0EEEEPT_SC_"
 "_ZSt12__to_addressIPNSt8__detail15_Hash_node_baseEEPT_S4_"
 "_ZSt12__to_addressISt23_Sp_counted_ptr_inplaceIN12llama_ubatch6data_tESaIvELN9__gnu_cxx12_Lock_policyE2EEEPT_S8_"
 "_ZSt13__copy_move_aILb0EN9__gnu_cxx17__normal_iteratorIPiSt6vectorIiSaIiEEEES2_ET1_T0_S8_S7_"
 "_ZSt13__copy_move_aILb0EN9__gnu_cxx17__normal_iteratorIPiSt6vectorIiSaIiEEEES6_ET1_T0_S8_S7_"
 "_ZSt13__copy_move_aILb0EPmS0_ET1_T0_S2_S1_"
 "_ZSt13__copy_move_aILb0ESt13_Bit_iteratorS0_ET1_T0_S2_S1_"
 "_ZSt13__copy_move_aILb0ESt19_Bit_const_iteratorSt13_Bit_iteratorET1_T0_S3_S2_"
 "_ZSt13__copy_move_aILb1EPaS0_ET1_T0_S2_S1_"
 "_ZSt13__copy_move_aILb1EPiS0_ET1_T0_S2_S1_"
 "_ZSt13copy_backwardISt13_Bit_iteratorS0_ET0_T_S2_S1_"
 "_ZSt13move_backwardIPaS0_ET0_T_S2_S1_"
 "_ZSt13move_backwardIPiS0_ET0_T_S2_S1_"
 "_ZSt14__copy_move_a1ILb0EPiS0_ET1_T0_S2_S1_"
 "_ZSt14__copy_move_a1ILb0EPmS0_ET1_T0_S2_S1_"
 "_ZSt14__copy_move_a1ILb0ESt13_Bit_iteratorS0_ET1_T0_S2_S1_"
 "_ZSt14__copy_move_a1ILb0ESt19_Bit_const_iteratorSt13_Bit_iteratorET1_T0_S3_S2_"
 "_ZSt14__copy_move_a1ILb1EPaS0_ET1_T0_S2_S1_"
 "_ZSt14__copy_move_a1ILb1EPiS0_ET1_T0_S2_S1_"
 "_ZSt14__copy_move_a2ILb0EPiS0_ET1_T0_S2_S1_"
 "_ZSt14__copy_move_a2ILb0EPmS0_ET1_T0_S2_S1_"
 "_ZSt14__copy_move_a2ILb0ESt13_Bit_iteratorS0_ET1_T0_S2_S1_"
 "_ZSt14__copy_move_a2ILb0ESt19_Bit_const_iteratorSt13_Bit_iteratorET1_T0_S3_S2_"
 "_ZSt14__copy_move_a2ILb1EPaS0_ET1_T0_S2_S1_"
 "_ZSt14__copy_move_a2ILb1EPiS0_ET1_T0_S2_S1_"
 "_ZSt14__fill_bvectorPmjjb"
 "_ZSt14__relocate_a_1IaaENSt9enable_ifIXsrSt24__is_bitwise_relocatableIT_vE5valueEPS2_E4typeES4_S4_S4_RSaIT0_E"
 "_ZSt14__relocate_a_1IffENSt9enable_ifIXsrSt24__is_bitwise_relocatableIT_vE5valueEPS2_E4typeES4_S4_S4_RSaIT0_E"
 "_ZSt14__relocate_a_1IiiENSt9enable_ifIXsrSt24__is_bitwise_relocatableIT_vE5valueEPS2_E4typeES4_S4_S4_RSaIT0_E"
 "_ZSt14__relocate_a_1IPiS0_ENSt9enable_ifIXsrSt24__is_bitwise_relocatableIT_vE5valueEPS3_E4typeES5_S5_S5_RSaIT0_E"
 "_ZSt14__relocate_a_1IPSt3setIiSt4lessIiESaIiEES5_SaIS4_EET0_T_S8_S7_RT1_"
 "_ZSt14__relocate_a_1IPSt6bitsetILy64EES2_SaIS1_EET0_T_S5_S4_RT1_"
 "_ZSt14__relocate_a_1IPSt6vectorIbSaIbEES3_SaIS2_EET0_T_S6_S5_RT1_"
 "_ZSt16__fill_bvector_nPmyb"
 "_ZSt17__size_to_integery"
 "_ZSt18__allocate_guardedISaISt23_Sp_counted_ptr_inplaceIN12llama_ubatch6data_tESaIvELN9__gnu_cxx12_Lock_policyE2EEEESt15__allocated_ptrIT_ERS9_"
 "_ZSt18make_move_iteratorIPaESt13move_iteratorIT_ES2_"
 "_ZSt18make_move_iteratorIPiESt13move_iteratorIT_ES2_"
 "_ZSt18uninitialized_copyIN9__gnu_cxx17__normal_iteratorIPiSt6vectorIiSaIiEEEES2_ET0_T_S8_S7_"
 "_ZSt18uninitialized_copyISt13move_iteratorIPaES1_ET0_T_S4_S3_"
 "_ZSt18uninitialized_copyISt13move_iteratorIPiES1_ET0_T_S4_S3_"
 "_ZSt19__relocate_object_aISt3setIiSt4lessIiESaIiEES4_SaIS4_EEvPT_PT0_RT1_"
 "_ZSt19__relocate_object_aISt6bitsetILy64EES1_SaIS1_EEvPT_PT0_RT1_"
 "_ZSt19__relocate_object_aISt6vectorIbSaIbEES2_SaIS2_EEvPT_PT0_RT1_"
 "_ZSt19piecewise_construct"
 "_ZSt20uninitialized_fill_nIPayaET_S1_T0_RKT1_"
 "_ZSt20uninitialized_fill_nIPiyiET_S1_T0_RKT1_"
 "_ZSt22__copy_move_backward_aILb0ESt13_Bit_iteratorS0_ET1_T0_S2_S1_"
 "_ZSt22__copy_move_backward_aILb1EPaS0_ET1_T0_S2_S1_"
 "_ZSt22__copy_move_backward_aILb1EPiS0_ET1_T0_S2_S1_"
 "_ZSt22__uninitialized_copy_aIN9__gnu_cxx17__normal_iteratorIPiSt6vectorIiSaIiEEEES2_iET0_T_S8_S7_RSaIT1_E"
 "_ZSt22__uninitialized_copy_aISt13move_iteratorIPaES1_aET0_T_S4_S3_RSaIT1_E"
 "_ZSt22__uninitialized_copy_aISt13move_iteratorIPiES1_iET0_T_S4_S3_RSaIT1_E"
 "_ZSt22__uninitialized_move_aIPaS0_SaIaEET0_T_S3_S2_RT1_"
 "_ZSt22__uninitialized_move_aIPiS0_SaIiEET0_T_S3_S2_RT1_"
 "_ZSt23__copy_move_backward_a1ILb0ESt13_Bit_iteratorS0_ET1_T0_S2_S1_"
 "_ZSt23__copy_move_backward_a1ILb1EPaS0_ET1_T0_S2_S1_"
 "_ZSt23__copy_move_backward_a1ILb1EPiS0_ET1_T0_S2_S1_"
 "_ZSt23__copy_move_backward_a2ILb0ESt13_Bit_iteratorS0_ET1_T0_S2_S1_"
 "_ZSt23__copy_move_backward_a2ILb1EPaS0_ET1_T0_S2_S1_"
 "_ZSt23__copy_move_backward_a2ILb1EPiS0_ET1_T0_S2_S1_"
 "_ZSt24__uninitialized_fill_n_aIPayaaET_S1_T0_RKT1_RSaIT2_E"
 "_ZSt24__uninitialized_fill_n_aIPiyiiET_S1_T0_RKT1_RSaIT2_E"
 "_ZSt25__uninitialized_default_nIPayET_S1_T0_"
 "_ZSt25__uninitialized_default_nIPfyET_S1_T0_"
 "_ZSt25__uninitialized_default_nIPiyET_S1_T0_"
 "_ZSt25__uninitialized_default_nIPPiyET_S2_T0_"
 "_ZSt25__uninitialized_default_nIPSt3setIiSt4lessIiESaIiEEyET_S6_T0_"
 "_ZSt25__uninitialized_default_nIPSt6vectorIbSaIbEEyET_S4_T0_"
 "_ZSt25__uninitialized_default_nIPSt6vectorIiSaIiEEyET_S4_T0_"
 "_ZSt27__uninitialized_default_n_aIPayaET_S1_T0_RSaIT1_E"
 "_ZSt27__uninitialized_default_n_aIPfyfET_S1_T0_RSaIT1_E"
 "_ZSt27__uninitialized_default_n_aIPiyiET_S1_T0_RSaIT1_E"
 "_ZSt27__uninitialized_default_n_aIPPiyS0_ET_S2_T0_RSaIT1_E"
 "_ZSt27__uninitialized_default_n_aIPSt3setIiSt4lessIiESaIiEEyS4_ET_S6_T0_RSaIT1_E"
 "_ZSt27__uninitialized_default_n_aIPSt6vectorIbSaIbEEyS2_ET_S4_T0_RSaIT1_E"
 "_ZSt27__uninitialized_default_n_aIPSt6vectorIiSaIiEEyS2_ET_S4_T0_RSaIT1_E"
 "_ZSt32__make_move_if_noexcept_iteratorIaSt13move_iteratorIPaEET0_PT_"
 "_ZSt32__make_move_if_noexcept_iteratorIiSt13move_iteratorIPiEET0_PT_"
 "_ZSt34__uninitialized_move_if_noexcept_aIPaS0_SaIaEET0_T_S3_S2_RT1_"
 "_ZSt34__uninitialized_move_if_noexcept_aIPiS0_SaIiEET0_T_S3_S2_RT1_"
 "_ZSt3getILy0EJRKSt6bitsetILy64EEEERNSt13tuple_elementIXT_ESt5tupleIJDpT0_EEE4typeERS8_"
 "_ZSt3maxIiERKT_S2_S2_"
 "_ZSt3maxIyERKT_S2_S2_"
 "_ZSt3minIyERKT_S2_S2_"
 "_ZSt4copyIN9__gnu_cxx17__normal_iteratorIPiSt6vectorIiSaIiEEEES2_ET0_T_S8_S7_"
 "_ZSt4copyIN9__gnu_cxx17__normal_iteratorIPiSt6vectorIiSaIiEEEES6_ET0_T_S8_S7_"
 "_ZSt4copyIPmS0_ET0_T_S2_S1_"
 "_ZSt4copyISt13_Bit_iteratorS0_ET0_T_S2_S1_"
 "_ZSt4copyISt13move_iteratorIPaES1_ET0_T_S4_S3_"
 "_ZSt4copyISt13move_iteratorIPiES1_ET0_T_S4_S3_"
 "_ZSt4copyISt19_Bit_const_iteratorSt13_Bit_iteratorET0_T_S3_S2_"
 "_ZSt4fillIN9__gnu_cxx17__normal_iteratorIPiSt6vectorIiSaIiEEEEiEvT_S7_RKT0_"
 "_ZSt4fillIPaaEvT_S1_RKT0_"
 "_ZSt4fillIPiiEvT_S1_RKT0_"
 "_ZSt4fillISt13_Bit_iteratorbEvT_S1_RKT0_"
 "_ZSt4moveIRaEONSt16remove_referenceIT_E4typeEOS2_"
 "_ZSt4moveIRiEONSt16remove_referenceIT_E4typeEOS2_"
 "_ZSt4moveIRNSt13_Bvector_baseISaIbEE13_Bvector_implEEONSt16remove_referenceIT_E4typeEOS6_"
 "_ZSt4moveIRPaEONSt16remove_referenceIT_E4typeEOS3_"
 "_ZSt4moveIRPiEONSt16remove_referenceIT_E4typeEOS3_"
 "_ZSt4moveIRSt10shared_ptrIN12llama_ubatch6data_tEEEONSt16remove_referenceIT_E4typeEOS6_"
 "_ZSt4moveIRSt3setIiSt4lessIiESaIiEEEONSt16remove_referenceIT_E4typeEOS7_"
 "_ZSt4moveIRSt6bitsetILy64EEEONSt16remove_referenceIT_E4typeEOS4_"
 "_ZSt4moveIRSt6vectorIbSaIbEEEONSt16remove_referenceIT_E4typeEOS5_"
 "_ZSt6fill_nIPayaET_S1_T0_RKT1_"
 "_ZSt6fill_nIPfyfET_S1_T0_RKT1_"
 "_ZSt6fill_nIPiyiET_S1_T0_RKT1_"
 "_ZSt6fill_nIPPiyS0_ET_S2_T0_RKT1_"
 "_ZSt7forwardIbEOT_RNSt16remove_referenceIS0_E4typeE"
 "_ZSt7forwardIiEOT_RNSt16remove_referenceIS0_E4typeE"
 "_ZSt7forwardIRbEOT_RNSt16remove_referenceIS1_E4typeE"
 "_ZSt7forwardIRKaEOT_RNSt16remove_referenceIS2_E4typeE"
 "_ZSt7forwardIRKiEOT_RNSt16remove_referenceIS2_E4typeE"
 "_ZSt7forwardIRKSt21piecewise_construct_tEOT_RNSt16remove_referenceIS3_E4typeE"
 "_ZSt7forwardIRKSt4pairIKSt6bitsetILy64EESt6vectorIiSaIiEEEEOT_RNSt16remove_referenceISA_E4typeE"
 "_ZSt7forwardIRKSt6bitsetILy64EEEOT_RNSt16remove_referenceIS4_E4typeE"
 "_ZSt7forwardIRPSt13_Rb_tree_nodeIiEEOT_RNSt16remove_referenceIS4_E4typeE"
 "_ZSt7forwardIRPSt18_Rb_tree_node_baseEOT_RNSt16remove_referenceIS3_E4typeE"
 "_ZSt7forwardIRSt17_Rb_tree_iteratorIiEEOT_RNSt16remove_referenceIS3_E4typeE"
 "_ZSt7forwardISt17_Rb_tree_iteratorIiEEOT_RNSt16remove_referenceIS2_E4typeE"
 "_ZSt7forwardISt3setIiSt4lessIiESaIiEEEOT_RNSt16remove_referenceIS5_E4typeE"
 "_ZSt7forwardISt5tupleIJEEEOT_RNSt16remove_referenceIS2_E4typeE"
 "_ZSt7forwardISt5tupleIJRKSt6bitsetILy64EEEEEOT_RNSt16remove_referenceIS6_E4typeE"
 "_ZSt7forwardISt6bitsetILy64EEEOT_RNSt16remove_referenceIS2_E4typeE"
 "_ZSt7forwardISt6vectorIbSaIbEEEOT_RNSt16remove_referenceIS3_E4typeE"
 "_ZSt8__fill_aIN9__gnu_cxx17__normal_iteratorIPiSt6vectorIiSaIiEEEEiEvT_S7_RKT0_"
 "_ZSt8__fill_aIPaaEvT_S1_RKT0_"
 "_ZSt8__fill_aIPffEvT_S1_RKT0_"
 "_ZSt8__fill_aIPiiEvT_S1_RKT0_"
 "_ZSt8__fill_aIPPiS0_EvT_S2_RKT0_"
 "_ZSt8__fill_aISt13_Bit_iteratorbEvT_S1_RKT0_"
 "_ZSt8_DestroyIN12llama_ubatch6data_tEEvPT_"
 "_ZSt8_DestroyIPaEvT_S1_"
 "_ZSt8_DestroyIPfEvT_S1_"
 "_ZSt8_DestroyIPiEvT_S1_"
 "_ZSt8_DestroyIPPiEvT_S2_"
 "_ZSt8_DestroyIPSt3setIiSt4lessIiESaIiEEEvT_S6_"
 "_ZSt8_DestroyIPSt6bitsetILy64EEEvT_S3_"
 "_ZSt8_DestroyIPSt6vectorIbSaIbEEEvT_S4_"
 "_ZSt8_DestroyIPSt6vectorIiSaIiEEEvT_S4_"
 "_ZSt8_DestroyISt3setIiSt4lessIiESaIiEEEvPT_"
 "_ZSt8_DestroyISt6vectorIbSaIbEEEvPT_"
 "_ZSt8_DestroyISt6vectorIiSaIiEEEvPT_"
 "_ZSt9__advanceIN9__gnu_cxx17__normal_iteratorIPiSt6vectorIiSaIiEEEExEvRT_T0_St26random_access_iterator_tag"
 "_ZSt9__fill_a1IaEN9__gnu_cxx11__enable_ifIXsrSt9__is_byteIT_E7__valueEvE6__typeEPS3_S7_RKS3_"
 "_ZSt9__fill_a1IPffEN9__gnu_cxx11__enable_ifIXsrSt11__is_scalarIT0_E7__valueEvE6__typeET_S8_RKS4_"
 "_ZSt9__fill_a1IPiiEN9__gnu_cxx11__enable_ifIXsrSt11__is_scalarIT0_E7__valueEvE6__typeET_S8_RKS4_"
 "_ZSt9__fill_a1IPiSt6vectorIiSaIiEEiEvN9__gnu_cxx17__normal_iteratorIT_T0_EES8_RKT1_"
 "_ZSt9__fill_a1IPPiS0_EN9__gnu_cxx11__enable_ifIXsrSt11__is_scalarIT0_E7__valueEvE6__typeET_S9_RKS5_"
 "_ZSt9__fill_a1St13_Bit_iteratorS_RKb"
 "_ZSt9addressofINSt8__detail10_Hash_nodeISt4pairIKSt6bitsetILy64EESt6vectorIiSaIiEEELb0EEEEPT_RSB_"
 "_ZSt9addressofIPNSt8__detail15_Hash_node_baseEEPT_RS3_"
 "_ZStanILy64EESt6bitsetIXT_EERKS1_S3_"
 "_ZSteqRKSt17_Rb_tree_iteratorIiES2_"
 "_ZStmiRKSt18_Bit_iterator_baseS1_"
 "_ZStplRKSt13_Bit_iteratorx"
 "_ZTISt11_Mutex_baseILN9__gnu_cxx12_Lock_policyE2EE"
 "_ZTISt16_Sp_counted_baseILN9__gnu_cxx12_Lock_policyE2EE"
 "_ZTISt19_Sp_make_shared_tag"
 "_ZTISt23_Sp_counted_ptr_inplaceIN12llama_ubatch6data_tESaIvELN9__gnu_cxx12_Lock_policyE2EE"
 "_ZTSSt11_Mutex_baseILN9__gnu_cxx12_Lock_policyE2EE"
 "_ZTSSt16_Sp_counted_baseILN9__gnu_cxx12_Lock_policyE2EE"
 "_ZTSSt19_Sp_make_shared_tag"
 "_ZTSSt23_Sp_counted_ptr_inplaceIN12llama_ubatch6data_tESaIvELN9__gnu_cxx12_Lock_policyE2EE"
 "_ZTVSt16_Sp_counted_baseILN9__gnu_cxx12_Lock_policyE2EE"
 "_ZTVSt23_Sp_counted_ptr_inplaceIN12llama_ubatch6data_tESaIvELN9__gnu_cxx12_Lock_policyE2EE"
 "_ZZNSt19_Sp_make_shared_tag5_S_tiEvE5__tag"
 "llama_batch_free"
 "llama_batch_get_one"
 "llama_batch_init"
 "_Z23llm_chat_apply_template17llm_chat_templateRKSt6vectorIPK18llama_chat_messageSaIS3_EERNSt7__cxx1112basic_stringIcSt11char_traitsIcESaIcEEEb"
 "_Z24llm_chat_detect_templateRKNSt7__cxx1112basic_stringIcSt11char_traitsIcESaIcEEE"
 "_Z26llm_chat_template_from_strRKNSt7__cxx1112basic_stringIcSt11char_traitsIcESaIcEEE"
 "_ZdlPvS_"
 "_ZN9__gnu_cxx11char_traitsIcE2eqERKcS3_"
 "_ZN9__gnu_cxx11char_traitsIcE6lengthEPKc"
 "_ZN9__gnu_cxx16__aligned_membufISt4pairIKNSt7__cxx1112basic_stringIcSt11char_traitsIcESaIcEEE17llm_chat_templateEE6_M_ptrEv"
 "_ZN9__gnu_cxx16__aligned_membufISt4pairIKNSt7__cxx1112basic_stringIcSt11char_traitsIcESaIcEEE17llm_chat_templateEE7_M_addrEv"
 "_ZN9__gnu_cxx17__normal_iteratorIPcNSt7__cxx1112basic_stringIcSt11char_traitsIcESaIcEEEEppEv"
 "_ZN9__gnu_cxx17__normal_iteratorIPKPK18llama_chat_messageSt6vectorIS3_SaIS3_EEEC1ERKS5_"
 "_ZN9__gnu_cxx17__normal_iteratorIPKPK18llama_chat_messageSt6vectorIS3_SaIS3_EEEppEv"
 "_ZN9__gnu_cxxeqIPKPK18llama_chat_messageSt6vectorIS3_SaIS3_EEEEbRKNS_17__normal_iteratorIT_T0_EESE_"
 "_ZN9__gnu_cxxneIPcNSt7__cxx1112basic_stringIcSt11char_traitsIcESaIcEEEEEbRKNS_17__normal_iteratorIT_T0_EESD_"
 "_ZN9__gnu_cxxneIPKPK18llama_chat_messageSt6vectorIS3_SaIS3_EEEEbRKNS_17__normal_iteratorIT_T0_EESE_"
 "_ZNK9__gnu_cxx16__aligned_membufISt4pairIKNSt7__cxx1112basic_stringIcSt11char_traitsIcESaIcEEE17llm_chat_templateEE6_M_ptrEv"
 "_ZNK9__gnu_cxx16__aligned_membufISt4pairIKNSt7__cxx1112basic_stringIcSt11char_traitsIcESaIcEEE17llm_chat_templateEE7_M_addrEv"
 "_ZNK9__gnu_cxx17__normal_iteratorIPcNSt7__cxx1112basic_stringIcSt11char_traitsIcESaIcEEEE4baseEv"
 "_ZNK9__gnu_cxx17__normal_iteratorIPcNSt7__cxx1112basic_stringIcSt11char_traitsIcESaIcEEEEdeEv"
 "_ZNK9__gnu_cxx17__normal_iteratorIPKPK18llama_chat_messageSt6vectorIS3_SaIS3_EEE4baseEv"
 "_ZNK9__gnu_cxx17__normal_iteratorIPKPK18llama_chat_messageSt6vectorIS3_SaIS3_EEEdeEv"
 "_ZNKSt10_Select1stISt4pairIKNSt7__cxx1112basic_stringIcSt11char_traitsIcESaIcEEE17llm_chat_templateEEclERKS9_"
 "_ZNKSt13_Rb_tree_nodeISt4pairIKNSt7__cxx1112basic_stringIcSt11char_traitsIcESaIcEEE17llm_chat_templateEE9_M_valptrEv"
 "_ZNKSt16initializer_listISt4pairIKNSt7__cxx1112basic_stringIcSt11char_traitsIcESaIcEEE17llm_chat_templateEE3endEv"
 "_ZNKSt16initializer_listISt4pairIKNSt7__cxx1112basic_stringIcSt11char_traitsIcESaIcEEE17llm_chat_templateEE4sizeEv"
 "_ZNKSt16initializer_listISt4pairIKNSt7__cxx1112basic_stringIcSt11char_traitsIcESaIcEEE17llm_chat_templateEE5beginEv"
 "_ZNKSt23_Rb_tree_const_iteratorISt4pairIKNSt7__cxx1112basic_stringIcSt11char_traitsIcESaIcEEE17llm_chat_templateEE13_M_const_castEv"
 "_ZNKSt23_Rb_tree_const_iteratorISt4pairIKNSt7__cxx1112basic_stringIcSt11char_traitsIcESaIcEEE17llm_chat_templateEEdeEv"
 "_ZNKSt23_Rb_tree_const_iteratorISt4pairIKNSt7__cxx1112basic_stringIcSt11char_traitsIcESaIcEEE17llm_chat_templateEEptEv"
 "_ZNKSt3mapINSt7__cxx1112basic_stringIcSt11char_traitsIcESaIcEEE17llm_chat_templateSt4lessIS5_ESaISt4pairIKS5_S6_EEE11lower_boundERSA_"
 "_ZNKSt3mapINSt7__cxx1112basic_stringIcSt11char_traitsIcESaIcEEE17llm_chat_templateSt4lessIS5_ESaISt4pairIKS5_S6_EEE2atERSA_"
 "_ZNKSt3mapINSt7__cxx1112basic_stringIcSt11char_traitsIcESaIcEEE17llm_chat_templateSt4lessIS5_ESaISt4pairIKS5_S6_EEE3endEv"
 "_ZNKSt3mapINSt7__cxx1112basic_stringIcSt11char_traitsIcESaIcEEE17llm_chat_templateSt4lessIS5_ESaISt4pairIKS5_S6_EEE4sizeEv"
 "_ZNKSt3mapINSt7__cxx1112basic_stringIcSt11char_traitsIcESaIcEEE17llm_chat_templateSt4lessIS5_ESaISt4pairIKS5_S6_EEE5beginEv"
 "_ZNKSt3mapINSt7__cxx1112basic_stringIcSt11char_traitsIcESaIcEEE17llm_chat_templateSt4lessIS5_ESaISt4pairIKS5_S6_EEE8key_compEv"
 "_ZNKSt4lessINSt7__cxx1112basic_stringIcSt11char_traitsIcESaIcEEEEclERKS5_S8_"
 "_ZNKSt6vectorIPK18llama_chat_messageSaIS2_EE3endEv"
 "_ZNKSt6vectorIPK18llama_chat_messageSaIS2_EE4sizeEv"
 "_ZNKSt6vectorIPK18llama_chat_messageSaIS2_EE5beginEv"
 "_ZNKSt6vectorIPK18llama_chat_messageSaIS2_EE5emptyEv"
 "_ZNKSt6vectorIPK18llama_chat_messageSaIS2_EE5frontEv"
 "_ZNKSt6vectorIPK18llama_chat_messageSaIS2_EEixEy"
 "_ZNKSt8_Rb_treeINSt7__cxx1112basic_stringIcSt11char_traitsIcESaIcEEESt4pairIKS5_17llm_chat_templateESt10_Select1stIS9_ESt4lessIS5_ESaIS9_EE11_Alloc_nodeclIRKS9_EEPSt13_Rb_tree_nodeIS9_EOT_"
 "_ZNKSt8_Rb_treeINSt7__cxx1112basic_stringIcSt11char_traitsIcESaIcEEESt4pairIKS5_17llm_chat_templateESt10_Select1stIS9_ESt4lessIS5_ESaIS9_EE11lower_boundERS7_"
 "_ZNKSt8_Rb_treeINSt7__cxx1112basic_stringIcSt11char_traitsIcESaIcEEESt4pairIKS5_17llm_chat_templateESt10_Select1stIS9_ESt4lessIS5_ESaIS9_EE14_M_lower_boundEPKSt13_Rb_tree_nodeIS9_EPKSt18_Rb_tree_node_baseRS7_"
 "_ZNKSt8_Rb_treeINSt7__cxx1112basic_stringIcSt11char_traitsIcESaIcEEESt4pairIKS5_17llm_chat_templateESt10_Select1stIS9_ESt4lessIS5_ESaIS9_EE3endEv"
 "_ZNKSt8_Rb_treeINSt7__cxx1112basic_stringIcSt11char_traitsIcESaIcEEESt4pairIKS5_17llm_chat_templateESt10_Select1stIS9_ESt4lessIS5_ESaIS9_EE4sizeEv"
 "_ZNKSt8_Rb_treeINSt7__cxx1112basic_stringIcSt11char_traitsIcESaIcEEESt4pairIKS5_17llm_chat_templateESt10_Select1stIS9_ESt4lessIS5_ESaIS9_EE5beginEv"
 "_ZNKSt8_Rb_treeINSt7__cxx1112basic_stringIcSt11char_traitsIcESaIcEEESt4pairIKS5_17llm_chat_templateESt10_Select1stIS9_ESt4lessIS5_ESaIS9_EE6_M_endEv"
 "_ZNKSt8_Rb_treeINSt7__cxx1112basic_stringIcSt11char_traitsIcESaIcEEESt4pairIKS5_17llm_chat_templateESt10_Select1stIS9_ESt4lessIS5_ESaIS9_EE8_M_beginEv"
 "_ZNKSt8_Rb_treeINSt7__cxx1112basic_stringIcSt11char_traitsIcESaIcEEESt4pairIKS5_17llm_chat_templateESt10_Select1stIS9_ESt4lessIS5_ESaIS9_EE8key_compEv"
 "_ZNKSt8_Rb_treeINSt7__cxx1112basic_stringIcSt11char_traitsIcESaIcEEESt4pairIKS5_17llm_chat_templateESt10_Select1stIS9_ESt4lessIS5_ESaIS9_EE9_M_mbeginEv"
 "_ZNSt11char_traitsIcE2ltERKcS2_"
 "_ZNSt11char_traitsIcE6lengthEPKc"
 "_ZNSt11char_traitsIcE7compareEPKcS2_y"
 "_ZNSt13_Rb_tree_nodeISt4pairIKNSt7__cxx1112basic_stringIcSt11char_traitsIcESaIcEEE17llm_chat_templateEE9_M_valptrEv"
 "_ZNSt15__new_allocatorIcED2Ev"
 "_ZNSt15__new_allocatorISt13_Rb_tree_nodeISt4pairIKNSt7__cxx1112basic_stringIcSt11char_traitsIcESaIcEEE17llm_chat_templateEEE10deallocateEPSB_y"
 "_ZNSt15__new_allocatorISt13_Rb_tree_nodeISt4pairIKNSt7__cxx1112basic_stringIcSt11char_traitsIcESaIcEEE17llm_chat_templateEEE8allocateEyPKv"
 "_ZNSt15__new_allocatorISt13_Rb_tree_nodeISt4pairIKNSt7__cxx1112basic_stringIcSt11char_traitsIcESaIcEEE17llm_chat_templateEEED2Ev"
 "_ZNSt15__new_allocatorISt4pairIKNSt7__cxx1112basic_stringIcSt11char_traitsIcESaIcEEE17llm_chat_templateEED2Ev"
 "_ZNSt15_Rb_tree_header8_M_resetEv"
 "_ZNSt15_Rb_tree_headerC2Ev"
 "_ZNSt17_Rb_tree_iteratorISt4pairIKNSt7__cxx1112basic_stringIcSt11char_traitsIcESaIcEEE17llm_chat_templateEEC1EPSt18_Rb_tree_node_base"
 "_ZNSt17_Rb_tree_iteratorISt4pairIKNSt7__cxx1112basic_stringIcSt11char_traitsIcESaIcEEE17llm_chat_templateEEmmEv"
 "_ZNSt17_Rb_tree_iteratorISt4pairIKNSt7__cxx1112basic_stringIcSt11char_traitsIcESaIcEEE17llm_chat_templateEEppEv"
 "_ZNSt20_Rb_tree_key_compareISt4lessINSt7__cxx1112basic_stringIcSt11char_traitsIcESaIcEEEEEC2ERKS7_"
 "_ZNSt23_Rb_tree_const_iteratorISt4pairIKNSt7__cxx1112basic_stringIcSt11char_traitsIcESaIcEEE17llm_chat_templateEEC1EPKSt18_Rb_tree_node_base"
 "_ZNSt23_Rb_tree_const_iteratorISt4pairIKNSt7__cxx1112basic_stringIcSt11char_traitsIcESaIcEEE17llm_chat_templateEEC1ERKSt17_Rb_tree_iteratorIS9_E"
 "_ZNSt23_Rb_tree_const_iteratorISt4pairIKNSt7__cxx1112basic_stringIcSt11char_traitsIcESaIcEEE17llm_chat_templateEEmmEv"
 "_ZNSt23_Rb_tree_const_iteratorISt4pairIKNSt7__cxx1112basic_stringIcSt11char_traitsIcESaIcEEE17llm_chat_templateEEppEv"
 "_ZNSt3mapINSt7__cxx1112basic_stringIcSt11char_traitsIcESaIcEEE17llm_chat_templateSt4lessIS5_ESaISt4pairIKS5_S6_EEEC1ESt16initializer_listISB_ERKS8_RKSC_"
 "_ZNSt3mapINSt7__cxx1112basic_stringIcSt11char_traitsIcESaIcEEE17llm_chat_templateSt4lessIS5_ESaISt4pairIKS5_S6_EEED1Ev"
 "_ZNSt4pairIKNSt7__cxx1112basic_stringIcSt11char_traitsIcESaIcEEE17llm_chat_templateEC1ERKS8_"
 "_ZNSt4pairIKNSt7__cxx1112basic_stringIcSt11char_traitsIcESaIcEEE17llm_chat_templateEC1IRA10_KcS7_Lb1EEEOT_OT0_"
 "_ZNSt4pairIKNSt7__cxx1112basic_stringIcSt11char_traitsIcESaIcEEE17llm_chat_templateEC1IRA11_KcS7_Lb1EEEOT_OT0_"
 "_ZNSt4pairIKNSt7__cxx1112basic_stringIcSt11char_traitsIcESaIcEEE17llm_chat_templateEC1IRA12_KcS7_Lb1EEEOT_OT0_"
 "_ZNSt4pairIKNSt7__cxx1112basic_stringIcSt11char_traitsIcESaIcEEE17llm_chat_templateEC1IRA14_KcS7_Lb1EEEOT_OT0_"
 "_ZNSt4pairIKNSt7__cxx1112basic_stringIcSt11char_traitsIcESaIcEEE17llm_chat_templateEC1IRA15_KcS7_Lb1EEEOT_OT0_"
 "_ZNSt4pairIKNSt7__cxx1112basic_stringIcSt11char_traitsIcESaIcEEE17llm_chat_templateEC1IRA17_KcS7_Lb1EEEOT_OT0_"
 "_ZNSt4pairIKNSt7__cxx1112basic_stringIcSt11char_traitsIcESaIcEEE17llm_chat_templateEC1IRA18_KcS7_Lb1EEEOT_OT0_"
 "_ZNSt4pairIKNSt7__cxx1112basic_stringIcSt11char_traitsIcESaIcEEE17llm_chat_templateEC1IRA5_KcS7_Lb1EEEOT_OT0_"
 "_ZNSt4pairIKNSt7__cxx1112basic_stringIcSt11char_traitsIcESaIcEEE17llm_chat_templateEC1IRA6_KcS7_Lb1EEEOT_OT0_"
 "_ZNSt4pairIKNSt7__cxx1112basic_stringIcSt11char_traitsIcESaIcEEE17llm_chat_templateEC1IRA7_KcS7_Lb1EEEOT_OT0_"
 "_ZNSt4pairIKNSt7__cxx1112basic_stringIcSt11char_traitsIcESaIcEEE17llm_chat_templateEC1IRA8_KcS7_Lb1EEEOT_OT0_"
 "_ZNSt4pairIKNSt7__cxx1112basic_stringIcSt11char_traitsIcESaIcEEE17llm_chat_templateEC1IRA9_KcS7_Lb1EEEOT_OT0_"
 "_ZNSt4pairIKNSt7__cxx1112basic_stringIcSt11char_traitsIcESaIcEEE17llm_chat_templateED1Ev"
 "_ZNSt4pairIPSt18_Rb_tree_node_baseS1_EC1IRPSt13_Rb_tree_nodeIS_IKNSt7__cxx1112basic_stringIcSt11char_traitsIcESaIcEEE17llm_chat_templateEERS1_Lb1EEEOT_OT0_"
 "_ZNSt4pairIPSt18_Rb_tree_node_baseS1_EC1IRS1_S4_Lb1EEEOT_OT0_"
 "_ZNSt4pairIPSt18_Rb_tree_node_baseS1_EC1IS1_S1_Lb1EEERKS1_S5_"
 "_ZNSt7__cxx1112basic_stringIcSt11char_traitsIcESaIcEE12_Alloc_hiderD1Ev"
 "_ZNSt7__cxx1112basic_stringIcSt11char_traitsIcESaIcEE12_M_constructIPKcEEvT_S8_St20forward_iterator_tag"
 "_ZNSt7__cxx1112basic_stringIcSt11char_traitsIcESaIcEEC1IS3_EEPKcRKS3_"
 "_ZNSt8_Rb_treeINSt7__cxx1112basic_stringIcSt11char_traitsIcESaIcEEESt4pairIKS5_17llm_chat_templateESt10_Select1stIS9_ESt4lessIS5_ESaIS9_EE10_M_insert_IRKS9_NSF_11_Alloc_nodeEEESt17_Rb_tree_iteratorIS9_EPSt18_Rb_tree_node_baseSN_OT_RT0_"
 "_ZNSt8_Rb_treeINSt7__cxx1112basic_stringIcSt11char_traitsIcESaIcEEESt4pairIKS5_17llm_chat_templateESt10_Select1stIS9_ESt4lessIS5_ESaIS9_EE11_Alloc_nodeC1ERSF_"
 "_ZNSt8_Rb_treeINSt7__cxx1112basic_stringIcSt11char_traitsIcESaIcEEESt4pairIKS5_17llm_chat_templateESt10_Select1stIS9_ESt4lessIS5_ESaIS9_EE11_M_get_nodeEv"
 "_ZNSt8_Rb_treeINSt7__cxx1112basic_stringIcSt11char_traitsIcESaIcEEESt4pairIKS5_17llm_chat_templateESt10_Select1stIS9_ESt4lessIS5_ESaIS9_EE11_M_leftmostEv"
 "_ZNSt8_Rb_treeINSt7__cxx1112basic_stringIcSt11char_traitsIcESaIcEEESt4pairIKS5_17llm_chat_templateESt10_Select1stIS9_ESt4lessIS5_ESaIS9_EE11_M_put_nodeEPSt13_Rb_tree_nodeIS9_E"
 "_ZNSt8_Rb_treeINSt7__cxx1112basic_stringIcSt11char_traitsIcESaIcEEESt4pairIKS5_17llm_chat_templateESt10_Select1stIS9_ESt4lessIS5_ESaIS9_EE12_M_drop_nodeEPSt13_Rb_tree_nodeIS9_E"
 "_ZNSt8_Rb_treeINSt7__cxx1112basic_stringIcSt11char_traitsIcESaIcEEESt4pairIKS5_17llm_chat_templateESt10_Select1stIS9_ESt4lessIS5_ESaIS9_EE12_M_rightmostEv"
 "_ZNSt8_Rb_treeINSt7__cxx1112basic_stringIcSt11char_traitsIcESaIcEEESt4pairIKS5_17llm_chat_templateESt10_Select1stIS9_ESt4lessIS5_ESaIS9_EE13_Rb_tree_implISD_Lb1EEC1ERKSD_OSaISt13_Rb_tree_nodeIS9_EE"
 "_ZNSt8_Rb_treeINSt7__cxx1112basic_stringIcSt11char_traitsIcESaIcEEESt4pairIKS5_17llm_chat_templateESt10_Select1stIS9_ESt4lessIS5_ESaIS9_EE13_Rb_tree_implISD_Lb1EED1Ev"
 "_ZNSt8_Rb_treeINSt7__cxx1112basic_stringIcSt11char_traitsIcESaIcEEESt4pairIKS5_17llm_chat_templateESt10_Select1stIS9_ESt4lessIS5_ESaIS9_EE14_M_create_nodeIJRKS9_EEEPSt13_Rb_tree_nodeIS9_EDpOT_"
 "_ZNSt8_Rb_treeINSt7__cxx1112basic_stringIcSt11char_traitsIcESaIcEEESt4pairIKS5_17llm_chat_templateESt10_Select1stIS9_ESt4lessIS5_ESaIS9_EE15_M_destroy_nodeEPSt13_Rb_tree_nodeIS9_E"
 "_ZNSt8_Rb_treeINSt7__cxx1112basic_stringIcSt11char_traitsIcESaIcEEESt4pairIKS5_17llm_chat_templateESt10_Select1stIS9_ESt4lessIS5_ESaIS9_EE17_M_construct_nodeIJRKS9_EEEvPSt13_Rb_tree_nodeIS9_EDpOT_"
 "_ZNSt8_Rb_treeINSt7__cxx1112basic_stringIcSt11char_traitsIcESaIcEEESt4pairIKS5_17llm_chat_templateESt10_Select1stIS9_ESt4lessIS5_ESaIS9_EE17_M_insert_unique_IRKS9_NSF_11_Alloc_nodeEEESt17_Rb_tree_iteratorIS9_ESt23_Rb_tree_const_iteratorIS9_EOT_RT0_"
 "_ZNSt8_Rb_treeINSt7__cxx1112basic_stringIcSt11char_traitsIcESaIcEEESt4pairIKS5_17llm_chat_templateESt10_Select1stIS9_ESt4lessIS5_ESaIS9_EE21_M_get_Node_allocatorEv"
 "_ZNSt8_Rb_treeINSt7__cxx1112basic_stringIcSt11char_traitsIcESaIcEEESt4pairIKS5_17llm_chat_templateESt10_Select1stIS9_ESt4lessIS5_ESaIS9_EE22_M_insert_range_uniqueIPKS9_EENSt9enable_ifIXsrSt7is_sameIS9_NSt15iterator_traitsIT_E10value_typeEE5valueEvE4typeESM_SM_"
 "_ZNSt8_Rb_treeINSt7__cxx1112basic_stringIcSt11char_traitsIcESaIcEEESt4pairIKS5_17llm_chat_templateESt10_Select1stIS9_ESt4lessIS5_ESaIS9_EE24_M_get_insert_unique_posERS7_"
 "_ZNSt8_Rb_treeINSt7__cxx1112basic_stringIcSt11char_traitsIcESaIcEEESt4pairIKS5_17llm_chat_templateESt10_Select1stIS9_ESt4lessIS5_ESaIS9_EE29_M_get_insert_hint_unique_posESt23_Rb_tree_const_iteratorIS9_ERS7_"
 "_ZNSt8_Rb_treeINSt7__cxx1112basic_stringIcSt11char_traitsIcESaIcEEESt4pairIKS5_17llm_chat_templateESt10_Select1stIS9_ESt4lessIS5_ESaIS9_EE3endEv"
 "_ZNSt8_Rb_treeINSt7__cxx1112basic_stringIcSt11char_traitsIcESaIcEEESt4pairIKS5_17llm_chat_templateESt10_Select1stIS9_ESt4lessIS5_ESaIS9_EE5beginEv"
 "_ZNSt8_Rb_treeINSt7__cxx1112basic_stringIcSt11char_traitsIcESaIcEEESt4pairIKS5_17llm_chat_templateESt10_Select1stIS9_ESt4lessIS5_ESaIS9_EE6_M_endEv"
 "_ZNSt8_Rb_treeINSt7__cxx1112basic_stringIcSt11char_traitsIcESaIcEEESt4pairIKS5_17llm_chat_templateESt10_Select1stIS9_ESt4lessIS5_ESaIS9_EE6_S_keyEPKSt13_Rb_tree_nodeIS9_E"
 "_ZNSt8_Rb_treeINSt7__cxx1112basic_stringIcSt11char_traitsIcESaIcEEESt4pairIKS5_17llm_chat_templateESt10_Select1stIS9_ESt4lessIS5_ESaIS9_EE6_S_keyEPKSt18_Rb_tree_node_base"
 "_ZNSt8_Rb_treeINSt7__cxx1112basic_stringIcSt11char_traitsIcESaIcEEESt4pairIKS5_17llm_chat_templateESt10_Select1stIS9_ESt4lessIS5_ESaIS9_EE7_S_leftEPKSt18_Rb_tree_node_base"
 "_ZNSt8_Rb_treeINSt7__cxx1112basic_stringIcSt11char_traitsIcESaIcEEESt4pairIKS5_17llm_chat_templateESt10_Select1stIS9_ESt4lessIS5_ESaIS9_EE7_S_leftEPSt18_Rb_tree_node_base"
 "_ZNSt8_Rb_treeINSt7__cxx1112basic_stringIcSt11char_traitsIcESaIcEEESt4pairIKS5_17llm_chat_templateESt10_Select1stIS9_ESt4lessIS5_ESaIS9_EE8_M_beginEv"
 "_ZNSt8_Rb_treeINSt7__cxx1112basic_stringIcSt11char_traitsIcESaIcEEESt4pairIKS5_17llm_chat_templateESt10_Select1stIS9_ESt4lessIS5_ESaIS9_EE8_M_eraseEPSt13_Rb_tree_nodeIS9_E"
 "_ZNSt8_Rb_treeINSt7__cxx1112basic_stringIcSt11char_traitsIcESaIcEEESt4pairIKS5_17llm_chat_templateESt10_Select1stIS9_ESt4lessIS5_ESaIS9_EE8_S_rightEPKSt18_Rb_tree_node_base"
 "_ZNSt8_Rb_treeINSt7__cxx1112basic_stringIcSt11char_traitsIcESaIcEEESt4pairIKS5_17llm_chat_templateESt10_Select1stIS9_ESt4lessIS5_ESaIS9_EE8_S_rightEPSt18_Rb_tree_node_base"
 "_ZNSt8_Rb_treeINSt7__cxx1112basic_stringIcSt11char_traitsIcESaIcEEESt4pairIKS5_17llm_chat_templateESt10_Select1stIS9_ESt4lessIS5_ESaIS9_EEC1ERKSD_RKSE_"
 "_ZNSt8_Rb_treeINSt7__cxx1112basic_stringIcSt11char_traitsIcESaIcEEESt4pairIKS5_17llm_chat_templateESt10_Select1stIS9_ESt4lessIS5_ESaIS9_EED1Ev"
 "_ZnwyPv"
 "_ZSt23__is_constant_evaluatedv"
 "_ZSt3minIyERKT_S2_S2_"
 "_ZSt4moveIRSaISt13_Rb_tree_nodeISt4pairIKNSt7__cxx1112basic_stringIcSt11char_traitsIcESaIcEEE17llm_chat_templateEEEEONSt16remove_referenceIT_E4typeEOSF_"
 "_ZSt7forwardI17llm_chat_templateEOT_RNSt16remove_referenceIS1_E4typeE"
 "_ZSt7forwardIRA10_KcEOT_RNSt16remove_referenceIS3_E4typeE"
 "_ZSt7forwardIRA11_KcEOT_RNSt16remove_referenceIS3_E4typeE"
 "_ZSt7forwardIRA12_KcEOT_RNSt16remove_referenceIS3_E4typeE"
 "_ZSt7forwardIRA14_KcEOT_RNSt16remove_referenceIS3_E4typeE"
 "_ZSt7forwardIRA15_KcEOT_RNSt16remove_referenceIS3_E4typeE"
 "_ZSt7forwardIRA17_KcEOT_RNSt16remove_referenceIS3_E4typeE"
 "_ZSt7forwardIRA18_KcEOT_RNSt16remove_referenceIS3_E4typeE"
 "_ZSt7forwardIRA5_KcEOT_RNSt16remove_referenceIS3_E4typeE"
 "_ZSt7forwardIRA6_KcEOT_RNSt16remove_referenceIS3_E4typeE"
 "_ZSt7forwardIRA7_KcEOT_RNSt16remove_referenceIS3_E4typeE"
 "_ZSt7forwardIRA8_KcEOT_RNSt16remove_referenceIS3_E4typeE"
 "_ZSt7forwardIRA9_KcEOT_RNSt16remove_referenceIS3_E4typeE"
 "_ZSt7forwardIRKSt4pairIKNSt7__cxx1112basic_stringIcSt11char_traitsIcESaIcEEE17llm_chat_templateEEOT_RNSt16remove_referenceISC_E4typeE"
 "_ZSt7forwardIRPSt13_Rb_tree_nodeISt4pairIKNSt7__cxx1112basic_stringIcSt11char_traitsIcESaIcEEE17llm_chat_templateEEEOT_RNSt16remove_referenceISE_E4typeE"
 "_ZSt7forwardIRPSt18_Rb_tree_node_baseEOT_RNSt16remove_referenceIS3_E4typeE"
 "_ZSt9__advanceISt23_Rb_tree_const_iteratorISt4pairIKNSt7__cxx1112basic_stringIcSt11char_traitsIcESaIcEEE17llm_chat_templateEExEvRT_T0_St26bidirectional_iterator_tag"
 "_ZSt9transformIN9__gnu_cxx17__normal_iteratorIPcNSt7__cxx1112basic_stringIcSt11char_traitsIcESaIcEEEEES9_PFiiEET0_T_SD_SC_T1_"
 "_ZSteqIcSt11char_traitsIcESaIcEEbRKNSt7__cxx1112basic_stringIT_T0_T1_EEPKS5_"
 "_ZSteqRKSt17_Rb_tree_iteratorISt4pairIKNSt7__cxx1112basic_stringIcSt11char_traitsIcESaIcEEE17llm_chat_templateEESC_"
 "_ZSteqRKSt23_Rb_tree_const_iteratorISt4pairIKNSt7__cxx1112basic_stringIcSt11char_traitsIcESaIcEEE17llm_chat_templateEESC_"
 "_ZStltIcSt11char_traitsIcESaIcEEbRKNSt7__cxx1112basic_stringIT_T0_T1_EESA_"
 "_ZStneIcSt11char_traitsIcESaIcEEbRKNSt7__cxx1112basic_stringIT_T0_T1_EEPKS5_"
 "_ZTISt11logic_error"
 "_ZTISt12out_of_range"
 "_ZTISt9exception"
 "_ZTSSt11logic_error"
 "_ZTSSt12out_of_range"
 "_ZTSSt9exception"
 "_ZZNSt7__cxx1112basic_stringIcSt11char_traitsIcESaIcEE12_M_constructIPKcEEvT_S8_St20forward_iterator_tagEN6_GuardC1EPS4_"
 "_ZZNSt7__cxx1112basic_stringIcSt11char_traitsIcESaIcEE12_M_constructIPKcEEvT_S8_St20forward_iterator_tagEN6_GuardD1Ev"
 "llama_chat_builtin_templates"
 "_ZdlPvS_"
 "_ZN11llama_crossC1Ev"
 "_ZN11llama_crossD1Ev"
 "_ZN12llama_ubatchC1ERKS_"
 "_ZN12llama_ubatchD1Ev"
 "_ZN13llama_context10get_logitsEv"
 "_ZN13llama_context10perf_resetEv"
 "_ZN13llama_context10set_warmupEb"
 "_ZN13llama_context11synchronizeEv"
 "_ZN13llama_context13graph_computeEP11ggml_cgraphb"
 "_ZN13llama_context13graph_reserveEjjjPK22llama_memory_context_i"
 "_ZN13llama_context13set_n_threadsEii"
 "_ZN13llama_context14get_embeddingsEv"
 "_ZN13llama_context14get_logits_ithEi"
 "_ZN13llama_context14kv_self_updateEb"
 "_ZN13llama_context14opt_epoch_iterEP16ggml_opt_datasetP15ggml_opt_resultRKSt6vectorIiSaIiEES8_R11llama_batchPFvbP16ggml_opt_contextS1_S3_xxxEbxxx"
 "_ZN13llama_context14output_reorderEv"
 "_ZN13llama_context14output_reserveEi"
 "_ZN13llama_context14process_ubatchERK12llama_ubatch14llm_graph_typeP22llama_memory_context_iR11ggml_status"
 "_ZN13llama_context14set_embeddingsEb"
 "_ZN13llama_context14state_get_dataEPhy"
 "_ZN13llama_context14state_get_sizeEv"
 "_ZN13llama_context14state_set_dataEPKhy"
 "_ZN13llama_context15rm_adapter_loraEP18llama_adapter_lora"
 "_ZN13llama_context15set_causal_attnEb"
 "_ZN13llama_context15state_load_fileEPKcPiyPy"
 "_ZN13llama_context15state_read_dataER15llama_io_read_i"
 "_ZN13llama_context15state_save_fileEPKcPKiy"
 "_ZN13llama_context16set_adapter_loraEP18llama_adapter_loraf"
 "_ZN13llama_context16state_write_dataER16llama_io_write_i"
 "_ZN13llama_context17attach_threadpoolEP15ggml_threadpoolS1_"
 "_ZN13llama_context17detach_threadpoolEv"
 "_ZN13llama_context18apply_adapter_cvecEPKfyiii"
 "_ZN13llama_context18clear_adapter_loraEv"
 "_ZN13llama_context18get_embeddings_ithEi"
 "_ZN13llama_context18get_embeddings_seqEi"
 "_ZN13llama_context18set_abort_callbackEPFbPvES0_"
 "_ZN13llama_context18state_seq_get_dataEiPhyj"
 "_ZN13llama_context18state_seq_get_sizeEij"
 "_ZN13llama_context18state_seq_set_dataEiPKhyj"
 "_ZN13llama_context19state_seq_load_fileEiPKcPiyPy"
 "_ZN13llama_context19state_seq_read_dataER15llama_io_read_iij"
 "_ZN13llama_context19state_seq_save_fileEiPKcPKiy"
 "_ZN13llama_context20kv_self_defrag_schedEv"
 "_ZN13llama_context20state_seq_write_dataER16llama_io_write_iij"
 "_ZN13llama_context6decodeERK11llama_batch"
 "_ZN13llama_context6encodeERK11llama_batch"
 "_ZN13llama_context8opt_initEP11llama_model16llama_opt_params"
 "_ZN13llama_context9opt_epochEP16ggml_opt_datasetP15ggml_opt_resultS3_xPFvbP16ggml_opt_contextS1_S3_xxxES7_"
 "_ZN13llama_contextC1ERK11llama_model20llama_context_params"
 "_ZN13llama_contextC2ERK11llama_model20llama_context_params"
 "_ZN13llama_contextD1Ev"
 "_ZN13llama_contextD2Ev"
 "_ZN15llama_io_read_iC2Ev"
 "_ZN15llama_io_read_iD2Ev"
 "_ZN16llama_io_write_iC2Ev"
 "_ZN16llama_io_write_iD2Ev"
 "_ZN16llm_graph_paramsD1Ev"
 "_ZN18llama_adapter_cvecC1Ev"
 "_ZN18llama_adapter_cvecD1Ev"
 "_ZN18llama_batch_allocrD1Ev"
 "_ZN18llama_io_read_file4readEy"
 "_ZN18llama_io_read_file7n_bytesEv"
 "_ZN18llama_io_read_file7read_toEPvy"
 "_ZN18llama_io_read_fileC1EP10llama_file"
 "_ZN18llama_io_read_fileD0Ev"
 "_ZN18llama_io_read_fileD1Ev"
 "_ZN19llama_io_write_file12write_tensorEPK11ggml_tensoryy"
 "_ZN19llama_io_write_file5writeEPKvy"
 "_ZN19llama_io_write_file7n_bytesEv"
 "_ZN19llama_io_write_fileC1EP10llama_file"
 "_ZN19llama_io_write_fileD0Ev"
 "_ZN19llama_io_write_fileD1Ev"
 "_ZN20ggml_backend_deleterclEP12ggml_backend"
 "_ZN20ggml_context_deleterclEP12ggml_context"
 "_ZN20llama_io_read_buffer4readEy"
 "_ZN20llama_io_read_buffer7n_bytesEv"
 "_ZN20llama_io_read_buffer7read_toEPvy"
 "_ZN20llama_io_read_bufferC1EPKhy"
 "_ZN20llama_io_read_bufferD0Ev"
 "_ZN20llama_io_read_bufferD1Ev"
 "_ZN20llama_io_write_dummy12write_tensorEPK11ggml_tensoryy"
 "_ZN20llama_io_write_dummy5writeEPKvy"
 "_ZN20llama_io_write_dummy7n_bytesEv"
 "_ZN20llama_io_write_dummyD0Ev"
 "_ZN20llama_io_write_dummyD1Ev"
 "_ZN21llama_io_write_buffer12write_tensorEPK11ggml_tensoryy"
 "_ZN21llama_io_write_buffer5writeEPKvy"
 "_ZN21llama_io_write_buffer7n_bytesEv"
 "_ZN21llama_io_write_bufferC1EPhy"
 "_ZN21llama_io_write_bufferD0Ev"
 "_ZN21llama_io_write_bufferD1Ev"
 "_ZN26ggml_backend_sched_deleterclEP18ggml_backend_sched"
 "_ZN27ggml_backend_buffer_deleterclEP19ggml_backend_buffer"
 "_ZN9__gnu_cxx11char_traitsIcE2eqERKcS3_"
 "_ZN9__gnu_cxx11char_traitsIcE6lengthEPKc"
 "_ZN9__gnu_cxx16__aligned_bufferISt4pairIKP18llama_adapter_lorafEE6_M_ptrEv"
 "_ZN9__gnu_cxx16__aligned_bufferISt4pairIKP18llama_adapter_lorafEE7_M_addrEv"
 "_ZN9__gnu_cxx16__aligned_bufferISt4pairIKSt6bitsetILy64EESt6vectorIiSaIiEEEE6_M_ptrEv"
 "_ZN9__gnu_cxx16__aligned_bufferISt4pairIKSt6bitsetILy64EESt6vectorIiSaIiEEEE7_M_addrEv"
 "_ZN9__gnu_cxx16__aligned_membufIiE6_M_ptrEv"
 "_ZN9__gnu_cxx16__aligned_membufIiE7_M_addrEv"
 "_ZN9__gnu_cxx16__aligned_membufISt4pairIKiSt6vectorIfSaIfEEEE6_M_ptrEv"
 "_ZN9__gnu_cxx16__aligned_membufISt4pairIKiSt6vectorIfSaIfEEEE7_M_addrEv"
 "_ZN9__gnu_cxx17__normal_iteratorIP11llama_layerSt6vectorIS1_SaIS1_EEEC1ERKS2_"
 "_ZN9__gnu_cxx17__normal_iteratorIP11llama_layerSt6vectorIS1_SaIS1_EEEppEv"
 "_ZN9__gnu_cxx17__normal_iteratorIPiSt6vectorIiSaIiEEEC1ERKS1_"
 "_ZN9__gnu_cxx17__normal_iteratorIPKiSt6vectorIiSaIiEEEC1ERKS2_"
 "_ZN9__gnu_cxx17__normal_iteratorIPKP19ggml_backend_deviceSt6vectorIS2_SaIS2_EEEC1ERKS4_"
 "_ZN9__gnu_cxx17__normal_iteratorIPKP19ggml_backend_deviceSt6vectorIS2_SaIS2_EEEppEv"
 "_ZN9__gnu_cxx17__normal_iteratorIPKSt10unique_ptrI12ggml_backend20ggml_backend_deleterESt6vectorIS4_SaIS4_EEEC1ERKS6_"
 "_ZN9__gnu_cxx17__normal_iteratorIPKSt10unique_ptrI12ggml_backend20ggml_backend_deleterESt6vectorIS4_SaIS4_EEEppEv"
 "_ZN9__gnu_cxx17__normal_iteratorIPN13llama_context9swap_infoESt6vectorIS2_SaIS2_EEEC1ERKS3_"
 "_ZN9__gnu_cxx17__normal_iteratorIPP12ggml_backendSt6vectorIS2_SaIS2_EEEC1ERKS3_"
 "_ZN9__gnu_cxx17__normal_iteratorIPP24ggml_backend_buffer_typeSt6vectorIS2_SaIS2_EEEC1ERKS3_"
 "_ZN9__gnu_cxx17__normal_iteratorIPSt10unique_ptrI12ggml_backend20ggml_backend_deleterESt6vectorIS4_SaIS4_EEEC1ERKS5_"
 "_ZN9__gnu_cxx17__normal_iteratorIPSt10unique_ptrI12ggml_backend20ggml_backend_deleterESt6vectorIS4_SaIS4_EEEppEv"
 "_ZN9__gnu_cxx17__normal_iteratorIPSt4pairIP12ggml_backendPFvS3_iEESt6vectorIS6_SaIS6_EEEC1ERKS7_"
 "_ZN9__gnu_cxx17__normal_iteratorIPSt4pairIP12ggml_backendPFvS3_iEESt6vectorIS6_SaIS6_EEEppEv"
 "_ZN9__gnu_cxxeqIPKiSt6vectorIiSaIiEEEEbRKNS_17__normal_iteratorIT_T0_EESB_"
 "_ZN9__gnu_cxxeqIPKP19ggml_backend_deviceSt6vectorIS2_SaIS2_EEEEbRKNS_17__normal_iteratorIT_T0_EESD_"
 "_ZN9__gnu_cxxmiIPN13llama_context9swap_infoESt6vectorIS2_SaIS2_EEEENS_17__normal_iteratorIT_T0_E15difference_typeERKSA_SD_"
 "_ZN9__gnu_cxxmiIPP12ggml_backendSt6vectorIS2_SaIS2_EEEENS_17__normal_iteratorIT_T0_E15difference_typeERKSA_SD_"
 "_ZN9__gnu_cxxmiIPP24ggml_backend_buffer_typeSt6vectorIS2_SaIS2_EEEENS_17__normal_iteratorIT_T0_E15difference_typeERKSA_SD_"
 "_ZN9__gnu_cxxmiIPSt10unique_ptrI12ggml_backend20ggml_backend_deleterESt6vectorIS4_SaIS4_EEEENS_17__normal_iteratorIT_T0_E15difference_typeERKSC_SF_"
 "_ZN9__gnu_cxxmiIPSt4pairIP12ggml_backendPFvS3_iEESt6vectorIS6_SaIS6_EEEENS_17__normal_iteratorIT_T0_E15difference_typeERKSE_SH_"
 "_ZN9__gnu_cxxneIP11llama_layerSt6vectorIS1_SaIS1_EEEEbRKNS_17__normal_iteratorIT_T0_EESB_"
 "_ZN9__gnu_cxxneIPKP19ggml_backend_deviceSt6vectorIS2_SaIS2_EEEEbRKNS_17__normal_iteratorIT_T0_EESD_"
 "_ZN9__gnu_cxxneIPKSt10unique_ptrI12ggml_backend20ggml_backend_deleterESt6vectorIS4_SaIS4_EEEEbRKNS_17__normal_iteratorIT_T0_EESF_"
 "_ZN9__gnu_cxxneIPSt10unique_ptrI12ggml_backend20ggml_backend_deleterESt6vectorIS4_SaIS4_EEEEbRKNS_17__normal_iteratorIT_T0_EESE_"
 "_ZN9__gnu_cxxneIPSt4pairIP12ggml_backendPFvS3_iEESt6vectorIS6_SaIS6_EEEEbRKNS_17__normal_iteratorIT_T0_EESG_"
 "_ZNK13llama_context10get_memoryEv"
 "_ZNK13llama_context11get_cparamsEv"
 "_ZNK13llama_context12graph_get_cbEv"
 "_ZNK13llama_context12graph_paramsEP16llm_graph_resultRK12llama_ubatchPK22llama_memory_context_i14llm_graph_type"
 "_ZNK13llama_context12pooling_typeEv"
 "_ZNK13llama_context13n_ctx_per_seqEv"
 "_ZNK13llama_context13perf_get_dataEv"
 "_ZNK13llama_context15graph_max_nodesEv"
 "_ZNK13llama_context15n_threads_batchEv"
 "_ZNK13llama_context18get_gf_res_reserveEv"
 "_ZNK13llama_context5n_ctxEv"
 "_ZNK13llama_context7n_batchEv"
 "_ZNK13llama_context8n_ubatchEv"
 "_ZNK13llama_context9get_modelEv"
 "_ZNK13llama_context9get_schedEv"
 "_ZNK13llama_context9n_seq_maxEv"
 "_ZNK13llama_context9n_threadsEv"
 "_ZNK16llm_graph_result10get_logitsEv"
 "_ZNK16llm_graph_result10get_tokensEv"
 "_ZNK16llm_graph_result15get_embd_pooledEv"
 "_ZNK16llm_graph_result6get_gfEv"
 "_ZNK16llm_graph_result8get_embdEv"
 "_ZNK9__gnu_cxx16__aligned_bufferISt4pairIKP18llama_adapter_lorafEE6_M_ptrEv"
 "_ZNK9__gnu_cxx16__aligned_bufferISt4pairIKP18llama_adapter_lorafEE7_M_addrEv"
 "_ZNK9__gnu_cxx16__aligned_membufIiE6_M_ptrEv"
 "_ZNK9__gnu_cxx16__aligned_membufIiE7_M_addrEv"
 "_ZNK9__gnu_cxx16__aligned_membufISt4pairIKiSt6vectorIfSaIfEEEE6_M_ptrEv"
 "_ZNK9__gnu_cxx16__aligned_membufISt4pairIKiSt6vectorIfSaIfEEEE7_M_addrEv"
 "_ZNK9__gnu_cxx17__normal_iteratorIP11llama_layerSt6vectorIS1_SaIS1_EEE4baseEv"
 "_ZNK9__gnu_cxx17__normal_iteratorIP11llama_layerSt6vectorIS1_SaIS1_EEEdeEv"
 "_ZNK9__gnu_cxx17__normal_iteratorIPiSt6vectorIiSaIiEEE4baseEv"
 "_ZNK9__gnu_cxx17__normal_iteratorIPKiSt6vectorIiSaIiEEE4baseEv"
 "_ZNK9__gnu_cxx17__normal_iteratorIPKP19ggml_backend_deviceSt6vectorIS2_SaIS2_EEE4baseEv"
 "_ZNK9__gnu_cxx17__normal_iteratorIPKP19ggml_backend_deviceSt6vectorIS2_SaIS2_EEEdeEv"
 "_ZNK9__gnu_cxx17__normal_iteratorIPKSt10unique_ptrI12ggml_backend20ggml_backend_deleterESt6vectorIS4_SaIS4_EEE4baseEv"
 "_ZNK9__gnu_cxx17__normal_iteratorIPKSt10unique_ptrI12ggml_backend20ggml_backend_deleterESt6vectorIS4_SaIS4_EEEdeEv"
 "_ZNK9__gnu_cxx17__normal_iteratorIPN13llama_context9swap_infoESt6vectorIS2_SaIS2_EEE4baseEv"
 "_ZNK9__gnu_cxx17__normal_iteratorIPN13llama_context9swap_infoESt6vectorIS2_SaIS2_EEEdeEv"
 "_ZNK9__gnu_cxx17__normal_iteratorIPN13llama_context9swap_infoESt6vectorIS2_SaIS2_EEEmiEx"
 "_ZNK9__gnu_cxx17__normal_iteratorIPP12ggml_backendSt6vectorIS2_SaIS2_EEE4baseEv"
 "_ZNK9__gnu_cxx17__normal_iteratorIPP12ggml_backendSt6vectorIS2_SaIS2_EEEdeEv"
 "_ZNK9__gnu_cxx17__normal_iteratorIPP12ggml_backendSt6vectorIS2_SaIS2_EEEmiEx"
 "_ZNK9__gnu_cxx17__normal_iteratorIPP24ggml_backend_buffer_typeSt6vectorIS2_SaIS2_EEE4baseEv"
 "_ZNK9__gnu_cxx17__normal_iteratorIPSt10unique_ptrI12ggml_backend20ggml_backend_deleterESt6vectorIS4_SaIS4_EEE4baseEv"
 "_ZNK9__gnu_cxx17__normal_iteratorIPSt10unique_ptrI12ggml_backend20ggml_backend_deleterESt6vectorIS4_SaIS4_EEEdeEv"
 "_ZNK9__gnu_cxx17__normal_iteratorIPSt10unique_ptrI12ggml_backend20ggml_backend_deleterESt6vectorIS4_SaIS4_EEEmiEx"
 "_ZNK9__gnu_cxx17__normal_iteratorIPSt4pairIP12ggml_backendPFvS3_iEESt6vectorIS6_SaIS6_EEE4baseEv"
 "_ZNK9__gnu_cxx17__normal_iteratorIPSt4pairIP12ggml_backendPFvS3_iEESt6vectorIS6_SaIS6_EEEdeEv"
 "_ZNK9__gnu_cxx17__normal_iteratorIPSt4pairIP12ggml_backendPFvS3_iEESt6vectorIS6_SaIS6_EEEmiEx"
 "_ZNKSt10_HashtableIP18llama_adapter_loraSt4pairIKS1_fESaIS4_ENSt8__detail10_Select1stESt8equal_toIS1_ESt4hashIS1_ENS6_18_Mod_range_hashingENS6_20_Default_ranged_hashENS6_20_Prime_rehash_policyENS6_17_Hashtable_traitsILb0ELb0ELb1EEEE12_M_find_nodeEyRS3_y"
 "_ZNKSt10_HashtableIP18llama_adapter_loraSt4pairIKS1_fESaIS4_ENSt8__detail10_Select1stESt8equal_toIS1_ESt4hashIS1_ENS6_18_Mod_range_hashingENS6_20_Default_ranged_hashENS6_20_Prime_rehash_policyENS6_17_Hashtable_traitsILb0ELb0ELb1EEEE15_M_bucket_indexERKNS6_16_Hash_node_valueIS4_Lb0EEE"
 "_ZNKSt10_HashtableIP18llama_adapter_loraSt4pairIKS1_fESaIS4_ENSt8__detail10_Select1stESt8equal_toIS1_ESt4hashIS1_ENS6_18_Mod_range_hashingENS6_20_Default_ranged_hashENS6_20_Prime_rehash_policyENS6_17_Hashtable_traitsILb0ELb0ELb1EEEE15_M_bucket_indexEy"
 "_ZNKSt10_HashtableIP18llama_adapter_loraSt4pairIKS1_fESaIS4_ENSt8__detail10_Select1stESt8equal_toIS1_ESt4hashIS1_ENS6_18_Mod_range_hashingENS6_20_Default_ranged_hashENS6_20_Prime_rehash_policyENS6_17_Hashtable_traitsILb0ELb0ELb1EEEE19_M_find_before_nodeEyRS3_y"
 "_ZNKSt10_HashtableIP18llama_adapter_loraSt4pairIKS1_fESaIS4_ENSt8__detail10_Select1stESt8equal_toIS1_ESt4hashIS1_ENS6_18_Mod_range_hashingENS6_20_Default_ranged_hashENS6_20_Prime_rehash_policyENS6_17_Hashtable_traitsILb0ELb0ELb1EEEE21_M_uses_single_bucketEPPNS6_15_Hash_node_baseE"
 "_ZNKSt10_HashtableIP18llama_adapter_loraSt4pairIKS1_fESaIS4_ENSt8__detail10_Select1stESt8equal_toIS1_ESt4hashIS1_ENS6_18_Mod_range_hashingENS6_20_Default_ranged_hashENS6_20_Prime_rehash_policyENS6_17_Hashtable_traitsILb0ELb0ELb1EEEE4sizeEv"
 "_ZNKSt10_HashtableIP18llama_adapter_loraSt4pairIKS1_fESaIS4_ENSt8__detail10_Select1stESt8equal_toIS1_ESt4hashIS1_ENS6_18_Mod_range_hashingENS6_20_Default_ranged_hashENS6_20_Prime_rehash_policyENS6_17_Hashtable_traitsILb0ELb0ELb1EEEE8_M_beginEv"
 "_ZNKSt10_HashtableISt6bitsetILy64EESt4pairIKS1_St6vectorIiSaIiEEESaIS7_ENSt8__detail10_Select1stESt8equal_toIS1_ESt4hashIS1_ENS9_18_Mod_range_hashingENS9_20_Default_ranged_hashENS9_20_Prime_rehash_policyENS9_17_Hashtable_traitsILb0ELb0ELb1EEEE21_M_uses_single_bucketEPPNS9_15_Hash_node_baseE"
 "_ZNKSt10_HashtableISt6bitsetILy64EESt4pairIKS1_St6vectorIiSaIiEEESaIS7_ENSt8__detail10_Select1stESt8equal_toIS1_ESt4hashIS1_ENS9_18_Mod_range_hashingENS9_20_Default_ranged_hashENS9_20_Prime_rehash_policyENS9_17_Hashtable_traitsILb0ELb0ELb1EEEE8_M_beginEv"
 "_ZNKSt10_Select1stISt4pairIKiSt6vectorIfSaIfEEEEclERKS5_"
 "_ZNKSt10unique_ptrI12ggml_backend20ggml_backend_deleterE3getEv"
 "_ZNKSt10unique_ptrI14llama_memory_iSt14default_deleteIS0_EE3getEv"
 "_ZNKSt10unique_ptrI14llama_memory_iSt14default_deleteIS0_EEcvbEv"
 "_ZNKSt10unique_ptrI14llama_memory_iSt14default_deleteIS0_EEptEv"
 "_ZNKSt10unique_ptrI16llm_graph_resultSt14default_deleteIS0_EE3getEv"
 "_ZNKSt10unique_ptrI16llm_graph_resultSt14default_deleteIS0_EEptEv"
 "_ZNKSt10unique_ptrI18ggml_backend_sched26ggml_backend_sched_deleterE3getEv"
 "_ZNKSt10unique_ptrI18llama_batch_allocrSt14default_deleteIS0_EE3getEv"
 "_ZNKSt10unique_ptrI18llama_batch_allocrSt14default_deleteIS0_EEdeEv"
 "_ZNKSt10unique_ptrI18llama_batch_allocrSt14default_deleteIS0_EEptEv"
 "_ZNKSt10unique_ptrI19ggml_backend_buffer27ggml_backend_buffer_deleterE3getEv"
 "_ZNKSt10unique_ptrI19ggml_backend_buffer27ggml_backend_buffer_deleterEcvbEv"
 "_ZNKSt10unique_ptrI22llama_memory_context_iSt14default_deleteIS0_EE3getEv"
 "_ZNKSt10unique_ptrI22llama_memory_context_iSt14default_deleteIS0_EEcvbEv"
 "_ZNKSt10unique_ptrI22llama_memory_context_iSt14default_deleteIS0_EEptEv"
 "_ZNKSt12_Vector_baseIfSaIfEE19_M_get_Tp_allocatorEv"
 "_ZNKSt12_Vector_baseIhSaIhEE19_M_get_Tp_allocatorEv"
 "_ZNKSt12_Vector_baseIiSaIiEE19_M_get_Tp_allocatorEv"
 "_ZNKSt12_Vector_baseIN13llama_context9swap_infoESaIS1_EE19_M_get_Tp_allocatorEv"
 "_ZNKSt12_Vector_baseIP12ggml_backendSaIS1_EE19_M_get_Tp_allocatorEv"
 "_ZNKSt12_Vector_baseIP24ggml_backend_buffer_typeSaIS1_EE19_M_get_Tp_allocatorEv"
 "_ZNKSt12_Vector_baseISt10unique_ptrI12ggml_backend20ggml_backend_deleterESaIS3_EE19_M_get_Tp_allocatorEv"
 "_ZNKSt12_Vector_baseISt3setIiSt4lessIiESaIiEESaIS4_EE19_M_get_Tp_allocatorEv"
 "_ZNKSt12_Vector_baseISt4pairIP12ggml_backendPFvS2_iEESaIS5_EE19_M_get_Tp_allocatorEv"
 "_ZNKSt13_Bvector_baseISaIbEE13_Bvector_impl11_M_end_addrEv"
 "_ZNKSt13_Rb_tree_nodeIiE9_M_valptrEv"
 "_ZNKSt13_Rb_tree_nodeISt4pairIKiSt6vectorIfSaIfEEEE9_M_valptrEv"
 "_ZNKSt14default_deleteI14llama_memory_iEclEPS0_"
 "_ZNKSt14default_deleteI16llm_graph_resultEclEPS0_"
 "_ZNKSt14default_deleteI18llama_batch_allocrEclEPS0_"
 "_ZNKSt14default_deleteI22llama_memory_context_iEclEPS0_"
 "_ZNKSt15__uniq_ptr_implI12ggml_backend20ggml_backend_deleterE6_M_ptrEv"
 "_ZNKSt15__uniq_ptr_implI14llama_memory_iSt14default_deleteIS0_EE6_M_ptrEv"
 "_ZNKSt15__uniq_ptr_implI16llm_graph_resultSt14default_deleteIS0_EE6_M_ptrEv"
 "_ZNKSt15__uniq_ptr_implI18ggml_backend_sched26ggml_backend_sched_deleterE6_M_ptrEv"
 "_ZNKSt15__uniq_ptr_implI18llama_batch_allocrSt14default_deleteIS0_EE6_M_ptrEv"
 "_ZNKSt15__uniq_ptr_implI19ggml_backend_buffer27ggml_backend_buffer_deleterE6_M_ptrEv"
 "_ZNKSt15__uniq_ptr_implI22llama_memory_context_iSt14default_deleteIS0_EE6_M_ptrEv"
 "_ZNKSt17_Rb_tree_iteratorISt4pairIKiSt6vectorIfSaIfEEEEdeEv"
 "_ZNKSt17_Rb_tree_iteratorISt4pairIKiSt6vectorIfSaIfEEEEptEv"
 "_ZNKSt23_Rb_tree_const_iteratorISt4pairIKiSt6vectorIfSaIfEEEE13_M_const_castEv"
 "_ZNKSt3mapIiSt6vectorIfSaIfEESt4lessIiESaISt4pairIKiS2_EEE8key_compEv"
 "_ZNKSt4hashIP18llama_adapter_loraEclES1_"
 "_ZNKSt4lessIiEclERKiS2_"
 "_ZNKSt6vectorIfSaIfEE11_M_data_ptrIfEEPT_S4_"
 "_ZNKSt6vectorIfSaIfEE12_M_check_lenEyPKc"
 "_ZNKSt6vectorIfSaIfEE4sizeEv"
 "_ZNKSt6vectorIfSaIfEE8max_sizeEv"
 "_ZNKSt6vectorIhSaIhEE11_M_data_ptrIhEEPT_S4_"
 "_ZNKSt6vectorIhSaIhEE12_M_check_lenEyPKc"
 "_ZNKSt6vectorIhSaIhEE4sizeEv"
 "_ZNKSt6vectorIhSaIhEE8max_sizeEv"
 "_ZNKSt6vectorIiSaIiEE11_M_data_ptrIiEEPT_S4_"
 "_ZNKSt6vectorIiSaIiEE12_M_check_lenEyPKc"
 "_ZNKSt6vectorIiSaIiEE3endEv"
 "_ZNKSt6vectorIiSaIiEE4sizeEv"
 "_ZNKSt6vectorIiSaIiEE5beginEv"
 "_ZNKSt6vectorIiSaIiEE5emptyEv"
 "_ZNKSt6vectorIiSaIiEE8max_sizeEv"
 "_ZNKSt6vectorIiSaIiEEixEy"
 "_ZNKSt6vectorIN13llama_context9swap_infoESaIS1_EE12_M_check_lenEyPKc"
 "_ZNKSt6vectorIN13llama_context9swap_infoESaIS1_EE4sizeEv"
 "_ZNKSt6vectorIN13llama_context9swap_infoESaIS1_EE8max_sizeEv"
 "_ZNKSt6vectorIP12ggml_backendSaIS1_EE11_M_data_ptrIS1_EEPT_S6_"
 "_ZNKSt6vectorIP12ggml_backendSaIS1_EE12_M_check_lenEyPKc"
 "_ZNKSt6vectorIP12ggml_backendSaIS1_EE4sizeEv"
 "_ZNKSt6vectorIP12ggml_backendSaIS1_EE8max_sizeEv"
 "_ZNKSt6vectorIP19ggml_backend_deviceSaIS1_EE3endEv"
 "_ZNKSt6vectorIP19ggml_backend_deviceSaIS1_EE5beginEv"
 "_ZNKSt6vectorIP19ggml_backend_deviceSaIS1_EE5emptyEv"
 "_ZNKSt6vectorIP19ggml_backend_deviceSaIS1_EEixEy"
 "_ZNKSt6vectorIP24ggml_backend_buffer_typeSaIS1_EE11_M_data_ptrIS1_EEPT_S6_"
 "_ZNKSt6vectorIP24ggml_backend_buffer_typeSaIS1_EE12_M_check_lenEyPKc"
 "_ZNKSt6vectorIP24ggml_backend_buffer_typeSaIS1_EE4sizeEv"
 "_ZNKSt6vectorIP24ggml_backend_buffer_typeSaIS1_EE8max_sizeEv"
 "_ZNKSt6vectorISt10unique_ptrI12ggml_backend20ggml_backend_deleterESaIS3_EE12_M_check_lenEyPKc"
 "_ZNKSt6vectorISt10unique_ptrI12ggml_backend20ggml_backend_deleterESaIS3_EE3endEv"
 "_ZNKSt6vectorISt10unique_ptrI12ggml_backend20ggml_backend_deleterESaIS3_EE4sizeEv"
 "_ZNKSt6vectorISt10unique_ptrI12ggml_backend20ggml_backend_deleterESaIS3_EE5beginEv"
 "_ZNKSt6vectorISt10unique_ptrI12ggml_backend20ggml_backend_deleterESaIS3_EE8max_sizeEv"
 "_ZNKSt6vectorISt3setIiSt4lessIiESaIiEESaIS4_EE12_M_check_lenEyPKc"
 "_ZNKSt6vectorISt3setIiSt4lessIiESaIiEESaIS4_EE4sizeEv"
 "_ZNKSt6vectorISt3setIiSt4lessIiESaIiEESaIS4_EE8max_sizeEv"
 "_ZNKSt6vectorISt4pairIP12ggml_backendPFvS2_iEESaIS5_EE12_M_check_lenEyPKc"
 "_ZNKSt6vectorISt4pairIP12ggml_backendPFvS2_iEESaIS5_EE4sizeEv"
 "_ZNKSt6vectorISt4pairIP12ggml_backendPFvS2_iEESaIS5_EE8max_sizeEv"
 "_ZNKSt8__detail10_Hash_nodeISt4pairIKP18llama_adapter_lorafELb0EE7_M_nextEv"
 "_ZNKSt8__detail10_Hash_nodeISt4pairIKSt6bitsetILy64EESt6vectorIiSaIiEEELb0EE7_M_nextEv"
 "_ZNKSt8__detail10_Select1stclIRKSt4pairIKP18llama_adapter_lorafEEEONS0_10__1st_typeIT_E4typeEOSA_"
 "_ZNKSt8__detail14_Node_iteratorISt4pairIKP18llama_adapter_lorafELb0ELb0EEptEv"
 "_ZNKSt8__detail15_Hash_code_baseIP18llama_adapter_loraSt4pairIKS2_fENS_10_Select1stESt4hashIS2_ENS_18_Mod_range_hashingENS_20_Default_ranged_hashELb0EE12_M_hash_codeERS4_"
 "_ZNKSt8__detail15_Hash_code_baseIP18llama_adapter_loraSt4pairIKS2_fENS_10_Select1stESt4hashIS2_ENS_18_Mod_range_hashingENS_20_Default_ranged_hashELb0EE13_M_store_codeERNS_21_Hash_node_code_cacheILb0EEEy"
 "_ZNKSt8__detail15_Hash_code_baseIP18llama_adapter_loraSt4pairIKS2_fENS_10_Select1stESt4hashIS2_ENS_18_Mod_range_hashingENS_20_Default_ranged_hashELb0EE15_M_bucket_indexERKNS_16_Hash_node_valueIS5_Lb0EEEy"
 "_ZNKSt8__detail15_Hash_code_baseIP18llama_adapter_loraSt4pairIKS2_fENS_10_Select1stESt4hashIS2_ENS_18_Mod_range_hashingENS_20_Default_ranged_hashELb0EE15_M_bucket_indexEyy"
 "_ZNKSt8__detail15_Hash_code_baseIP18llama_adapter_loraSt4pairIKS2_fENS_10_Select1stESt4hashIS2_ENS_18_Mod_range_hashingENS_20_Default_ranged_hashELb0EE7_M_hashEv"
 "_ZNKSt8__detail15_Hashtable_baseIP18llama_adapter_loraSt4pairIKS2_fENS_10_Select1stESt8equal_toIS2_ESt4hashIS2_ENS_18_Mod_range_hashingENS_20_Default_ranged_hashENS_17_Hashtable_traitsILb0ELb0ELb1EEEE13_M_key_equalsERS4_RKNS_16_Hash_node_valueIS5_Lb0EEE"
 "_ZNKSt8__detail15_Hashtable_baseIP18llama_adapter_loraSt4pairIKS2_fENS_10_Select1stESt8equal_toIS2_ESt4hashIS2_ENS_18_Mod_range_hashingENS_20_Default_ranged_hashENS_17_Hashtable_traitsILb0ELb0ELb1EEEE5_M_eqEv"
 "_ZNKSt8__detail15_Hashtable_baseIP18llama_adapter_loraSt4pairIKS2_fENS_10_Select1stESt8equal_toIS2_ESt4hashIS2_ENS_18_Mod_range_hashingENS_20_Default_ranged_hashENS_17_Hashtable_traitsILb0ELb0ELb1EEEE9_M_equalsERS4_yRKNS_16_Hash_node_valueIS5_Lb0EEE"
 "_ZNKSt8__detail18_Mod_range_hashingclEyy"
 "_ZNKSt8__detail20_Prime_rehash_policy8_M_stateEv"
 "_ZNKSt8__detail21_Hashtable_ebo_helperILi0ESt8equal_toIP18llama_adapter_loraELb1EE7_M_cgetEv"
 "_ZNKSt8__detail21_Hashtable_ebo_helperILi1ESt4hashIP18llama_adapter_loraELb1EE7_M_cgetEv"
 "_ZNKSt8_Rb_treeIiiSt9_IdentityIiESt4lessIiESaIiEE11_Alloc_nodeclIRKiEEPSt13_Rb_tree_nodeIiEOT_"
 "_ZNKSt8_Rb_treeIiiSt9_IdentityIiESt4lessIiESaIiEE9_M_mbeginEv"
 "_ZNKSt8_Rb_treeIiSt4pairIKiSt6vectorIfSaIfEEESt10_Select1stIS5_ESt4lessIiESaIS5_EE10_Auto_node6_M_keyEv"
 "_ZNKSt8_Rb_treeIiSt4pairIKiSt6vectorIfSaIfEEESt10_Select1stIS5_ESt4lessIiESaIS5_EE4sizeEv"
 "_ZNKSt8_Rb_treeIiSt4pairIKiSt6vectorIfSaIfEEESt10_Select1stIS5_ESt4lessIiESaIS5_EE8key_compEv"
 "_ZNKSt8_Rb_treeIiSt4pairIKiSt6vectorIfSaIfEEESt10_Select1stIS5_ESt4lessIiESaIS5_EE9_M_mbeginEv"
 "_ZNKSt8equal_toIP18llama_adapter_loraEclERKS1_S4_"
 "_ZNKSt9_Any_data9_M_accessEv"
 "_ZNKSt9_IdentityIiEclERKi"
 "_ZNSt10_HashtableIP18llama_adapter_loraSt4pairIKS1_fESaIS4_ENSt8__detail10_Select1stESt8equal_toIS1_ESt4hashIS1_ENS6_18_Mod_range_hashingENS6_20_Default_ranged_hashENS6_20_Prime_rehash_policyENS6_17_Hashtable_traitsILb0ELb0ELb1EEEE12_Scoped_nodeC1IJRKSt21piecewise_construct_tSt5tupleIJRS3_EESN_IJEEEEEPNS6_16_Hashtable_allocISaINS6_10_Hash_nodeIS4_Lb0EEEEEEDpOT_"
 "_ZNSt10_HashtableIP18llama_adapter_loraSt4pairIKS1_fESaIS4_ENSt8__detail10_Select1stESt8equal_toIS1_ESt4hashIS1_ENS6_18_Mod_range_hashingENS6_20_Default_ranged_hashENS6_20_Prime_rehash_policyENS6_17_Hashtable_traitsILb0ELb0ELb1EEEE12_Scoped_nodeD1Ev"
 "_ZNSt10_HashtableIP18llama_adapter_loraSt4pairIKS1_fESaIS4_ENSt8__detail10_Select1stESt8equal_toIS1_ESt4hashIS1_ENS6_18_Mod_range_hashingENS6_20_Default_ranged_hashENS6_20_Prime_rehash_policyENS6_17_Hashtable_traitsILb0ELb0ELb1EEEE13_M_rehash_auxEySt17integral_constantIbLb1EE"
 "_ZNSt10_HashtableIP18llama_adapter_loraSt4pairIKS1_fESaIS4_ENSt8__detail10_Select1stESt8equal_toIS1_ESt4hashIS1_ENS6_18_Mod_range_hashingENS6_20_Default_ranged_hashENS6_20_Prime_rehash_policyENS6_17_Hashtable_traitsILb0ELb0ELb1EEEE19_M_allocate_bucketsEy"
 "_ZNSt10_HashtableIP18llama_adapter_loraSt4pairIKS1_fESaIS4_ENSt8__detail10_Select1stESt8equal_toIS1_ESt4hashIS1_ENS6_18_Mod_range_hashingENS6_20_Default_ranged_hashENS6_20_Prime_rehash_policyENS6_17_Hashtable_traitsILb0ELb0ELb1EEEE20_M_get_previous_nodeEyPNS6_10_Hash_nodeIS4_Lb0EEE"
 "_ZNSt10_HashtableIP18llama_adapter_loraSt4pairIKS1_fESaIS4_ENSt8__detail10_Select1stESt8equal_toIS1_ESt4hashIS1_ENS6_18_Mod_range_hashingENS6_20_Default_ranged_hashENS6_20_Prime_rehash_policyENS6_17_Hashtable_traitsILb0ELb0ELb1EEEE21_M_deallocate_bucketsEPPNS6_15_Hash_node_baseEy"
 "_ZNSt10_HashtableIP18llama_adapter_loraSt4pairIKS1_fESaIS4_ENSt8__detail10_Select1stESt8equal_toIS1_ESt4hashIS1_ENS6_18_Mod_range_hashingENS6_20_Default_ranged_hashENS6_20_Prime_rehash_policyENS6_17_Hashtable_traitsILb0ELb0ELb1EEEE21_M_deallocate_bucketsEv"
 "_ZNSt10_HashtableIP18llama_adapter_loraSt4pairIKS1_fESaIS4_ENSt8__detail10_Select1stESt8equal_toIS1_ESt4hashIS1_ENS6_18_Mod_range_hashingENS6_20_Default_ranged_hashENS6_20_Prime_rehash_policyENS6_17_Hashtable_traitsILb0ELb0ELb1EEEE21_M_insert_unique_nodeEyyPNS6_10_Hash_nodeIS4_Lb0EEEy"
 "_ZNSt10_HashtableIP18llama_adapter_loraSt4pairIKS1_fESaIS4_ENSt8__detail10_Select1stESt8equal_toIS1_ESt4hashIS1_ENS6_18_Mod_range_hashingENS6_20_Default_ranged_hashENS6_20_Prime_rehash_policyENS6_17_Hashtable_traitsILb0ELb0ELb1EEEE22__small_size_thresholdEv"
 "_ZNSt10_HashtableIP18llama_adapter_loraSt4pairIKS1_fESaIS4_ENSt8__detail10_Select1stESt8equal_toIS1_ESt4hashIS1_ENS6_18_Mod_range_hashingENS6_20_Default_ranged_hashENS6_20_Prime_rehash_policyENS6_17_Hashtable_traitsILb0ELb0ELb1EEEE22_M_insert_bucket_beginEyPNS6_10_Hash_nodeIS4_Lb0EEE"
 "_ZNSt10_HashtableIP18llama_adapter_loraSt4pairIKS1_fESaIS4_ENSt8__detail10_Select1stESt8equal_toIS1_ESt4hashIS1_ENS6_18_Mod_range_hashingENS6_20_Default_ranged_hashENS6_20_Prime_rehash_policyENS6_17_Hashtable_traitsILb0ELb0ELb1EEEE22_M_remove_bucket_beginEyPNS6_10_Hash_nodeIS4_Lb0EEEy"
 "_ZNSt10_HashtableIP18llama_adapter_loraSt4pairIKS1_fESaIS4_ENSt8__detail10_Select1stESt8equal_toIS1_ESt4hashIS1_ENS6_18_Mod_range_hashingENS6_20_Default_ranged_hashENS6_20_Prime_rehash_policyENS6_17_Hashtable_traitsILb0ELb0ELb1EEEE3endEv"
 "_ZNSt10_HashtableIP18llama_adapter_loraSt4pairIKS1_fESaIS4_ENSt8__detail10_Select1stESt8equal_toIS1_ESt4hashIS1_ENS6_18_Mod_range_hashingENS6_20_Default_ranged_hashENS6_20_Prime_rehash_policyENS6_17_Hashtable_traitsILb0ELb0ELb1EEEE4findERS3_"
 "_ZNSt10_HashtableIP18llama_adapter_loraSt4pairIKS1_fESaIS4_ENSt8__detail10_Select1stESt8equal_toIS1_ESt4hashIS1_ENS6_18_Mod_range_hashingENS6_20_Default_ranged_hashENS6_20_Prime_rehash_policyENS6_17_Hashtable_traitsILb0ELb0ELb1EEEE5beginEv"
 "_ZNSt10_HashtableIP18llama_adapter_loraSt4pairIKS1_fESaIS4_ENSt8__detail10_Select1stESt8equal_toIS1_ESt4hashIS1_ENS6_18_Mod_range_hashingENS6_20_Default_ranged_hashENS6_20_Prime_rehash_policyENS6_17_Hashtable_traitsILb0ELb0ELb1EEEE5clearEv"
 "_ZNSt10_HashtableIP18llama_adapter_loraSt4pairIKS1_fESaIS4_ENSt8__detail10_Select1stESt8equal_toIS1_ESt4hashIS1_ENS6_18_Mod_range_hashingENS6_20_Default_ranged_hashENS6_20_Prime_rehash_policyENS6_17_Hashtable_traitsILb0ELb0ELb1EEEE5eraseENS6_14_Node_iteratorIS4_Lb0ELb0EEE"
 "_ZNSt10_HashtableIP18llama_adapter_loraSt4pairIKS1_fESaIS4_ENSt8__detail10_Select1stESt8equal_toIS1_ESt4hashIS1_ENS6_18_Mod_range_hashingENS6_20_Default_ranged_hashENS6_20_Prime_rehash_policyENS6_17_Hashtable_traitsILb0ELb0ELb1EEEE5eraseENS6_20_Node_const_iteratorIS4_Lb0ELb0EEE"
 "_ZNSt10_HashtableIP18llama_adapter_loraSt4pairIKS1_fESaIS4_ENSt8__detail10_Select1stESt8equal_toIS1_ESt4hashIS1_ENS6_18_Mod_range_hashingENS6_20_Default_ranged_hashENS6_20_Prime_rehash_policyENS6_17_Hashtable_traitsILb0ELb0ELb1EEEE8_M_eraseEyPNS6_15_Hash_node_baseEPNS6_10_Hash_nodeIS4_Lb0EEE"
 "_ZNSt10_HashtableIP18llama_adapter_loraSt4pairIKS1_fESaIS4_ENSt8__detail10_Select1stESt8equal_toIS1_ESt4hashIS1_ENS6_18_Mod_range_hashingENS6_20_Default_ranged_hashENS6_20_Prime_rehash_policyENS6_17_Hashtable_traitsILb0ELb0ELb1EEEE9_M_rehashEyRKy"
 "_ZNSt10_HashtableIP18llama_adapter_loraSt4pairIKS1_fESaIS4_ENSt8__detail10_Select1stESt8equal_toIS1_ESt4hashIS1_ENS6_18_Mod_range_hashingENS6_20_Default_ranged_hashENS6_20_Prime_rehash_policyENS6_17_Hashtable_traitsILb0ELb0ELb1EEEEC1Ev"
 "_ZNSt10_HashtableIP18llama_adapter_loraSt4pairIKS1_fESaIS4_ENSt8__detail10_Select1stESt8equal_toIS1_ESt4hashIS1_ENS6_18_Mod_range_hashingENS6_20_Default_ranged_hashENS6_20_Prime_rehash_policyENS6_17_Hashtable_traitsILb0ELb0ELb1EEEED1Ev"
 "_ZNSt10_HashtableISt6bitsetILy64EESt4pairIKS1_St6vectorIiSaIiEEESaIS7_ENSt8__detail10_Select1stESt8equal_toIS1_ESt4hashIS1_ENS9_18_Mod_range_hashingENS9_20_Default_ranged_hashENS9_20_Prime_rehash_policyENS9_17_Hashtable_traitsILb0ELb0ELb1EEEE21_M_deallocate_bucketsEPPNS9_15_Hash_node_baseEy"
 "_ZNSt10_HashtableISt6bitsetILy64EESt4pairIKS1_St6vectorIiSaIiEEESaIS7_ENSt8__detail10_Select1stESt8equal_toIS1_ESt4hashIS1_ENS9_18_Mod_range_hashingENS9_20_Default_ranged_hashENS9_20_Prime_rehash_policyENS9_17_Hashtable_traitsILb0ELb0ELb1EEEE21_M_deallocate_bucketsEv"
 "_ZNSt10_HashtableISt6bitsetILy64EESt4pairIKS1_St6vectorIiSaIiEEESaIS7_ENSt8__detail10_Select1stESt8equal_toIS1_ESt4hashIS1_ENS9_18_Mod_range_hashingENS9_20_Default_ranged_hashENS9_20_Prime_rehash_policyENS9_17_Hashtable_traitsILb0ELb0ELb1EEEE5clearEv"
 "_ZNSt10_HashtableISt6bitsetILy64EESt4pairIKS1_St6vectorIiSaIiEEESaIS7_ENSt8__detail10_Select1stESt8equal_toIS1_ESt4hashIS1_ENS9_18_Mod_range_hashingENS9_20_Default_ranged_hashENS9_20_Prime_rehash_policyENS9_17_Hashtable_traitsILb0ELb0ELb1EEEED1Ev"
 "_ZNSt10_Head_baseILy0EP12ggml_backendLb0EE7_M_headERKS2_"
 "_ZNSt10_Head_baseILy0EP12ggml_backendLb0EE7_M_headERS2_"
 "_ZNSt10_Head_baseILy0EP12ggml_backendLb0EEC2Ev"
 "_ZNSt10_Head_baseILy0EP12ggml_contextLb0EE7_M_headERS2_"
 "_ZNSt10_Head_baseILy0EP14llama_memory_iLb0EE7_M_headERKS2_"
 "_ZNSt10_Head_baseILy0EP14llama_memory_iLb0EE7_M_headERS2_"
 "_ZNSt10_Head_baseILy0EP14llama_memory_iLb0EEC2Ev"
 "_ZNSt10_Head_baseILy0EP16llm_graph_resultLb0EE7_M_headERKS2_"
 "_ZNSt10_Head_baseILy0EP16llm_graph_resultLb0EE7_M_headERS2_"
 "_ZNSt10_Head_baseILy0EP16llm_graph_resultLb0EEC2Ev"
 "_ZNSt10_Head_baseILy0EP18ggml_backend_schedLb0EE7_M_headERKS2_"
 "_ZNSt10_Head_baseILy0EP18ggml_backend_schedLb0EE7_M_headERS2_"
 "_ZNSt10_Head_baseILy0EP18ggml_backend_schedLb0EEC2Ev"
 "_ZNSt10_Head_baseILy0EP18llama_batch_allocrLb0EE7_M_headERKS2_"
 "_ZNSt10_Head_baseILy0EP18llama_batch_allocrLb0EE7_M_headERS2_"
 "_ZNSt10_Head_baseILy0EP18llama_batch_allocrLb0EEC2Ev"
 "_ZNSt10_Head_baseILy0EP19ggml_backend_bufferLb0EE7_M_headERKS2_"
 "_ZNSt10_Head_baseILy0EP19ggml_backend_bufferLb0EE7_M_headERS2_"
 "_ZNSt10_Head_baseILy0EP19ggml_backend_bufferLb0EEC2Ev"
 "_ZNSt10_Head_baseILy0EP22llama_memory_context_iLb0EE7_M_headERKS2_"
 "_ZNSt10_Head_baseILy0EP22llama_memory_context_iLb0EE7_M_headERS2_"
 "_ZNSt10_Head_baseILy0ERKiLb0EE7_M_headERS2_"
 "_ZNSt10_Head_baseILy0ERKiLb0EEC2ES1_"
 "_ZNSt10_Head_baseILy0ERKP18llama_adapter_loraLb0EE7_M_headERS4_"
 "_ZNSt10_Head_baseILy0ERKP18llama_adapter_loraLb0EEC2ES3_"
 "_ZNSt10_Head_baseILy1E20ggml_backend_deleterLb1EE7_M_headERS1_"
 "_ZNSt10_Head_baseILy1E20ggml_backend_deleterLb1EEC2Ev"
 "_ZNSt10_Head_baseILy1E20ggml_context_deleterLb1EE7_M_headERS1_"
 "_ZNSt10_Head_baseILy1E26ggml_backend_sched_deleterLb1EE7_M_headERS1_"
 "_ZNSt10_Head_baseILy1E26ggml_backend_sched_deleterLb1EEC2Ev"
 "_ZNSt10_Head_baseILy1E27ggml_backend_buffer_deleterLb1EE7_M_headERS1_"
 "_ZNSt10_Head_baseILy1E27ggml_backend_buffer_deleterLb1EEC2Ev"
 "_ZNSt10_Head_baseILy1ESt14default_deleteI14llama_memory_iELb1EE7_M_headERS3_"
 "_ZNSt10_Head_baseILy1ESt14default_deleteI14llama_memory_iELb1EEC2Ev"
 "_ZNSt10_Head_baseILy1ESt14default_deleteI16llm_graph_resultELb1EE7_M_headERS3_"
 "_ZNSt10_Head_baseILy1ESt14default_deleteI16llm_graph_resultELb1EEC2Ev"
 "_ZNSt10_Head_baseILy1ESt14default_deleteI18llama_batch_allocrELb1EE7_M_headERS3_"
 "_ZNSt10_Head_baseILy1ESt14default_deleteI18llama_batch_allocrELb1EEC2Ev"
 "_ZNSt10_Head_baseILy1ESt14default_deleteI22llama_memory_context_iELb1EE7_M_headERS3_"
 "_ZNSt10shared_ptrIN12llama_ubatch6data_tEEC1ERKS2_"
 "_ZNSt10shared_ptrIN12llama_ubatch6data_tEED1Ev"
 "_ZNSt10unique_ptrI12ggml_backend20ggml_backend_deleterE11get_deleterEv"
 "_ZNSt10unique_ptrI12ggml_backend20ggml_backend_deleterEC1EOS2_"
 "_ZNSt10unique_ptrI12ggml_backend20ggml_backend_deleterEC1IS1_vEEPS0_"
 "_ZNSt10unique_ptrI12ggml_backend20ggml_backend_deleterED1Ev"
 "_ZNSt10unique_ptrI12ggml_context20ggml_context_deleterE11get_deleterEv"
 "_ZNSt10unique_ptrI12ggml_context20ggml_context_deleterED1Ev"
 "_ZNSt10unique_ptrI14llama_memory_iSt14default_deleteIS0_EE11get_deleterEv"
 "_ZNSt10unique_ptrI14llama_memory_iSt14default_deleteIS0_EE5resetEPS0_"
 "_ZNSt10unique_ptrI14llama_memory_iSt14default_deleteIS0_EEC1IS2_vEEv"
 "_ZNSt10unique_ptrI14llama_memory_iSt14default_deleteIS0_EED1Ev"
 "_ZNSt10unique_ptrI16llm_graph_resultSt14default_deleteIS0_EE11get_deleterEv"
 "_ZNSt10unique_ptrI16llm_graph_resultSt14default_deleteIS0_EE5resetEPS0_"
 "_ZNSt10unique_ptrI16llm_graph_resultSt14default_deleteIS0_EEC1IS2_vEEv"
 "_ZNSt10unique_ptrI16llm_graph_resultSt14default_deleteIS0_EED1Ev"
 "_ZNSt10unique_ptrI18ggml_backend_sched26ggml_backend_sched_deleterE11get_deleterEv"
 "_ZNSt10unique_ptrI18ggml_backend_sched26ggml_backend_sched_deleterE5resetEPS0_"
 "_ZNSt10unique_ptrI18ggml_backend_sched26ggml_backend_sched_deleterEC1IS1_vEEv"
 "_ZNSt10unique_ptrI18ggml_backend_sched26ggml_backend_sched_deleterED1Ev"
 "_ZNSt10unique_ptrI18llama_batch_allocrSt14default_deleteIS0_EE11get_deleterEv"
 "_ZNSt10unique_ptrI18llama_batch_allocrSt14default_deleteIS0_EEC1IS2_vEEPS0_"
 "_ZNSt10unique_ptrI18llama_batch_allocrSt14default_deleteIS0_EED1Ev"
 "_ZNSt10unique_ptrI19ggml_backend_buffer27ggml_backend_buffer_deleterE11get_deleterEv"
 "_ZNSt10unique_ptrI19ggml_backend_buffer27ggml_backend_buffer_deleterE5resetEPS0_"
 "_ZNSt10unique_ptrI19ggml_backend_buffer27ggml_backend_buffer_deleterEaSEDn"
 "_ZNSt10unique_ptrI19ggml_backend_buffer27ggml_backend_buffer_deleterEC1IS1_vEEv"
 "_ZNSt10unique_ptrI19ggml_backend_buffer27ggml_backend_buffer_deleterED1Ev"
 "_ZNSt10unique_ptrI22llama_memory_context_iSt14default_deleteIS0_EE11get_deleterEv"
 "_ZNSt10unique_ptrI22llama_memory_context_iSt14default_deleteIS0_EEaSEOS3_"
 "_ZNSt10unique_ptrI22llama_memory_context_iSt14default_deleteIS0_EED1Ev"
 "_ZNSt11_Tuple_implILy0EJP12ggml_backend20ggml_backend_deleterEE7_M_headERKS3_"
 "_ZNSt11_Tuple_implILy0EJP12ggml_backend20ggml_backend_deleterEE7_M_headERS3_"
 "_ZNSt11_Tuple_implILy0EJP12ggml_backend20ggml_backend_deleterEEC2EOS3_"
 "_ZNSt11_Tuple_implILy0EJP12ggml_backend20ggml_backend_deleterEEC2Ev"
 "_ZNSt11_Tuple_implILy0EJP12ggml_context20ggml_context_deleterEE7_M_headERS3_"
 "_ZNSt11_Tuple_implILy0EJP14llama_memory_iSt14default_deleteIS0_EEE7_M_headERKS4_"
 "_ZNSt11_Tuple_implILy0EJP14llama_memory_iSt14default_deleteIS0_EEE7_M_headERS4_"
 "_ZNSt11_Tuple_implILy0EJP14llama_memory_iSt14default_deleteIS0_EEEC2Ev"
 "_ZNSt11_Tuple_implILy0EJP16llm_graph_resultSt14default_deleteIS0_EEE7_M_headERKS4_"
 "_ZNSt11_Tuple_implILy0EJP16llm_graph_resultSt14default_deleteIS0_EEE7_M_headERS4_"
 "_ZNSt11_Tuple_implILy0EJP16llm_graph_resultSt14default_deleteIS0_EEEC2Ev"
 "_ZNSt11_Tuple_implILy0EJP18ggml_backend_sched26ggml_backend_sched_deleterEE7_M_headERKS3_"
 "_ZNSt11_Tuple_implILy0EJP18ggml_backend_sched26ggml_backend_sched_deleterEE7_M_headERS3_"
 "_ZNSt11_Tuple_implILy0EJP18ggml_backend_sched26ggml_backend_sched_deleterEEC2Ev"
 "_ZNSt11_Tuple_implILy0EJP18llama_batch_allocrSt14default_deleteIS0_EEE7_M_headERKS4_"
 "_ZNSt11_Tuple_implILy0EJP18llama_batch_allocrSt14default_deleteIS0_EEE7_M_headERS4_"
 "_ZNSt11_Tuple_implILy0EJP18llama_batch_allocrSt14default_deleteIS0_EEEC2Ev"
 "_ZNSt11_Tuple_implILy0EJP19ggml_backend_buffer27ggml_backend_buffer_deleterEE7_M_headERKS3_"
 "_ZNSt11_Tuple_implILy0EJP19ggml_backend_buffer27ggml_backend_buffer_deleterEE7_M_headERS3_"
 "_ZNSt11_Tuple_implILy0EJP19ggml_backend_buffer27ggml_backend_buffer_deleterEEC2Ev"
 "_ZNSt11_Tuple_implILy0EJP22llama_memory_context_iSt14default_deleteIS0_EEE7_M_headERKS4_"
 "_ZNSt11_Tuple_implILy0EJP22llama_memory_context_iSt14default_deleteIS0_EEE7_M_headERS4_"
 "_ZNSt11_Tuple_implILy0EJRKiEE7_M_headERS2_"
 "_ZNSt11_Tuple_implILy0EJRKiEEC2EOS2_"
 "_ZNSt11_Tuple_implILy0EJRKiEEC2ES1_"
 "_ZNSt11_Tuple_implILy0EJRKP18llama_adapter_loraEE7_M_headERS4_"
 "_ZNSt11_Tuple_implILy0EJRKP18llama_adapter_loraEEC2EOS4_"
 "_ZNSt11_Tuple_implILy0EJRKP18llama_adapter_loraEEC2ES3_"
 "_ZNSt11_Tuple_implILy1EJ20ggml_backend_deleterEE7_M_headERS1_"
 "_ZNSt11_Tuple_implILy1EJ20ggml_backend_deleterEEC2EOS1_"
 "_ZNSt11_Tuple_implILy1EJ20ggml_backend_deleterEEC2Ev"
 "_ZNSt11_Tuple_implILy1EJ20ggml_context_deleterEE7_M_headERS1_"
 "_ZNSt11_Tuple_implILy1EJ26ggml_backend_sched_deleterEE7_M_headERS1_"
 "_ZNSt11_Tuple_implILy1EJ26ggml_backend_sched_deleterEEC2Ev"
 "_ZNSt11_Tuple_implILy1EJ27ggml_backend_buffer_deleterEE7_M_headERS1_"
 "_ZNSt11_Tuple_implILy1EJ27ggml_backend_buffer_deleterEEC2Ev"
 "_ZNSt11_Tuple_implILy1EJSt14default_deleteI14llama_memory_iEEE7_M_headERS3_"
 "_ZNSt11_Tuple_implILy1EJSt14default_deleteI14llama_memory_iEEEC2Ev"
 "_ZNSt11_Tuple_implILy1EJSt14default_deleteI16llm_graph_resultEEE7_M_headERS3_"
 "_ZNSt11_Tuple_implILy1EJSt14default_deleteI16llm_graph_resultEEEC2Ev"
 "_ZNSt11_Tuple_implILy1EJSt14default_deleteI18llama_batch_allocrEEE7_M_headERS3_"
 "_ZNSt11_Tuple_implILy1EJSt14default_deleteI18llama_batch_allocrEEEC2Ev"
 "_ZNSt11_Tuple_implILy1EJSt14default_deleteI22llama_memory_context_iEEE7_M_headERS3_"
 "_ZNSt11char_traitsIcE2ltERKcS2_"
 "_ZNSt11char_traitsIcE6lengthEPKc"
 "_ZNSt11char_traitsIcE7compareEPKcS2_y"
 "_ZNSt12__shared_ptrIN12llama_ubatch6data_tELN9__gnu_cxx12_Lock_policyE2EEC2ERKS4_"
 "_ZNSt12__shared_ptrIN12llama_ubatch6data_tELN9__gnu_cxx12_Lock_policyE2EED2Ev"
 "_ZNSt12_Destroy_auxILb0EE9__destroyIPSt10unique_ptrI12ggml_backend20ggml_backend_deleterEEEvT_S7_"
 "_ZNSt12_Destroy_auxILb0EE9__destroyIPSt10unique_ptrI12ggml_context20ggml_context_deleterEEEvT_S7_"
 "_ZNSt12_Destroy_auxILb0EE9__destroyIPSt10unique_ptrI19ggml_backend_buffer27ggml_backend_buffer_deleterEEEvT_S7_"
 "_ZNSt12_Destroy_auxILb0EE9__destroyIPSt3setIiSt4lessIiESaIiEEEEvT_S8_"
 "_ZNSt12_Destroy_auxILb0EE9__destroyIPSt6vectorIbSaIbEEEEvT_S6_"
 "_ZNSt12_Destroy_auxILb1EE9__destroyIPaEEvT_S3_"
 "_ZNSt12_Destroy_auxILb1EE9__destroyIPfEEvT_S3_"
 "_ZNSt12_Destroy_auxILb1EE9__destroyIPhEEvT_S3_"
 "_ZNSt12_Destroy_auxILb1EE9__destroyIPiEEvT_S3_"
 "_ZNSt12_Destroy_auxILb1EE9__destroyIPN13llama_context9swap_infoEEEvT_S5_"
 "_ZNSt12_Destroy_auxILb1EE9__destroyIPP11ggml_tensorEEvT_S5_"
 "_ZNSt12_Destroy_auxILb1EE9__destroyIPP12ggml_backendEEvT_S5_"
 "_ZNSt12_Destroy_auxILb1EE9__destroyIPP24ggml_backend_buffer_typeEEvT_S5_"
 "_ZNSt12_Destroy_auxILb1EE9__destroyIPPiEEvT_S4_"
 "_ZNSt12_Destroy_auxILb1EE9__destroyIPSt4pairIP12ggml_backendPFvS4_iEEEEvT_S9_"
 "_ZNSt12_Destroy_auxILb1EE9__destroyIPSt6bitsetILy64EEEEvT_S5_"
 "_ZNSt12_Vector_baseIaSaIaEE12_Vector_implD1Ev"
 "_ZNSt12_Vector_baseIaSaIaEE13_M_deallocateEPay"
 "_ZNSt12_Vector_baseIaSaIaEE19_M_get_Tp_allocatorEv"
 "_ZNSt12_Vector_baseIaSaIaEED2Ev"
 "_ZNSt12_Vector_baseIfSaIfEE11_M_allocateEy"
 "_ZNSt12_Vector_baseIfSaIfEE12_Vector_implC1Ev"
 "_ZNSt12_Vector_baseIfSaIfEE12_Vector_implD1Ev"
 "_ZNSt12_Vector_baseIfSaIfEE13_M_deallocateEPfy"
 "_ZNSt12_Vector_baseIfSaIfEE17_Vector_impl_dataC2Ev"
 "_ZNSt12_Vector_baseIfSaIfEE19_M_get_Tp_allocatorEv"
 "_ZNSt12_Vector_baseIfSaIfEEC2Ev"
 "_ZNSt12_Vector_baseIfSaIfEED2Ev"
 "_ZNSt12_Vector_baseIhSaIhEE11_M_allocateEy"
 "_ZNSt12_Vector_baseIhSaIhEE12_Vector_implC1Ev"
 "_ZNSt12_Vector_baseIhSaIhEE12_Vector_implD1Ev"
 "_ZNSt12_Vector_baseIhSaIhEE13_M_deallocateEPhy"
 "_ZNSt12_Vector_baseIhSaIhEE17_Vector_impl_dataC2Ev"
 "_ZNSt12_Vector_baseIhSaIhEE19_M_get_Tp_allocatorEv"
 "_ZNSt12_Vector_baseIhSaIhEEC2Ev"
 "_ZNSt12_Vector_baseIhSaIhEED2Ev"
 "_ZNSt12_Vector_baseIiSaIiEE11_M_allocateEy"
 "_ZNSt12_Vector_baseIiSaIiEE12_Vector_implC1ERKS0_"
 "_ZNSt12_Vector_baseIiSaIiEE12_Vector_implC1Ev"
 "_ZNSt12_Vector_baseIiSaIiEE12_Vector_implD1Ev"
 "_ZNSt12_Vector_baseIiSaIiEE13_M_deallocateEPiy"
 "_ZNSt12_Vector_baseIiSaIiEE17_M_create_storageEy"
 "_ZNSt12_Vector_baseIiSaIiEE17_Vector_impl_dataC2Ev"
 "_ZNSt12_Vector_baseIiSaIiEE19_M_get_Tp_allocatorEv"
 "_ZNSt12_Vector_baseIiSaIiEEC2Ev"
 "_ZNSt12_Vector_baseIiSaIiEEC2EyRKS0_"
 "_ZNSt12_Vector_baseIiSaIiEED2Ev"
 "_ZNSt12_Vector_baseIN13llama_context9swap_infoESaIS1_EE11_M_allocateEy"
 "_ZNSt12_Vector_baseIN13llama_context9swap_infoESaIS1_EE12_Vector_implC1Ev"
 "_ZNSt12_Vector_baseIN13llama_context9swap_infoESaIS1_EE12_Vector_implD1Ev"
 "_ZNSt12_Vector_baseIN13llama_context9swap_infoESaIS1_EE13_M_deallocateEPS1_y"
 "_ZNSt12_Vector_baseIN13llama_context9swap_infoESaIS1_EE17_Vector_impl_dataC2Ev"
 "_ZNSt12_Vector_baseIN13llama_context9swap_infoESaIS1_EE19_M_get_Tp_allocatorEv"
 "_ZNSt12_Vector_baseIN13llama_context9swap_infoESaIS1_EEC2Ev"
 "_ZNSt12_Vector_baseIN13llama_context9swap_infoESaIS1_EED2Ev"
 "_ZNSt12_Vector_baseIP11ggml_tensorSaIS1_EE12_Vector_implC1Ev"
 "_ZNSt12_Vector_baseIP11ggml_tensorSaIS1_EE12_Vector_implD1Ev"
 "_ZNSt12_Vector_baseIP11ggml_tensorSaIS1_EE13_M_deallocateEPS1_y"
 "_ZNSt12_Vector_baseIP11ggml_tensorSaIS1_EE17_Vector_impl_dataC2Ev"
 "_ZNSt12_Vector_baseIP11ggml_tensorSaIS1_EE19_M_get_Tp_allocatorEv"
 "_ZNSt12_Vector_baseIP11ggml_tensorSaIS1_EEC2Ev"
 "_ZNSt12_Vector_baseIP11ggml_tensorSaIS1_EED2Ev"
 "_ZNSt12_Vector_baseIP12ggml_backendSaIS1_EE11_M_allocateEy"
 "_ZNSt12_Vector_baseIP12ggml_backendSaIS1_EE12_Vector_implC1Ev"
 "_ZNSt12_Vector_baseIP12ggml_backendSaIS1_EE12_Vector_implD1Ev"
 "_ZNSt12_Vector_baseIP12ggml_backendSaIS1_EE13_M_deallocateEPS1_y"
 "_ZNSt12_Vector_baseIP12ggml_backendSaIS1_EE17_Vector_impl_dataC2Ev"
 "_ZNSt12_Vector_baseIP12ggml_backendSaIS1_EE19_M_get_Tp_allocatorEv"
 "_ZNSt12_Vector_baseIP12ggml_backendSaIS1_EEC2Ev"
 "_ZNSt12_Vector_baseIP12ggml_backendSaIS1_EED2Ev"
 "_ZNSt12_Vector_baseIP24ggml_backend_buffer_typeSaIS1_EE11_M_allocateEy"
 "_ZNSt12_Vector_baseIP24ggml_backend_buffer_typeSaIS1_EE12_Vector_implC1Ev"
 "_ZNSt12_Vector_baseIP24ggml_backend_buffer_typeSaIS1_EE12_Vector_implD1Ev"
 "_ZNSt12_Vector_baseIP24ggml_backend_buffer_typeSaIS1_EE13_M_deallocateEPS1_y"
 "_ZNSt12_Vector_baseIP24ggml_backend_buffer_typeSaIS1_EE17_Vector_impl_dataC2Ev"
 "_ZNSt12_Vector_baseIP24ggml_backend_buffer_typeSaIS1_EE19_M_get_Tp_allocatorEv"
 "_ZNSt12_Vector_baseIP24ggml_backend_buffer_typeSaIS1_EEC2Ev"
 "_ZNSt12_Vector_baseIP24ggml_backend_buffer_typeSaIS1_EED2Ev"
 "_ZNSt12_Vector_baseIPiSaIS0_EE12_Vector_implD1Ev"
 "_ZNSt12_Vector_baseIPiSaIS0_EE13_M_deallocateEPS0_y"
 "_ZNSt12_Vector_baseIPiSaIS0_EE19_M_get_Tp_allocatorEv"
 "_ZNSt12_Vector_baseIPiSaIS0_EED2Ev"
 "_ZNSt12_Vector_baseISt10unique_ptrI12ggml_backend20ggml_backend_deleterESaIS3_EE11_M_allocateEy"
 "_ZNSt12_Vector_baseISt10unique_ptrI12ggml_backend20ggml_backend_deleterESaIS3_EE12_Vector_implC1Ev"
 "_ZNSt12_Vector_baseISt10unique_ptrI12ggml_backend20ggml_backend_deleterESaIS3_EE12_Vector_implD1Ev"
 "_ZNSt12_Vector_baseISt10unique_ptrI12ggml_backend20ggml_backend_deleterESaIS3_EE13_M_deallocateEPS3_y"
 "_ZNSt12_Vector_baseISt10unique_ptrI12ggml_backend20ggml_backend_deleterESaIS3_EE17_Vector_impl_dataC2Ev"
 "_ZNSt12_Vector_baseISt10unique_ptrI12ggml_backend20ggml_backend_deleterESaIS3_EE19_M_get_Tp_allocatorEv"
 "_ZNSt12_Vector_baseISt10unique_ptrI12ggml_backend20ggml_backend_deleterESaIS3_EEC2Ev"
 "_ZNSt12_Vector_baseISt10unique_ptrI12ggml_backend20ggml_backend_deleterESaIS3_EED2Ev"
 "_ZNSt12_Vector_baseISt10unique_ptrI12ggml_context20ggml_context_deleterESaIS3_EE12_Vector_implC1Ev"
 "_ZNSt12_Vector_baseISt10unique_ptrI12ggml_context20ggml_context_deleterESaIS3_EE12_Vector_implD1Ev"
 "_ZNSt12_Vector_baseISt10unique_ptrI12ggml_context20ggml_context_deleterESaIS3_EE13_M_deallocateEPS3_y"
 "_ZNSt12_Vector_baseISt10unique_ptrI12ggml_context20ggml_context_deleterESaIS3_EE17_Vector_impl_dataC2Ev"
 "_ZNSt12_Vector_baseISt10unique_ptrI12ggml_context20ggml_context_deleterESaIS3_EE19_M_get_Tp_allocatorEv"
 "_ZNSt12_Vector_baseISt10unique_ptrI12ggml_context20ggml_context_deleterESaIS3_EEC2Ev"
 "_ZNSt12_Vector_baseISt10unique_ptrI12ggml_context20ggml_context_deleterESaIS3_EED2Ev"
 "_ZNSt12_Vector_baseISt10unique_ptrI19ggml_backend_buffer27ggml_backend_buffer_deleterESaIS3_EE12_Vector_implC1Ev"
 "_ZNSt12_Vector_baseISt10unique_ptrI19ggml_backend_buffer27ggml_backend_buffer_deleterESaIS3_EE12_Vector_implD1Ev"
 "_ZNSt12_Vector_baseISt10unique_ptrI19ggml_backend_buffer27ggml_backend_buffer_deleterESaIS3_EE13_M_deallocateEPS3_y"
 "_ZNSt12_Vector_baseISt10unique_ptrI19ggml_backend_buffer27ggml_backend_buffer_deleterESaIS3_EE17_Vector_impl_dataC2Ev"
 "_ZNSt12_Vector_baseISt10unique_ptrI19ggml_backend_buffer27ggml_backend_buffer_deleterESaIS3_EE19_M_get_Tp_allocatorEv"
 "_ZNSt12_Vector_baseISt10unique_ptrI19ggml_backend_buffer27ggml_backend_buffer_deleterESaIS3_EEC2Ev"
 "_ZNSt12_Vector_baseISt10unique_ptrI19ggml_backend_buffer27ggml_backend_buffer_deleterESaIS3_EED2Ev"
 "_ZNSt12_Vector_baseISt3setIiSt4lessIiESaIiEESaIS4_EE11_M_allocateEy"
 "_ZNSt12_Vector_baseISt3setIiSt4lessIiESaIiEESaIS4_EE12_Vector_implC1Ev"
 "_ZNSt12_Vector_baseISt3setIiSt4lessIiESaIiEESaIS4_EE12_Vector_implD1Ev"
 "_ZNSt12_Vector_baseISt3setIiSt4lessIiESaIiEESaIS4_EE13_M_deallocateEPS4_y"
 "_ZNSt12_Vector_baseISt3setIiSt4lessIiESaIiEESaIS4_EE17_Vector_impl_dataC2Ev"
 "_ZNSt12_Vector_baseISt3setIiSt4lessIiESaIiEESaIS4_EE19_M_get_Tp_allocatorEv"
 "_ZNSt12_Vector_baseISt3setIiSt4lessIiESaIiEESaIS4_EEC2Ev"
 "_ZNSt12_Vector_baseISt3setIiSt4lessIiESaIiEESaIS4_EED2Ev"
 "_ZNSt12_Vector_baseISt4pairIP12ggml_backendPFvS2_iEESaIS5_EE11_M_allocateEy"
 "_ZNSt12_Vector_baseISt4pairIP12ggml_backendPFvS2_iEESaIS5_EE12_Vector_implC1Ev"
 "_ZNSt12_Vector_baseISt4pairIP12ggml_backendPFvS2_iEESaIS5_EE12_Vector_implD1Ev"
 "_ZNSt12_Vector_baseISt4pairIP12ggml_backendPFvS2_iEESaIS5_EE13_M_deallocateEPS5_y"
 "_ZNSt12_Vector_baseISt4pairIP12ggml_backendPFvS2_iEESaIS5_EE17_Vector_impl_dataC2Ev"
 "_ZNSt12_Vector_baseISt4pairIP12ggml_backendPFvS2_iEESaIS5_EE19_M_get_Tp_allocatorEv"
 "_ZNSt12_Vector_baseISt4pairIP12ggml_backendPFvS2_iEESaIS5_EEC2Ev"
 "_ZNSt12_Vector_baseISt4pairIP12ggml_backendPFvS2_iEESaIS5_EED2Ev"
 "_ZNSt12_Vector_baseISt6bitsetILy64EESaIS1_EE12_Vector_implD1Ev"
 "_ZNSt12_Vector_baseISt6bitsetILy64EESaIS1_EE13_M_deallocateEPS1_y"
 "_ZNSt12_Vector_baseISt6bitsetILy64EESaIS1_EE19_M_get_Tp_allocatorEv"
 "_ZNSt12_Vector_baseISt6bitsetILy64EESaIS1_EED2Ev"
 "_ZNSt12_Vector_baseISt6vectorIbSaIbEESaIS2_EE12_Vector_implD1Ev"
 "_ZNSt12_Vector_baseISt6vectorIbSaIbEESaIS2_EE13_M_deallocateEPS2_y"
 "_ZNSt12_Vector_baseISt6vectorIbSaIbEESaIS2_EE19_M_get_Tp_allocatorEv"
 "_ZNSt12_Vector_baseISt6vectorIbSaIbEESaIS2_EED2Ev"
 "_ZNSt13_Bit_iteratorC1Ev"
 "_ZNSt13_Bvector_baseISaIbEE13_Bvector_implD1Ev"
 "_ZNSt13_Bvector_baseISaIbEE13_M_deallocateEv"
 "_ZNSt13_Bvector_baseISaIbEE18_Bvector_impl_data8_M_resetEv"
 "_ZNSt13_Bvector_baseISaIbEE18_Bvector_impl_dataC1Ev"
 "_ZNSt13_Bvector_baseISaIbEED2Ev"
 "_ZNSt13_Rb_tree_nodeIiE9_M_valptrEv"
 "_ZNSt13_Rb_tree_nodeISt4pairIKiSt6vectorIfSaIfEEEE9_M_valptrEv"
 "_ZNSt13unordered_mapIP18llama_adapter_lorafSt4hashIS1_ESt8equal_toIS1_ESaISt4pairIKS1_fEEE3endEv"
 "_ZNSt13unordered_mapIP18llama_adapter_lorafSt4hashIS1_ESt8equal_toIS1_ESaISt4pairIKS1_fEEE4findERS7_"
 "_ZNSt13unordered_mapIP18llama_adapter_lorafSt4hashIS1_ESt8equal_toIS1_ESaISt4pairIKS1_fEEE5clearEv"
 "_ZNSt13unordered_mapIP18llama_adapter_lorafSt4hashIS1_ESt8equal_toIS1_ESaISt4pairIKS1_fEEE5eraseENSt8__detail14_Node_iteratorIS8_Lb0ELb0EEE"
 "_ZNSt13unordered_mapIP18llama_adapter_lorafSt4hashIS1_ESt8equal_toIS1_ESaISt4pairIKS1_fEEEC1Ev"
 "_ZNSt13unordered_mapIP18llama_adapter_lorafSt4hashIS1_ESt8equal_toIS1_ESaISt4pairIKS1_fEEED1Ev"
 "_ZNSt13unordered_mapIP18llama_adapter_lorafSt4hashIS1_ESt8equal_toIS1_ESaISt4pairIKS1_fEEEixERS7_"
 "_ZNSt13unordered_mapISt6bitsetILy64EESt6vectorIiSaIiEESt4hashIS1_ESt8equal_toIS1_ESaISt4pairIKS1_S4_EEED1Ev"
 "_ZNSt14__shared_countILN9__gnu_cxx12_Lock_policyE2EEC1ERKS2_"
 "_ZNSt14__shared_countILN9__gnu_cxx12_Lock_policyE2EED1Ev"
 "_ZNSt14_Function_baseC2Ev"
 "_ZNSt14_Function_baseD2Ev"
 "_ZNSt14numeric_limitsIiE3maxEv"
 "_ZNSt15__new_allocatorIaE10deallocateEPay"
 "_ZNSt15__new_allocatorIaED2Ev"
 "_ZNSt15__new_allocatorIcED2Ev"
 "_ZNSt15__new_allocatorIfE10deallocateEPfy"
 "_ZNSt15__new_allocatorIfE8allocateEyPKv"
 "_ZNSt15__new_allocatorIfED2Ev"
 "_ZNSt15__new_allocatorIhE10deallocateEPhy"
 "_ZNSt15__new_allocatorIhE8allocateEyPKv"
 "_ZNSt15__new_allocatorIhED2Ev"
 "_ZNSt15__new_allocatorIiE10deallocateEPiy"
 "_ZNSt15__new_allocatorIiE8allocateEyPKv"
 "_ZNSt15__new_allocatorIiED2Ev"
 "_ZNSt15__new_allocatorImE10deallocateEPmy"
 "_ZNSt15__new_allocatorImED2Ev"
 "_ZNSt15__new_allocatorIN13llama_context9swap_infoEE10deallocateEPS1_y"
 "_ZNSt15__new_allocatorIN13llama_context9swap_infoEE8allocateEyPKv"
 "_ZNSt15__new_allocatorIN13llama_context9swap_infoEED2Ev"
 "_ZNSt15__new_allocatorINSt8__detail10_Hash_nodeISt4pairIKP18llama_adapter_lorafELb0EEEE10deallocateEPS7_y"
 "_ZNSt15__new_allocatorINSt8__detail10_Hash_nodeISt4pairIKP18llama_adapter_lorafELb0EEEE8allocateEyPKv"
 "_ZNSt15__new_allocatorINSt8__detail10_Hash_nodeISt4pairIKP18llama_adapter_lorafELb0EEEED2Ev"
 "_ZNSt15__new_allocatorINSt8__detail10_Hash_nodeISt4pairIKSt6bitsetILy64EESt6vectorIiSaIiEEELb0EEEE10deallocateEPSA_y"
 "_ZNSt15__new_allocatorINSt8__detail10_Hash_nodeISt4pairIKSt6bitsetILy64EESt6vectorIiSaIiEEELb0EEEED2Ev"
 "_ZNSt15__new_allocatorIP11ggml_tensorE10deallocateEPS1_y"
 "_ZNSt15__new_allocatorIP11ggml_tensorED2Ev"
 "_ZNSt15__new_allocatorIP12ggml_backendE10deallocateEPS1_y"
 "_ZNSt15__new_allocatorIP12ggml_backendE8allocateEyPKv"
 "_ZNSt15__new_allocatorIP12ggml_backendED2Ev"
 "_ZNSt15__new_allocatorIP24ggml_backend_buffer_typeE10deallocateEPS1_y"
 "_ZNSt15__new_allocatorIP24ggml_backend_buffer_typeE8allocateEyPKv"
 "_ZNSt15__new_allocatorIP24ggml_backend_buffer_typeED2Ev"
 "_ZNSt15__new_allocatorIPiE10deallocateEPS0_y"
 "_ZNSt15__new_allocatorIPiED2Ev"
 "_ZNSt15__new_allocatorIPNSt8__detail15_Hash_node_baseEE10deallocateEPS2_y"
 "_ZNSt15__new_allocatorIPNSt8__detail15_Hash_node_baseEE8allocateEyPKv"
 "_ZNSt15__new_allocatorIPNSt8__detail15_Hash_node_baseEED2Ev"
 "_ZNSt15__new_allocatorISt10unique_ptrI12ggml_backend20ggml_backend_deleterEE10deallocateEPS3_y"
 "_ZNSt15__new_allocatorISt10unique_ptrI12ggml_backend20ggml_backend_deleterEE8allocateEyPKv"
 "_ZNSt15__new_allocatorISt10unique_ptrI12ggml_backend20ggml_backend_deleterEED2Ev"
 "_ZNSt15__new_allocatorISt10unique_ptrI12ggml_context20ggml_context_deleterEE10deallocateEPS3_y"
 "_ZNSt15__new_allocatorISt10unique_ptrI12ggml_context20ggml_context_deleterEED2Ev"
 "_ZNSt15__new_allocatorISt10unique_ptrI19ggml_backend_buffer27ggml_backend_buffer_deleterEE10deallocateEPS3_y"
 "_ZNSt15__new_allocatorISt10unique_ptrI19ggml_backend_buffer27ggml_backend_buffer_deleterEED2Ev"
 "_ZNSt15__new_allocatorISt13_Rb_tree_nodeIiEE10deallocateEPS1_y"
 "_ZNSt15__new_allocatorISt13_Rb_tree_nodeIiEE8allocateEyPKv"
 "_ZNSt15__new_allocatorISt13_Rb_tree_nodeIiEED2Ev"
 "_ZNSt15__new_allocatorISt13_Rb_tree_nodeISt4pairIKiSt6vectorIfSaIfEEEEE10deallocateEPS7_y"
 "_ZNSt15__new_allocatorISt13_Rb_tree_nodeISt4pairIKiSt6vectorIfSaIfEEEEE8allocateEyPKv"
 "_ZNSt15__new_allocatorISt13_Rb_tree_nodeISt4pairIKiSt6vectorIfSaIfEEEEED2Ev"
 "_ZNSt15__new_allocatorISt3setIiSt4lessIiESaIiEEE10deallocateEPS4_y"
 "_ZNSt15__new_allocatorISt3setIiSt4lessIiESaIiEEE8allocateEyPKv"
 "_ZNSt15__new_allocatorISt3setIiSt4lessIiESaIiEEED2Ev"
 "_ZNSt15__new_allocatorISt4pairIP12ggml_backendPFvS2_iEEE10deallocateEPS5_y"
 "_ZNSt15__new_allocatorISt4pairIP12ggml_backendPFvS2_iEEE8allocateEyPKv"
 "_ZNSt15__new_allocatorISt4pairIP12ggml_backendPFvS2_iEEED2Ev"
 "_ZNSt15__new_allocatorISt6bitsetILy64EEE10deallocateEPS1_y"
 "_ZNSt15__new_allocatorISt6bitsetILy64EEED2Ev"
 "_ZNSt15__new_allocatorISt6vectorIbSaIbEEE10deallocateEPS2_y"
 "_ZNSt15__new_allocatorISt6vectorIbSaIbEEED2Ev"
 "_ZNSt15__uniq_ptr_dataI12ggml_backend20ggml_backend_deleterLb1ELb1EEC1EOS2_"
 "_ZNSt15__uniq_ptr_dataI12ggml_backend20ggml_backend_deleterLb1ELb1EECI1St15__uniq_ptr_implIS0_S1_EEPS0_"
 "_ZNSt15__uniq_ptr_dataI14llama_memory_iSt14default_deleteIS0_ELb1ELb1EECI1St15__uniq_ptr_implIS0_S2_EEv"
 "_ZNSt15__uniq_ptr_dataI16llm_graph_resultSt14default_deleteIS0_ELb1ELb1EECI1St15__uniq_ptr_implIS0_S2_EEv"
 "_ZNSt15__uniq_ptr_dataI18ggml_backend_sched26ggml_backend_sched_deleterLb1ELb1EECI1St15__uniq_ptr_implIS0_S1_EEv"
 "_ZNSt15__uniq_ptr_dataI18llama_batch_allocrSt14default_deleteIS0_ELb1ELb1EECI1St15__uniq_ptr_implIS0_S2_EEPS0_"
 "_ZNSt15__uniq_ptr_dataI19ggml_backend_buffer27ggml_backend_buffer_deleterLb1ELb1EECI1St15__uniq_ptr_implIS0_S1_EEv"
 "_ZNSt15__uniq_ptr_dataI22llama_memory_context_iSt14default_deleteIS0_ELb1ELb1EEaSEOS3_"
 "_ZNSt15__uniq_ptr_implI12ggml_backend20ggml_backend_deleterE10_M_deleterEv"
 "_ZNSt15__uniq_ptr_implI12ggml_backend20ggml_backend_deleterE6_M_ptrEv"
 "_ZNSt15__uniq_ptr_implI12ggml_backend20ggml_backend_deleterEC2EOS2_"
 "_ZNSt15__uniq_ptr_implI12ggml_backend20ggml_backend_deleterEC2EPS0_"
 "_ZNSt15__uniq_ptr_implI12ggml_context20ggml_context_deleterE10_M_deleterEv"
 "_ZNSt15__uniq_ptr_implI12ggml_context20ggml_context_deleterE6_M_ptrEv"
 "_ZNSt15__uniq_ptr_implI14llama_memory_iSt14default_deleteIS0_EE10_M_deleterEv"
 "_ZNSt15__uniq_ptr_implI14llama_memory_iSt14default_deleteIS0_EE5resetEPS0_"
 "_ZNSt15__uniq_ptr_implI14llama_memory_iSt14default_deleteIS0_EE6_M_ptrEv"
 "_ZNSt15__uniq_ptr_implI14llama_memory_iSt14default_deleteIS0_EEC2Ev"
 "_ZNSt15__uniq_ptr_implI16llm_graph_resultSt14default_deleteIS0_EE10_M_deleterEv"
 "_ZNSt15__uniq_ptr_implI16llm_graph_resultSt14default_deleteIS0_EE5resetEPS0_"
 "_ZNSt15__uniq_ptr_implI16llm_graph_resultSt14default_deleteIS0_EE6_M_ptrEv"
 "_ZNSt15__uniq_ptr_implI16llm_graph_resultSt14default_deleteIS0_EEC2Ev"
 "_ZNSt15__uniq_ptr_implI18ggml_backend_sched26ggml_backend_sched_deleterE10_M_deleterEv"
 "_ZNSt15__uniq_ptr_implI18ggml_backend_sched26ggml_backend_sched_deleterE5resetEPS0_"
 "_ZNSt15__uniq_ptr_implI18ggml_backend_sched26ggml_backend_sched_deleterE6_M_ptrEv"
 "_ZNSt15__uniq_ptr_implI18ggml_backend_sched26ggml_backend_sched_deleterEC2Ev"
 "_ZNSt15__uniq_ptr_implI18llama_batch_allocrSt14default_deleteIS0_EE10_M_deleterEv"
 "_ZNSt15__uniq_ptr_implI18llama_batch_allocrSt14default_deleteIS0_EE6_M_ptrEv"
 "_ZNSt15__uniq_ptr_implI18llama_batch_allocrSt14default_deleteIS0_EEC2EPS0_"
 "_ZNSt15__uniq_ptr_implI19ggml_backend_buffer27ggml_backend_buffer_deleterE10_M_deleterEv"
 "_ZNSt15__uniq_ptr_implI19ggml_backend_buffer27ggml_backend_buffer_deleterE5resetEPS0_"
 "_ZNSt15__uniq_ptr_implI19ggml_backend_buffer27ggml_backend_buffer_deleterE6_M_ptrEv"
 "_ZNSt15__uniq_ptr_implI19ggml_backend_buffer27ggml_backend_buffer_deleterEC2Ev"
 "_ZNSt15__uniq_ptr_implI22llama_memory_context_iSt14default_deleteIS0_EE10_M_deleterEv"
 "_ZNSt15__uniq_ptr_implI22llama_memory_context_iSt14default_deleteIS0_EE5resetEPS0_"
 "_ZNSt15__uniq_ptr_implI22llama_memory_context_iSt14default_deleteIS0_EE6_M_ptrEv"
 "_ZNSt15__uniq_ptr_implI22llama_memory_context_iSt14default_deleteIS0_EE7releaseEv"
 "_ZNSt15__uniq_ptr_implI22llama_memory_context_iSt14default_deleteIS0_EEaSEOS3_"
 "_ZNSt15_Rb_tree_header12_M_move_dataERS_"
 "_ZNSt15_Rb_tree_header8_M_resetEv"
 "_ZNSt15_Rb_tree_headerC2EOS_"
 "_ZNSt15_Rb_tree_headerC2Ev"
 "_ZNSt16_Sp_counted_baseILN9__gnu_cxx12_Lock_policyE2EE10_M_releaseEv"
 "_ZNSt16_Sp_counted_baseILN9__gnu_cxx12_Lock_policyE2EE15_M_add_ref_copyEv"
 "_ZNSt16_Sp_counted_baseILN9__gnu_cxx12_Lock_policyE2EE19_M_release_last_useEv"
 "_ZNSt16_Sp_counted_baseILN9__gnu_cxx12_Lock_policyE2EE24_M_release_last_use_coldEv"
 "_ZNSt17_Rb_tree_iteratorIiEC1EPSt18_Rb_tree_node_base"
 "_ZNSt17_Rb_tree_iteratorIiEmmEv"
 "_ZNSt17_Rb_tree_iteratorISt4pairIKiSt6vectorIfSaIfEEEEC1EPSt18_Rb_tree_node_base"
 "_ZNSt17_Rb_tree_iteratorISt4pairIKiSt6vectorIfSaIfEEEEmmEv"
 "_ZNSt17_Rb_tree_iteratorISt4pairIKiSt6vectorIfSaIfEEEEppEv"
 "_ZNSt18_Bit_iterator_baseC2EPmj"
 "_ZNSt19__ptr_traits_ptr_toIPNSt8__detail10_Hash_nodeISt4pairIKP18llama_adapter_lorafELb0EEES7_Lb0EE10pointer_toERS7_"
 "_ZNSt19__ptr_traits_ptr_toIPNSt8__detail10_Hash_nodeISt4pairIKSt6bitsetILy64EESt6vectorIiSaIiEEELb0EEESA_Lb0EE10pointer_toERSA_"
 "_ZNSt19__ptr_traits_ptr_toIPPNSt8__detail15_Hash_node_baseES2_Lb0EE10pointer_toERS2_"
 "_ZNSt20_Rb_tree_key_compareISt4lessIiEEC2EOS2_"
 "_ZNSt20_Rb_tree_key_compareISt4lessIiEEC2Ev"
 "_ZNSt23_Rb_tree_const_iteratorIiEC1ERKSt17_Rb_tree_iteratorIiE"
 "_ZNSt23_Rb_tree_const_iteratorISt4pairIKiSt6vectorIfSaIfEEEEC1ERKSt17_Rb_tree_iteratorIS5_E"
 "_ZNSt27__uninitialized_default_n_1ILb0EE18__uninit_default_nIPSt3setIiSt4lessIiESaIiEEyEET_S8_T0_"
 "_ZNSt27__uninitialized_default_n_1ILb1EE18__uninit_default_nIPfyEET_S3_T0_"
 "_ZNSt27__uninitialized_default_n_1ILb1EE18__uninit_default_nIPhyEET_S3_T0_"
 "_ZNSt27__uninitialized_default_n_1ILb1EE18__uninit_default_nIPiyEET_S3_T0_"
 "_ZNSt3mapIiSt6vectorIfSaIfEESt4lessIiESaISt4pairIKiS2_EEE11lower_boundERS6_"
 "_ZNSt3mapIiSt6vectorIfSaIfEESt4lessIiESaISt4pairIKiS2_EEE3endEv"
 "_ZNSt3mapIiSt6vectorIfSaIfEESt4lessIiESaISt4pairIKiS2_EEE4findERS6_"
 "_ZNSt3mapIiSt6vectorIfSaIfEESt4lessIiESaISt4pairIKiS2_EEE5clearEv"
 "_ZNSt3mapIiSt6vectorIfSaIfEESt4lessIiESaISt4pairIKiS2_EEEC1Ev"
 "_ZNSt3mapIiSt6vectorIfSaIfEESt4lessIiESaISt4pairIKiS2_EEED1Ev"
 "_ZNSt3mapIiSt6vectorIfSaIfEESt4lessIiESaISt4pairIKiS2_EEEixERS6_"
 "_ZNSt3setIiSt4lessIiESaIiEE5clearEv"
 "_ZNSt3setIiSt4lessIiESaIiEE6insertERKi"
 "_ZNSt3setIiSt4lessIiESaIiEEC1EOS3_"
 "_ZNSt3setIiSt4lessIiESaIiEEC1Ev"
 "_ZNSt3setIiSt4lessIiESaIiEED1Ev"
 "_ZNSt4pairIKiSt6vectorIfSaIfEEEC1IJRS0_EJEEESt21piecewise_construct_tSt5tupleIJDpT_EES8_IJDpT0_EE"
 "_ZNSt4pairIKiSt6vectorIfSaIfEEEC1IJRS0_EJLy0EEJEJEEERSt5tupleIJDpT_EERS7_IJDpT1_EESt12_Index_tupleIJXspT0_EEESG_IJXspT2_EEE"
 "_ZNSt4pairIKiSt6vectorIfSaIfEEED1Ev"
 "_ZNSt4pairIKP18llama_adapter_lorafEC1IJRS2_EJEEESt21piecewise_construct_tSt5tupleIJDpT_EES7_IJDpT0_EE"
 "_ZNSt4pairIKP18llama_adapter_lorafEC1IJRS2_EJLy0EEJEJEEERSt5tupleIJDpT_EERS6_IJDpT1_EESt12_Index_tupleIJXspT0_EEESF_IJXspT2_EEE"
 "_ZNSt4pairIKSt6bitsetILy64EESt6vectorIiSaIiEEED1Ev"
 "_ZNSt4pairIP12ggml_backendPFvS1_iEEC1IS1_RS3_Lb1EEEOT_OT0_"
 "_ZNSt4pairIPSt18_Rb_tree_node_baseS1_EC1IRPSt13_Rb_tree_nodeIiERS1_Lb1EEEOT_OT0_"
 "_ZNSt4pairIPSt18_Rb_tree_node_baseS1_EC1IRPSt13_Rb_tree_nodeIS_IKiSt6vectorIfSaIfEEEERS1_Lb1EEEOT_OT0_"
 "_ZNSt4pairIPSt18_Rb_tree_node_baseS1_EC1IRS1_S4_Lb1EEEOT_OT0_"
 "_ZNSt4pairIPSt18_Rb_tree_node_baseS1_EC1IS1_S1_Lb1EEERKS1_S5_"
 "_ZNSt4pairISt17_Rb_tree_iteratorIiEbEC1IS1_bLb1EEEOT_OT0_"
 "_ZNSt4pairISt23_Rb_tree_const_iteratorIiEbEC1IRSt17_Rb_tree_iteratorIiERbLb1EEEOT_OT0_"
 "_ZNSt5tupleIJP12ggml_backend20ggml_backend_deleterEEC1EOS3_"
 "_ZNSt5tupleIJP12ggml_backend20ggml_backend_deleterEEC1ILb1ELb1EEEv"
 "_ZNSt5tupleIJP14llama_memory_iSt14default_deleteIS0_EEEC1ILb1ELb1EEEv"
 "_ZNSt5tupleIJP16llm_graph_resultSt14default_deleteIS0_EEEC1ILb1ELb1EEEv"
 "_ZNSt5tupleIJP18ggml_backend_sched26ggml_backend_sched_deleterEEC1ILb1ELb1EEEv"
 "_ZNSt5tupleIJP18llama_batch_allocrSt14default_deleteIS0_EEEC1ILb1ELb1EEEv"
 "_ZNSt5tupleIJP19ggml_backend_buffer27ggml_backend_buffer_deleterEEC1ILb1ELb1EEEv"
 "_ZNSt5tupleIJRKiEEC1EOS2_"
 "_ZNSt5tupleIJRKiEEC1ILb1ELb1EEES1_"
 "_ZNSt5tupleIJRKP18llama_adapter_loraEEC1EOS4_"
 "_ZNSt5tupleIJRKP18llama_adapter_loraEEC1ILb1ELb1EEES3_"
 "_ZNSt6vectorI11llama_layerSaIS0_EE3endEv"
 "_ZNSt6vectorI11llama_layerSaIS0_EE5beginEv"
 "_ZNSt6vectorIaSaIaEED1Ev"
 "_ZNSt6vectorIbSaIbEED1Ev"
 "_ZNSt6vectorIfSaIfEE11_S_max_sizeERKS0_"
 "_ZNSt6vectorIfSaIfEE11_S_relocateEPfS2_S2_RS0_"
 "_ZNSt6vectorIfSaIfEE15_M_erase_at_endEPf"
 "_ZNSt6vectorIfSaIfEE17_M_default_appendEy"
 "_ZNSt6vectorIfSaIfEE4dataEv"
 "_ZNSt6vectorIfSaIfEE5clearEv"
 "_ZNSt6vectorIfSaIfEE6resizeEy"
 "_ZNSt6vectorIfSaIfEEC1Ev"
 "_ZNSt6vectorIfSaIfEED1Ev"
 "_ZNSt6vectorIhSaIhEE11_S_max_sizeERKS0_"
 "_ZNSt6vectorIhSaIhEE11_S_relocateEPhS2_S2_RS0_"
 "_ZNSt6vectorIhSaIhEE15_M_erase_at_endEPh"
 "_ZNSt6vectorIhSaIhEE17_M_default_appendEy"
 "_ZNSt6vectorIhSaIhEE4dataEv"
 "_ZNSt6vectorIhSaIhEE6resizeEy"
 "_ZNSt6vectorIhSaIhEEC1Ev"
 "_ZNSt6vectorIhSaIhEED1Ev"
 "_ZNSt6vectorIiSaIiEE11_S_max_sizeERKS0_"
 "_ZNSt6vectorIiSaIiEE11_S_relocateEPiS2_S2_RS0_"
 "_ZNSt6vectorIiSaIiEE15_M_erase_at_endEPi"
 "_ZNSt6vectorIiSaIiEE17_M_default_appendEy"
 "_ZNSt6vectorIiSaIiEE17_S_check_init_lenEyRKS0_"
 "_ZNSt6vectorIiSaIiEE21_M_default_initializeEy"
 "_ZNSt6vectorIiSaIiEE3endEv"
 "_ZNSt6vectorIiSaIiEE4dataEv"
 "_ZNSt6vectorIiSaIiEE5beginEv"
 "_ZNSt6vectorIiSaIiEE6resizeEy"
 "_ZNSt6vectorIiSaIiEEC1Ev"
 "_ZNSt6vectorIiSaIiEEC1EyRKS0_"
 "_ZNSt6vectorIiSaIiEED1Ev"
 "_ZNSt6vectorIiSaIiEEixEy"
 "_ZNSt6vectorIN13llama_context9swap_infoESaIS1_EE11_S_max_sizeERKS2_"
 "_ZNSt6vectorIN13llama_context9swap_infoESaIS1_EE11_S_relocateEPS1_S4_S4_RS2_"
 "_ZNSt6vectorIN13llama_context9swap_infoESaIS1_EE12emplace_backIJS1_EEERS1_DpOT_"
 "_ZNSt6vectorIN13llama_context9swap_infoESaIS1_EE15_M_erase_at_endEPS1_"
 "_ZNSt6vectorIN13llama_context9swap_infoESaIS1_EE17_M_realloc_insertIJS1_EEEvN9__gnu_cxx17__normal_iteratorIPS1_S3_EEDpOT_"
 "_ZNSt6vectorIN13llama_context9swap_infoESaIS1_EE3endEv"
 "_ZNSt6vectorIN13llama_context9swap_infoESaIS1_EE4backEv"
 "_ZNSt6vectorIN13llama_context9swap_infoESaIS1_EE5beginEv"
 "_ZNSt6vectorIN13llama_context9swap_infoESaIS1_EE5clearEv"
 "_ZNSt6vectorIN13llama_context9swap_infoESaIS1_EE9push_backEOS1_"
 "_ZNSt6vectorIN13llama_context9swap_infoESaIS1_EEC1Ev"
 "_ZNSt6vectorIN13llama_context9swap_infoESaIS1_EED1Ev"
 "_ZNSt6vectorIN13llama_context9swap_infoESaIS1_EEixEy"
 "_ZNSt6vectorIP11ggml_tensorSaIS1_EEC1Ev"
 "_ZNSt6vectorIP11ggml_tensorSaIS1_EED1Ev"
 "_ZNSt6vectorIP12ggml_backendSaIS1_EE11_S_max_sizeERKS2_"
 "_ZNSt6vectorIP12ggml_backendSaIS1_EE11_S_relocateEPS1_S4_S4_RS2_"
 "_ZNSt6vectorIP12ggml_backendSaIS1_EE12emplace_backIJS1_EEERS1_DpOT_"
 "_ZNSt6vectorIP12ggml_backendSaIS1_EE15_M_erase_at_endEPS1_"
 "_ZNSt6vectorIP12ggml_backendSaIS1_EE17_M_realloc_insertIJS1_EEEvN9__gnu_cxx17__normal_iteratorIPS1_S3_EEDpOT_"
 "_ZNSt6vectorIP12ggml_backendSaIS1_EE3endEv"
 "_ZNSt6vectorIP12ggml_backendSaIS1_EE4backEv"
 "_ZNSt6vectorIP12ggml_backendSaIS1_EE4dataEv"
 "_ZNSt6vectorIP12ggml_backendSaIS1_EE5beginEv"
 "_ZNSt6vectorIP12ggml_backendSaIS1_EE5clearEv"
 "_ZNSt6vectorIP12ggml_backendSaIS1_EE9push_backEOS1_"
 "_ZNSt6vectorIP12ggml_backendSaIS1_EEC1Ev"
 "_ZNSt6vectorIP12ggml_backendSaIS1_EED1Ev"
 "_ZNSt6vectorIP12ggml_backendSaIS1_EEixEy"
 "_ZNSt6vectorIP24ggml_backend_buffer_typeSaIS1_EE11_S_max_sizeERKS2_"
 "_ZNSt6vectorIP24ggml_backend_buffer_typeSaIS1_EE11_S_relocateEPS1_S4_S4_RS2_"
 "_ZNSt6vectorIP24ggml_backend_buffer_typeSaIS1_EE15_M_erase_at_endEPS1_"
 "_ZNSt6vectorIP24ggml_backend_buffer_typeSaIS1_EE17_M_realloc_insertIJRKS1_EEEvN9__gnu_cxx17__normal_iteratorIPS1_S3_EEDpOT_"
 "_ZNSt6vectorIP24ggml_backend_buffer_typeSaIS1_EE3endEv"
 "_ZNSt6vectorIP24ggml_backend_buffer_typeSaIS1_EE4dataEv"
 "_ZNSt6vectorIP24ggml_backend_buffer_typeSaIS1_EE5beginEv"
 "_ZNSt6vectorIP24ggml_backend_buffer_typeSaIS1_EE5clearEv"
 "_ZNSt6vectorIP24ggml_backend_buffer_typeSaIS1_EE9push_backERKS1_"
 "_ZNSt6vectorIP24ggml_backend_buffer_typeSaIS1_EEC1Ev"
 "_ZNSt6vectorIP24ggml_backend_buffer_typeSaIS1_EED1Ev"
 "_ZNSt6vectorIP24ggml_backend_buffer_typeSaIS1_EEixEy"
 "_ZNSt6vectorIPiSaIS0_EED1Ev"
 "_ZNSt6vectorIS_IbSaIbEESaIS1_EED1Ev"
 "_ZNSt6vectorISt10unique_ptrI12ggml_backend20ggml_backend_deleterESaIS3_EE11_S_max_sizeERKS4_"
 "_ZNSt6vectorISt10unique_ptrI12ggml_backend20ggml_backend_deleterESaIS3_EE11_S_relocateEPS3_S6_S6_RS4_"
 "_ZNSt6vectorISt10unique_ptrI12ggml_backend20ggml_backend_deleterESaIS3_EE12emplace_backIJRPS1_EEERS3_DpOT_"
 "_ZNSt6vectorISt10unique_ptrI12ggml_backend20ggml_backend_deleterESaIS3_EE17_M_realloc_insertIJRPS1_EEEvN9__gnu_cxx17__normal_iteratorIPS3_S5_EEDpOT_"
 "_ZNSt6vectorISt10unique_ptrI12ggml_backend20ggml_backend_deleterESaIS3_EE3endEv"
 "_ZNSt6vectorISt10unique_ptrI12ggml_backend20ggml_backend_deleterESaIS3_EE4backEv"
 "_ZNSt6vectorISt10unique_ptrI12ggml_backend20ggml_backend_deleterESaIS3_EE5beginEv"
 "_ZNSt6vectorISt10unique_ptrI12ggml_backend20ggml_backend_deleterESaIS3_EEC1Ev"
 "_ZNSt6vectorISt10unique_ptrI12ggml_backend20ggml_backend_deleterESaIS3_EED1Ev"
 "_ZNSt6vectorISt10unique_ptrI12ggml_context20ggml_context_deleterESaIS3_EEC1Ev"
 "_ZNSt6vectorISt10unique_ptrI12ggml_context20ggml_context_deleterESaIS3_EED1Ev"
 "_ZNSt6vectorISt10unique_ptrI19ggml_backend_buffer27ggml_backend_buffer_deleterESaIS3_EEC1Ev"
 "_ZNSt6vectorISt10unique_ptrI19ggml_backend_buffer27ggml_backend_buffer_deleterESaIS3_EED1Ev"
 "_ZNSt6vectorISt3setIiSt4lessIiESaIiEESaIS4_EE11_S_max_sizeERKS5_"
 "_ZNSt6vectorISt3setIiSt4lessIiESaIiEESaIS4_EE11_S_relocateEPS4_S7_S7_RS5_"
 "_ZNSt6vectorISt3setIiSt4lessIiESaIiEESaIS4_EE15_M_erase_at_endEPS4_"
 "_ZNSt6vectorISt3setIiSt4lessIiESaIiEESaIS4_EE17_M_default_appendEy"
 "_ZNSt6vectorISt3setIiSt4lessIiESaIiEESaIS4_EE6resizeEy"
 "_ZNSt6vectorISt3setIiSt4lessIiESaIiEESaIS4_EEC1Ev"
 "_ZNSt6vectorISt3setIiSt4lessIiESaIiEESaIS4_EED1Ev"
 "_ZNSt6vectorISt3setIiSt4lessIiESaIiEESaIS4_EEixEy"
 "_ZNSt6vectorISt4pairIP12ggml_backendPFvS2_iEESaIS5_EE11_S_max_sizeERKS6_"
 "_ZNSt6vectorISt4pairIP12ggml_backendPFvS2_iEESaIS5_EE11_S_relocateEPS5_S8_S8_RS6_"
 "_ZNSt6vectorISt4pairIP12ggml_backendPFvS2_iEESaIS5_EE12emplace_backIJS2_RS4_EEERS5_DpOT_"
 "_ZNSt6vectorISt4pairIP12ggml_backendPFvS2_iEESaIS5_EE17_M_realloc_insertIJS2_RS4_EEEvN9__gnu_cxx17__normal_iteratorIPS5_S7_EEDpOT_"
 "_ZNSt6vectorISt4pairIP12ggml_backendPFvS2_iEESaIS5_EE3endEv"
 "_ZNSt6vectorISt4pairIP12ggml_backendPFvS2_iEESaIS5_EE4backEv"
 "_ZNSt6vectorISt4pairIP12ggml_backendPFvS2_iEESaIS5_EE5beginEv"
 "_ZNSt6vectorISt4pairIP12ggml_backendPFvS2_iEESaIS5_EEC1Ev"
 "_ZNSt6vectorISt4pairIP12ggml_backendPFvS2_iEESaIS5_EED1Ev"
 "_ZNSt6vectorISt6bitsetILy64EESaIS1_EED1Ev"
 "_ZNSt7__cxx1112basic_stringIcSt11char_traitsIcESaIcEE12_Alloc_hiderD1Ev"
 "_ZNSt7__cxx1112basic_stringIcSt11char_traitsIcESaIcEE12_M_constructIPKcEEvT_S8_St20forward_iterator_tag"
 "_ZNSt7__cxx1112basic_stringIcSt11char_traitsIcESaIcEEC1IS3_EEPKcRKS3_"
 "_ZNSt7__cxx1112basic_stringIcSt11char_traitsIcESaIcEEC1IS3_EEycRKS3_"
 "_ZNSt7__cxx119to_stringEi"
 "_ZNSt8__detail10_Hash_nodeISt4pairIKP18llama_adapter_lorafELb0EEC1Ev"
 "_ZNSt8__detail14__to_chars_lenIjEEjT_i"
 "_ZNSt8__detail14_Node_iteratorISt4pairIKP18llama_adapter_lorafELb0ELb0EEC1EPNS_10_Hash_nodeIS5_Lb0EEE"
 "_ZNSt8__detail14_Node_iteratorISt4pairIKP18llama_adapter_lorafELb0ELb0EEppEv"
 "_ZNSt8__detail15_Hash_code_baseIP18llama_adapter_loraSt4pairIKS2_fENS_10_Select1stESt4hashIS2_ENS_18_Mod_range_hashingENS_20_Default_ranged_hashELb0EEC2Ev"
 "_ZNSt8__detail15_Hash_node_baseC1Ev"
 "_ZNSt8__detail15_Hash_node_baseC2Ev"
 "_ZNSt8__detail15_Hashtable_baseIP18llama_adapter_loraSt4pairIKS2_fENS_10_Select1stESt8equal_toIS2_ESt4hashIS2_ENS_18_Mod_range_hashingENS_20_Default_ranged_hashENS_17_Hashtable_traitsILb0ELb0ELb1EEEE9_S_equalsEyRKNS_21_Hash_node_code_cacheILb0EEE"
 "_ZNSt8__detail15_Hashtable_baseIP18llama_adapter_loraSt4pairIKS2_fENS_10_Select1stESt8equal_toIS2_ESt4hashIS2_ENS_18_Mod_range_hashingENS_20_Default_ranged_hashENS_17_Hashtable_traitsILb0ELb0ELb1EEEEC2Ev"
 "_ZNSt8__detail16_Hashtable_allocISaINS_10_Hash_nodeISt4pairIKP18llama_adapter_lorafELb0EEEEE16_M_allocate_nodeIJRKSt21piecewise_construct_tSt5tupleIJRS5_EESE_IJEEEEEPS7_DpOT_"
 "_ZNSt8__detail16_Hashtable_allocISaINS_10_Hash_nodeISt4pairIKP18llama_adapter_lorafELb0EEEEE17_M_node_allocatorEv"
 "_ZNSt8__detail16_Hashtable_allocISaINS_10_Hash_nodeISt4pairIKP18llama_adapter_lorafELb0EEEEE18_M_deallocate_nodeEPS7_"
 "_ZNSt8__detail16_Hashtable_allocISaINS_10_Hash_nodeISt4pairIKP18llama_adapter_lorafELb0EEEEE19_M_allocate_bucketsEy"
 "_ZNSt8__detail16_Hashtable_allocISaINS_10_Hash_nodeISt4pairIKP18llama_adapter_lorafELb0EEEEE19_M_deallocate_nodesEPS7_"
 "_ZNSt8__detail16_Hashtable_allocISaINS_10_Hash_nodeISt4pairIKP18llama_adapter_lorafELb0EEEEE21_M_deallocate_bucketsEPPNS_15_Hash_node_baseEy"
 "_ZNSt8__detail16_Hashtable_allocISaINS_10_Hash_nodeISt4pairIKP18llama_adapter_lorafELb0EEEEE22_M_deallocate_node_ptrEPS7_"
 "_ZNSt8__detail16_Hashtable_allocISaINS_10_Hash_nodeISt4pairIKP18llama_adapter_lorafELb0EEEEEC2Ev"
 "_ZNSt8__detail16_Hashtable_allocISaINS_10_Hash_nodeISt4pairIKP18llama_adapter_lorafELb0EEEEED2Ev"
 "_ZNSt8__detail16_Hashtable_allocISaINS_10_Hash_nodeISt4pairIKSt6bitsetILy64EESt6vectorIiSaIiEEELb0EEEEE17_M_node_allocatorEv"
 "_ZNSt8__detail16_Hashtable_allocISaINS_10_Hash_nodeISt4pairIKSt6bitsetILy64EESt6vectorIiSaIiEEELb0EEEEE18_M_deallocate_nodeEPSA_"
 "_ZNSt8__detail16_Hashtable_allocISaINS_10_Hash_nodeISt4pairIKSt6bitsetILy64EESt6vectorIiSaIiEEELb0EEEEE19_M_deallocate_nodesEPSA_"
 "_ZNSt8__detail16_Hashtable_allocISaINS_10_Hash_nodeISt4pairIKSt6bitsetILy64EESt6vectorIiSaIiEEELb0EEEEE21_M_deallocate_bucketsEPPNS_15_Hash_node_baseEy"
 "_ZNSt8__detail16_Hashtable_allocISaINS_10_Hash_nodeISt4pairIKSt6bitsetILy64EESt6vectorIiSaIiEEELb0EEEEE22_M_deallocate_node_ptrEPSA_"
 "_ZNSt8__detail16_Hashtable_allocISaINS_10_Hash_nodeISt4pairIKSt6bitsetILy64EESt6vectorIiSaIiEEELb0EEEEED2Ev"
 "_ZNSt8__detail18__to_chars_10_implIjEEvPcjT_"
 "_ZNSt8__detail19_Node_iterator_baseISt4pairIKP18llama_adapter_lorafELb0EE7_M_incrEv"
 "_ZNSt8__detail19_Node_iterator_baseISt4pairIKP18llama_adapter_lorafELb0EEC2EPNS_10_Hash_nodeIS5_Lb0EEE"
 "_ZNSt8__detail20_Node_const_iteratorISt4pairIKP18llama_adapter_lorafELb0ELb0EEC1ERKNS_14_Node_iteratorIS5_Lb0ELb0EEE"
 "_ZNSt8__detail20_Prime_rehash_policy8_M_resetEy"
 "_ZNSt8__detail20_Prime_rehash_policyC1Ef"
 "_ZNSt8__detail21_Hashtable_ebo_helperILi0ESaINS_10_Hash_nodeISt4pairIKP18llama_adapter_lorafELb0EEEELb1EE6_M_getEv"
 "_ZNSt8__detail21_Hashtable_ebo_helperILi0ESaINS_10_Hash_nodeISt4pairIKP18llama_adapter_lorafELb0EEEELb1EEC2Ev"
 "_ZNSt8__detail21_Hashtable_ebo_helperILi0ESaINS_10_Hash_nodeISt4pairIKP18llama_adapter_lorafELb0EEEELb1EED2Ev"
 "_ZNSt8__detail21_Hashtable_ebo_helperILi0ESaINS_10_Hash_nodeISt4pairIKSt6bitsetILy64EESt6vectorIiSaIiEEELb0EEEELb1EE6_M_getEv"
 "_ZNSt8__detail21_Hashtable_ebo_helperILi0ESaINS_10_Hash_nodeISt4pairIKSt6bitsetILy64EESt6vectorIiSaIiEEELb0EEEELb1EED2Ev"
 "_ZNSt8__detail21_Hashtable_ebo_helperILi0ESt8equal_toIP18llama_adapter_loraELb1EEC2Ev"
 "_ZNSt8__detail21_Hashtable_ebo_helperILi1ESt4hashIP18llama_adapter_loraELb1EEC2Ev"
 "_ZNSt8__detail22_Hashtable_hash_traitsISt4hashIP18llama_adapter_loraEE22__small_size_thresholdEv"
 "_ZNSt8__detail9_Map_baseIP18llama_adapter_loraSt4pairIKS2_fESaIS5_ENS_10_Select1stESt8equal_toIS2_ESt4hashIS2_ENS_18_Mod_range_hashingENS_20_Default_ranged_hashENS_20_Prime_rehash_policyENS_17_Hashtable_traitsILb0ELb0ELb1EEELb1EEixERS4_"
 "_ZNSt8__detailneERKNS_19_Node_iterator_baseISt4pairIKP18llama_adapter_lorafELb0EEES8_"
 "_ZNSt8_Rb_treeIiiSt9_IdentityIiESt4lessIiESaIiEE10_M_insert_IRKiNS5_11_Alloc_nodeEEESt17_Rb_tree_iteratorIiEPSt18_Rb_tree_node_baseSD_OT_RT0_"
 "_ZNSt8_Rb_treeIiiSt9_IdentityIiESt4lessIiESaIiEE11_Alloc_nodeC1ERS5_"
 "_ZNSt8_Rb_treeIiiSt9_IdentityIiESt4lessIiESaIiEE11_M_get_nodeEv"
 "_ZNSt8_Rb_treeIiiSt9_IdentityIiESt4lessIiESaIiEE11_M_put_nodeEPSt13_Rb_tree_nodeIiE"
 "_ZNSt8_Rb_treeIiiSt9_IdentityIiESt4lessIiESaIiEE12_M_drop_nodeEPSt13_Rb_tree_nodeIiE"
 "_ZNSt8_Rb_treeIiiSt9_IdentityIiESt4lessIiESaIiEE13_Rb_tree_implIS3_Lb1EEC1EOS7_"
 "_ZNSt8_Rb_treeIiiSt9_IdentityIiESt4lessIiESaIiEE13_Rb_tree_implIS3_Lb1EEC1Ev"
 "_ZNSt8_Rb_treeIiiSt9_IdentityIiESt4lessIiESaIiEE13_Rb_tree_implIS3_Lb1EED1Ev"
 "_ZNSt8_Rb_treeIiiSt9_IdentityIiESt4lessIiESaIiEE14_M_create_nodeIJRKiEEEPSt13_Rb_tree_nodeIiEDpOT_"
 "_ZNSt8_Rb_treeIiiSt9_IdentityIiESt4lessIiESaIiEE15_M_destroy_nodeEPSt13_Rb_tree_nodeIiE"
 "_ZNSt8_Rb_treeIiiSt9_IdentityIiESt4lessIiESaIiEE16_M_insert_uniqueIRKiEESt4pairISt17_Rb_tree_iteratorIiEbEOT_"
 "_ZNSt8_Rb_treeIiiSt9_IdentityIiESt4lessIiESaIiEE17_M_construct_nodeIJRKiEEEvPSt13_Rb_tree_nodeIiEDpOT_"
 "_ZNSt8_Rb_treeIiiSt9_IdentityIiESt4lessIiESaIiEE21_M_get_Node_allocatorEv"
 "_ZNSt8_Rb_treeIiiSt9_IdentityIiESt4lessIiESaIiEE24_M_get_insert_unique_posERKi"
 "_ZNSt8_Rb_treeIiiSt9_IdentityIiESt4lessIiESaIiEE5beginEv"
 "_ZNSt8_Rb_treeIiiSt9_IdentityIiESt4lessIiESaIiEE5clearEv"
 "_ZNSt8_Rb_treeIiiSt9_IdentityIiESt4lessIiESaIiEE6_M_endEv"
 "_ZNSt8_Rb_treeIiiSt9_IdentityIiESt4lessIiESaIiEE6_S_keyEPKSt13_Rb_tree_nodeIiE"
 "_ZNSt8_Rb_treeIiiSt9_IdentityIiESt4lessIiESaIiEE6_S_keyEPKSt18_Rb_tree_node_base"
 "_ZNSt8_Rb_treeIiiSt9_IdentityIiESt4lessIiESaIiEE7_S_leftEPSt18_Rb_tree_node_base"
 "_ZNSt8_Rb_treeIiiSt9_IdentityIiESt4lessIiESaIiEE8_M_beginEv"
 "_ZNSt8_Rb_treeIiiSt9_IdentityIiESt4lessIiESaIiEE8_M_eraseEPSt13_Rb_tree_nodeIiE"
 "_ZNSt8_Rb_treeIiiSt9_IdentityIiESt4lessIiESaIiEE8_S_rightEPSt18_Rb_tree_node_base"
 "_ZNSt8_Rb_treeIiiSt9_IdentityIiESt4lessIiESaIiEEC1EOS5_"
 "_ZNSt8_Rb_treeIiiSt9_IdentityIiESt4lessIiESaIiEEC1Ev"
 "_ZNSt8_Rb_treeIiiSt9_IdentityIiESt4lessIiESaIiEED1Ev"
 "_ZNSt8_Rb_treeIiSt4pairIKiSt6vectorIfSaIfEEESt10_Select1stIS5_ESt4lessIiESaIS5_EE10_Auto_node9_M_insertES0_IPSt18_Rb_tree_node_baseSE_E"
 "_ZNSt8_Rb_treeIiSt4pairIKiSt6vectorIfSaIfEEESt10_Select1stIS5_ESt4lessIiESaIS5_EE10_Auto_nodeC1IJRKSt21piecewise_construct_tSt5tupleIJRS1_EESH_IJEEEEERSB_DpOT_"
 "_ZNSt8_Rb_treeIiSt4pairIKiSt6vectorIfSaIfEEESt10_Select1stIS5_ESt4lessIiESaIS5_EE10_Auto_nodeD1Ev"
 "_ZNSt8_Rb_treeIiSt4pairIKiSt6vectorIfSaIfEEESt10_Select1stIS5_ESt4lessIiESaIS5_EE11_M_get_nodeEv"
 "_ZNSt8_Rb_treeIiSt4pairIKiSt6vectorIfSaIfEEESt10_Select1stIS5_ESt4lessIiESaIS5_EE11_M_leftmostEv"
 "_ZNSt8_Rb_treeIiSt4pairIKiSt6vectorIfSaIfEEESt10_Select1stIS5_ESt4lessIiESaIS5_EE11_M_put_nodeEPSt13_Rb_tree_nodeIS5_E"
 "_ZNSt8_Rb_treeIiSt4pairIKiSt6vectorIfSaIfEEESt10_Select1stIS5_ESt4lessIiESaIS5_EE11lower_boundERS1_"
 "_ZNSt8_Rb_treeIiSt4pairIKiSt6vectorIfSaIfEEESt10_Select1stIS5_ESt4lessIiESaIS5_EE12_M_drop_nodeEPSt13_Rb_tree_nodeIS5_E"
 "_ZNSt8_Rb_treeIiSt4pairIKiSt6vectorIfSaIfEEESt10_Select1stIS5_ESt4lessIiESaIS5_EE12_M_rightmostEv"
 "_ZNSt8_Rb_treeIiSt4pairIKiSt6vectorIfSaIfEEESt10_Select1stIS5_ESt4lessIiESaIS5_EE13_Rb_tree_implIS9_Lb1EEC1Ev"
 "_ZNSt8_Rb_treeIiSt4pairIKiSt6vectorIfSaIfEEESt10_Select1stIS5_ESt4lessIiESaIS5_EE13_Rb_tree_implIS9_Lb1EED1Ev"
 "_ZNSt8_Rb_treeIiSt4pairIKiSt6vectorIfSaIfEEESt10_Select1stIS5_ESt4lessIiESaIS5_EE14_M_create_nodeIJRKSt21piecewise_construct_tSt5tupleIJRS1_EESG_IJEEEEEPSt13_Rb_tree_nodeIS5_EDpOT_"
 "_ZNSt8_Rb_treeIiSt4pairIKiSt6vectorIfSaIfEEESt10_Select1stIS5_ESt4lessIiESaIS5_EE14_M_insert_nodeEPSt18_Rb_tree_node_baseSD_PSt13_Rb_tree_nodeIS5_E"
 "_ZNSt8_Rb_treeIiSt4pairIKiSt6vectorIfSaIfEEESt10_Select1stIS5_ESt4lessIiESaIS5_EE14_M_lower_boundEPSt13_Rb_tree_nodeIS5_EPSt18_Rb_tree_node_baseRS1_"
 "_ZNSt8_Rb_treeIiSt4pairIKiSt6vectorIfSaIfEEESt10_Select1stIS5_ESt4lessIiESaIS5_EE15_M_destroy_nodeEPSt13_Rb_tree_nodeIS5_E"
 "_ZNSt8_Rb_treeIiSt4pairIKiSt6vectorIfSaIfEEESt10_Select1stIS5_ESt4lessIiESaIS5_EE17_M_construct_nodeIJRKSt21piecewise_construct_tSt5tupleIJRS1_EESG_IJEEEEEvPSt13_Rb_tree_nodeIS5_EDpOT_"
 "_ZNSt8_Rb_treeIiSt4pairIKiSt6vectorIfSaIfEEESt10_Select1stIS5_ESt4lessIiESaIS5_EE21_M_get_Node_allocatorEv"
 "_ZNSt8_Rb_treeIiSt4pairIKiSt6vectorIfSaIfEEESt10_Select1stIS5_ESt4lessIiESaIS5_EE22_M_emplace_hint_uniqueIJRKSt21piecewise_construct_tSt5tupleIJRS1_EESG_IJEEEEESt17_Rb_tree_iteratorIS5_ESt23_Rb_tree_const_iteratorIS5_EDpOT_"
 "_ZNSt8_Rb_treeIiSt4pairIKiSt6vectorIfSaIfEEESt10_Select1stIS5_ESt4lessIiESaIS5_EE24_M_get_insert_unique_posERS1_"
 "_ZNSt8_Rb_treeIiSt4pairIKiSt6vectorIfSaIfEEESt10_Select1stIS5_ESt4lessIiESaIS5_EE29_M_get_insert_hint_unique_posESt23_Rb_tree_const_iteratorIS5_ERS1_"
 "_ZNSt8_Rb_treeIiSt4pairIKiSt6vectorIfSaIfEEESt10_Select1stIS5_ESt4lessIiESaIS5_EE3endEv"
 "_ZNSt8_Rb_treeIiSt4pairIKiSt6vectorIfSaIfEEESt10_Select1stIS5_ESt4lessIiESaIS5_EE4findERS1_"
 "_ZNSt8_Rb_treeIiSt4pairIKiSt6vectorIfSaIfEEESt10_Select1stIS5_ESt4lessIiESaIS5_EE5beginEv"
 "_ZNSt8_Rb_treeIiSt4pairIKiSt6vectorIfSaIfEEESt10_Select1stIS5_ESt4lessIiESaIS5_EE5clearEv"
 "_ZNSt8_Rb_treeIiSt4pairIKiSt6vectorIfSaIfEEESt10_Select1stIS5_ESt4lessIiESaIS5_EE6_M_endEv"
 "_ZNSt8_Rb_treeIiSt4pairIKiSt6vectorIfSaIfEEESt10_Select1stIS5_ESt4lessIiESaIS5_EE6_S_keyEPKSt13_Rb_tree_nodeIS5_E"
 "_ZNSt8_Rb_treeIiSt4pairIKiSt6vectorIfSaIfEEESt10_Select1stIS5_ESt4lessIiESaIS5_EE6_S_keyEPKSt18_Rb_tree_node_base"
 "_ZNSt8_Rb_treeIiSt4pairIKiSt6vectorIfSaIfEEESt10_Select1stIS5_ESt4lessIiESaIS5_EE7_S_leftEPSt18_Rb_tree_node_base"
 "_ZNSt8_Rb_treeIiSt4pairIKiSt6vectorIfSaIfEEESt10_Select1stIS5_ESt4lessIiESaIS5_EE8_M_beginEv"
 "_ZNSt8_Rb_treeIiSt4pairIKiSt6vectorIfSaIfEEESt10_Select1stIS5_ESt4lessIiESaIS5_EE8_M_eraseEPSt13_Rb_tree_nodeIS5_E"
 "_ZNSt8_Rb_treeIiSt4pairIKiSt6vectorIfSaIfEEESt10_Select1stIS5_ESt4lessIiESaIS5_EE8_S_rightEPSt18_Rb_tree_node_base"
 "_ZNSt8_Rb_treeIiSt4pairIKiSt6vectorIfSaIfEEESt10_Select1stIS5_ESt4lessIiESaIS5_EEC1Ev"
 "_ZNSt8_Rb_treeIiSt4pairIKiSt6vectorIfSaIfEEESt10_Select1stIS5_ESt4lessIiESaIS5_EED1Ev"
 "_ZNSt8functionIFvRK12llama_ubatchP11ggml_tensorPKciEED1Ev"
 "_ZNSt9_Any_data9_M_accessEv"
 "_ZNSt9_Any_data9_M_accessIPKSt9type_infoEERT_v"
 "_ZnwyPv"
 "_ZSt10__fill_n_aIPfyfET_S1_T0_RKT1_St26random_access_iterator_tag"
 "_ZSt10__fill_n_aIPhyhET_S1_T0_RKT1_St26random_access_iterator_tag"
 "_ZSt10__fill_n_aIPiyiET_S1_T0_RKT1_St26random_access_iterator_tag"
 "_ZSt10_ConstructIfJEEvPT_DpOT0_"
 "_ZSt10_ConstructIhJEEvPT_DpOT0_"
 "_ZSt10_ConstructIiJEEvPT_DpOT0_"
 "_ZSt10_ConstructISt3setIiSt4lessIiESaIiEEJEEvPT_DpOT0_"
 "_ZSt11__addressofIfEPT_RS0_"
 "_ZSt11__addressofIhEPT_RS0_"
 "_ZSt11__addressofIiEPT_RS0_"
 "_ZSt11__addressofImEPT_RS0_"
 "_ZSt11__addressofINSt8__detail10_Hash_nodeISt4pairIKP18llama_adapter_lorafELb0EEEEPT_RS8_"
 "_ZSt11__addressofINSt8__detail10_Hash_nodeISt4pairIKSt6bitsetILy64EESt6vectorIiSaIiEEELb0EEEEPT_RSB_"
 "_ZSt11__addressofIPNSt8__detail15_Hash_node_baseEEPT_RS3_"
 "_ZSt11__addressofISt10unique_ptrI12ggml_backend20ggml_backend_deleterEEPT_RS4_"
 "_ZSt11__addressofISt10unique_ptrI12ggml_context20ggml_context_deleterEEPT_RS4_"
 "_ZSt11__addressofISt10unique_ptrI19ggml_backend_buffer27ggml_backend_buffer_deleterEEPT_RS4_"
 "_ZSt11__addressofISt3setIiSt4lessIiESaIiEEEPT_RS5_"
 "_ZSt11__addressofISt4pairIP12ggml_backendPFvS2_iEEEPT_RS6_"
 "_ZSt11__addressofISt6vectorIbSaIbEEEPT_RS3_"
 "_ZSt11make_uniqueI18llama_batch_allocrJjEENSt8__detail9_MakeUniqIT_E15__single_objectEDpOT0_"
 "_ZSt12__get_helperILy0EP12ggml_backendJ20ggml_backend_deleterEERKT0_RKSt11_Tuple_implIXT_EJS3_DpT1_EE"
 "_ZSt12__get_helperILy0EP12ggml_backendJ20ggml_backend_deleterEERT0_RSt11_Tuple_implIXT_EJS3_DpT1_EE"
 "_ZSt12__get_helperILy0EP12ggml_contextJ20ggml_context_deleterEERT0_RSt11_Tuple_implIXT_EJS3_DpT1_EE"
 "_ZSt12__get_helperILy0EP14llama_memory_iJSt14default_deleteIS0_EEERKT0_RKSt11_Tuple_implIXT_EJS4_DpT1_EE"
 "_ZSt12__get_helperILy0EP14llama_memory_iJSt14default_deleteIS0_EEERT0_RSt11_Tuple_implIXT_EJS4_DpT1_EE"
 "_ZSt12__get_helperILy0EP16llm_graph_resultJSt14default_deleteIS0_EEERKT0_RKSt11_Tuple_implIXT_EJS4_DpT1_EE"
 "_ZSt12__get_helperILy0EP16llm_graph_resultJSt14default_deleteIS0_EEERT0_RSt11_Tuple_implIXT_EJS4_DpT1_EE"
 "_ZSt12__get_helperILy0EP18ggml_backend_schedJ26ggml_backend_sched_deleterEERKT0_RKSt11_Tuple_implIXT_EJS3_DpT1_EE"
 "_ZSt12__get_helperILy0EP18ggml_backend_schedJ26ggml_backend_sched_deleterEERT0_RSt11_Tuple_implIXT_EJS3_DpT1_EE"
 "_ZSt12__get_helperILy0EP18llama_batch_allocrJSt14default_deleteIS0_EEERKT0_RKSt11_Tuple_implIXT_EJS4_DpT1_EE"
 "_ZSt12__get_helperILy0EP18llama_batch_allocrJSt14default_deleteIS0_EEERT0_RSt11_Tuple_implIXT_EJS4_DpT1_EE"
 "_ZSt12__get_helperILy0EP19ggml_backend_bufferJ27ggml_backend_buffer_deleterEERKT0_RKSt11_Tuple_implIXT_EJS3_DpT1_EE"
 "_ZSt12__get_helperILy0EP19ggml_backend_bufferJ27ggml_backend_buffer_deleterEERT0_RSt11_Tuple_implIXT_EJS3_DpT1_EE"
 "_ZSt12__get_helperILy0EP22llama_memory_context_iJSt14default_deleteIS0_EEERKT0_RKSt11_Tuple_implIXT_EJS4_DpT1_EE"
 "_ZSt12__get_helperILy0EP22llama_memory_context_iJSt14default_deleteIS0_EEERT0_RSt11_Tuple_implIXT_EJS4_DpT1_EE"
 "_ZSt12__get_helperILy0ERKiJEERT0_RSt11_Tuple_implIXT_EJS2_DpT1_EE"
 "_ZSt12__get_helperILy0ERKP18llama_adapter_loraJEERT0_RSt11_Tuple_implIXT_EJS4_DpT1_EE"
 "_ZSt12__get_helperILy1E20ggml_backend_deleterJEERT0_RSt11_Tuple_implIXT_EJS1_DpT1_EE"
 "_ZSt12__get_helperILy1E20ggml_context_deleterJEERT0_RSt11_Tuple_implIXT_EJS1_DpT1_EE"
 "_ZSt12__get_helperILy1E26ggml_backend_sched_deleterJEERT0_RSt11_Tuple_implIXT_EJS1_DpT1_EE"
 "_ZSt12__get_helperILy1E27ggml_backend_buffer_deleterJEERT0_RSt11_Tuple_implIXT_EJS1_DpT1_EE"
 "_ZSt12__get_helperILy1ESt14default_deleteI14llama_memory_iEJEERT0_RSt11_Tuple_implIXT_EJS3_DpT1_EE"
 "_ZSt12__get_helperILy1ESt14default_deleteI16llm_graph_resultEJEERT0_RSt11_Tuple_implIXT_EJS3_DpT1_EE"
 "_ZSt12__get_helperILy1ESt14default_deleteI18llama_batch_allocrEJEERT0_RSt11_Tuple_implIXT_EJS3_DpT1_EE"
 "_ZSt12__get_helperILy1ESt14default_deleteI22llama_memory_context_iEJEERT0_RSt11_Tuple_implIXT_EJS3_DpT1_EE"
 "_ZSt12__niter_baseIPfET_S1_"
 "_ZSt12__niter_baseIPhET_S1_"
 "_ZSt12__niter_baseIPiET_S1_"
 "_ZSt12__niter_baseIPN13llama_context9swap_infoEET_S3_"
 "_ZSt12__niter_baseIPP12ggml_backendET_S3_"
 "_ZSt12__niter_baseIPP24ggml_backend_buffer_typeET_S3_"
 "_ZSt12__niter_baseIPSt10unique_ptrI12ggml_backend20ggml_backend_deleterEET_S5_"
 "_ZSt12__niter_baseIPSt3setIiSt4lessIiESaIiEEET_S6_"
 "_ZSt12__niter_baseIPSt4pairIP12ggml_backendPFvS2_iEEET_S7_"
 "_ZSt12__relocate_aIPfS0_SaIfEET0_T_S3_S2_RT1_"
 "_ZSt12__relocate_aIPhS0_SaIhEET0_T_S3_S2_RT1_"
 "_ZSt12__relocate_aIPiS0_SaIiEET0_T_S3_S2_RT1_"
 "_ZSt12__relocate_aIPN13llama_context9swap_infoES2_SaIS1_EET0_T_S5_S4_RT1_"
 "_ZSt12__relocate_aIPP12ggml_backendS2_SaIS1_EET0_T_S5_S4_RT1_"
 "_ZSt12__relocate_aIPP24ggml_backend_buffer_typeS2_SaIS1_EET0_T_S5_S4_RT1_"
 "_ZSt12__relocate_aIPSt10unique_ptrI12ggml_backend20ggml_backend_deleterES4_SaIS3_EET0_T_S7_S6_RT1_"
 "_ZSt12__relocate_aIPSt3setIiSt4lessIiESaIiEES5_SaIS4_EET0_T_S8_S7_RT1_"
 "_ZSt12__relocate_aIPSt4pairIP12ggml_backendPFvS2_iEES6_SaIS5_EET0_T_S9_S8_RT1_"
 "_ZSt12__to_addressINSt8__detail10_Hash_nodeISt4pairIKP18llama_adapter_lorafELb0EEEEPT_S9_"
 "_ZSt12__to_addressIPNSt8__detail15_Hash_node_baseEEPT_S4_"
 "_ZSt14__relocate_a_1IffENSt9enable_ifIXsrSt24__is_bitwise_relocatableIT_vE5valueEPS2_E4typeES4_S4_S4_RSaIT0_E"
 "_ZSt14__relocate_a_1IhhENSt9enable_ifIXsrSt24__is_bitwise_relocatableIT_vE5valueEPS2_E4typeES4_S4_S4_RSaIT0_E"
 "_ZSt14__relocate_a_1IiiENSt9enable_ifIXsrSt24__is_bitwise_relocatableIT_vE5valueEPS2_E4typeES4_S4_S4_RSaIT0_E"
 "_ZSt14__relocate_a_1IN13llama_context9swap_infoES1_ENSt9enable_ifIXsrSt24__is_bitwise_relocatableIT_vE5valueEPS4_E4typeES6_S6_S6_RSaIT0_E"
 "_ZSt14__relocate_a_1IP12ggml_backendS1_ENSt9enable_ifIXsrSt24__is_bitwise_relocatableIT_vE5valueEPS4_E4typeES6_S6_S6_RSaIT0_E"
 "_ZSt14__relocate_a_1IP24ggml_backend_buffer_typeS1_ENSt9enable_ifIXsrSt24__is_bitwise_relocatableIT_vE5valueEPS4_E4typeES6_S6_S6_RSaIT0_E"
 "_ZSt14__relocate_a_1IPSt10unique_ptrI12ggml_backend20ggml_backend_deleterES4_SaIS3_EET0_T_S7_S6_RT1_"
 "_ZSt14__relocate_a_1IPSt3setIiSt4lessIiESaIiEES5_SaIS4_EET0_T_S8_S7_RT1_"
 "_ZSt14__relocate_a_1IPSt4pairIP12ggml_backendPFvS2_iEES6_SaIS5_EET0_T_S9_S8_RT1_"
 "_ZSt17__size_to_integery"
 "_ZSt19__relocate_object_aISt10unique_ptrI12ggml_backend20ggml_backend_deleterES3_SaIS3_EEvPT_PT0_RT1_"
 "_ZSt19__relocate_object_aISt3setIiSt4lessIiESaIiEES4_SaIS4_EEvPT_PT0_RT1_"
 "_ZSt19__relocate_object_aISt4pairIP12ggml_backendPFvS2_iEES5_SaIS5_EEvPT_PT0_RT1_"
 "_ZSt19piecewise_construct"
 "_ZSt23__is_constant_evaluatedv"
 "_ZSt25__uninitialized_default_nIPfyET_S1_T0_"
 "_ZSt25__uninitialized_default_nIPhyET_S1_T0_"
 "_ZSt25__uninitialized_default_nIPiyET_S1_T0_"
 "_ZSt25__uninitialized_default_nIPSt3setIiSt4lessIiESaIiEEyET_S6_T0_"
 "_ZSt27__uninitialized_default_n_aIPfyfET_S1_T0_RSaIT1_E"
 "_ZSt27__uninitialized_default_n_aIPhyhET_S1_T0_RSaIT1_E"
 "_ZSt27__uninitialized_default_n_aIPiyiET_S1_T0_RSaIT1_E"
 "_ZSt27__uninitialized_default_n_aIPSt3setIiSt4lessIiESaIiEEyS4_ET_S6_T0_RSaIT1_E"
 "_ZSt3getILy0EJP12ggml_backend20ggml_backend_deleterEERKNSt13tuple_elementIXT_ESt5tupleIJDpT0_EEE4typeERKS7_"
 "_ZSt3getILy0EJP12ggml_backend20ggml_backend_deleterEERNSt13tuple_elementIXT_ESt5tupleIJDpT0_EEE4typeERS7_"
 "_ZSt3getILy0EJP12ggml_context20ggml_context_deleterEERNSt13tuple_elementIXT_ESt5tupleIJDpT0_EEE4typeERS7_"
 "_ZSt3getILy0EJP14llama_memory_iSt14default_deleteIS0_EEERKNSt13tuple_elementIXT_ESt5tupleIJDpT0_EEE4typeERKS8_"
 "_ZSt3getILy0EJP14llama_memory_iSt14default_deleteIS0_EEERNSt13tuple_elementIXT_ESt5tupleIJDpT0_EEE4typeERS8_"
 "_ZSt3getILy0EJP16llm_graph_resultSt14default_deleteIS0_EEERKNSt13tuple_elementIXT_ESt5tupleIJDpT0_EEE4typeERKS8_"
 "_ZSt3getILy0EJP16llm_graph_resultSt14default_deleteIS0_EEERNSt13tuple_elementIXT_ESt5tupleIJDpT0_EEE4typeERS8_"
 "_ZSt3getILy0EJP18ggml_backend_sched26ggml_backend_sched_deleterEERKNSt13tuple_elementIXT_ESt5tupleIJDpT0_EEE4typeERKS7_"
 "_ZSt3getILy0EJP18ggml_backend_sched26ggml_backend_sched_deleterEERNSt13tuple_elementIXT_ESt5tupleIJDpT0_EEE4typeERS7_"
 "_ZSt3getILy0EJP18llama_batch_allocrSt14default_deleteIS0_EEERKNSt13tuple_elementIXT_ESt5tupleIJDpT0_EEE4typeERKS8_"
 "_ZSt3getILy0EJP18llama_batch_allocrSt14default_deleteIS0_EEERNSt13tuple_elementIXT_ESt5tupleIJDpT0_EEE4typeERS8_"
 "_ZSt3getILy0EJP19ggml_backend_buffer27ggml_backend_buffer_deleterEERKNSt13tuple_elementIXT_ESt5tupleIJDpT0_EEE4typeERKS7_"
 "_ZSt3getILy0EJP19ggml_backend_buffer27ggml_backend_buffer_deleterEERNSt13tuple_elementIXT_ESt5tupleIJDpT0_EEE4typeERS7_"
 "_ZSt3getILy0EJP22llama_memory_context_iSt14default_deleteIS0_EEERKNSt13tuple_elementIXT_ESt5tupleIJDpT0_EEE4typeERKS8_"
 "_ZSt3getILy0EJP22llama_memory_context_iSt14default_deleteIS0_EEERNSt13tuple_elementIXT_ESt5tupleIJDpT0_EEE4typeERS8_"
 "_ZSt3getILy0EJRKiEERNSt13tuple_elementIXT_ESt5tupleIJDpT0_EEE4typeERS6_"
 "_ZSt3getILy0EJRKP18llama_adapter_loraEERNSt13tuple_elementIXT_ESt5tupleIJDpT0_EEE4typeERS8_"
 "_ZSt3getILy1EJP12ggml_backend20ggml_backend_deleterEERNSt13tuple_elementIXT_ESt5tupleIJDpT0_EEE4typeERS7_"
 "_ZSt3getILy1EJP12ggml_context20ggml_context_deleterEERNSt13tuple_elementIXT_ESt5tupleIJDpT0_EEE4typeERS7_"
 "_ZSt3getILy1EJP14llama_memory_iSt14default_deleteIS0_EEERNSt13tuple_elementIXT_ESt5tupleIJDpT0_EEE4typeERS8_"
 "_ZSt3getILy1EJP16llm_graph_resultSt14default_deleteIS0_EEERNSt13tuple_elementIXT_ESt5tupleIJDpT0_EEE4typeERS8_"
 "_ZSt3getILy1EJP18ggml_backend_sched26ggml_backend_sched_deleterEERNSt13tuple_elementIXT_ESt5tupleIJDpT0_EEE4typeERS7_"
 "_ZSt3getILy1EJP18llama_batch_allocrSt14default_deleteIS0_EEERNSt13tuple_elementIXT_ESt5tupleIJDpT0_EEE4typeERS8_"
 "_ZSt3getILy1EJP19ggml_backend_buffer27ggml_backend_buffer_deleterEERNSt13tuple_elementIXT_ESt5tupleIJDpT0_EEE4typeERS7_"
 "_ZSt3getILy1EJP22llama_memory_context_iSt14default_deleteIS0_EEERNSt13tuple_elementIXT_ESt5tupleIJDpT0_EEE4typeERS8_"
 "_ZSt3maxIiERKT_S2_S2_"
 "_ZSt3maxIjERKT_S2_S2_"
 "_ZSt3maxIxERKT_S2_S2_"
 "_ZSt3maxIyERKT_S2_S2_"
 "_ZSt3minIiERKT_S2_S2_"
 "_ZSt3minIjERKT_S2_S2_"
 "_ZSt3minIyERKT_S2_S2_"
 "_ZSt4fillIN9__gnu_cxx17__normal_iteratorIPiSt6vectorIiSaIiEEEEiEvT_S7_RKT0_"
 "_ZSt4moveIRfEONSt16remove_referenceIT_E4typeEOS2_"
 "_ZSt4moveIRiEONSt16remove_referenceIT_E4typeEOS2_"
 "_ZSt4moveIRN13llama_context9swap_infoEEONSt16remove_referenceIT_E4typeEOS4_"
 "_ZSt4moveIRNSt7__cxx1112basic_stringIcSt11char_traitsIcESaIcEEEEONSt16remove_referenceIT_E4typeEOS8_"
 "_ZSt4moveIRP12ggml_backendEONSt16remove_referenceIT_E4typeEOS4_"
 "_ZSt4moveIRP12ggml_contextEONSt16remove_referenceIT_E4typeEOS4_"
 "_ZSt4moveIRP14llama_memory_iEONSt16remove_referenceIT_E4typeEOS4_"
 "_ZSt4moveIRP16llm_graph_resultEONSt16remove_referenceIT_E4typeEOS4_"
 "_ZSt4moveIRP18ggml_backend_schedEONSt16remove_referenceIT_E4typeEOS4_"
 "_ZSt4moveIRP18llama_batch_allocrEONSt16remove_referenceIT_E4typeEOS4_"
 "_ZSt4moveIRP19ggml_backend_bufferEONSt16remove_referenceIT_E4typeEOS4_"
 "_ZSt4moveIRP22llama_memory_context_iEONSt16remove_referenceIT_E4typeEOS4_"
 "_ZSt4moveIRSt10unique_ptrI12ggml_backend20ggml_backend_deleterEEONSt16remove_referenceIT_E4typeEOS6_"
 "_ZSt4moveIRSt3setIiSt4lessIiESaIiEEEONSt16remove_referenceIT_E4typeEOS7_"
 "_ZSt4moveIRSt4pairIP12ggml_backendPFvS2_iEEEONSt16remove_referenceIT_E4typeEOS8_"
 "_ZSt4moveIRSt5tupleIJP12ggml_backend20ggml_backend_deleterEEEONSt16remove_referenceIT_E4typeEOS7_"
 "_ZSt4swapIfENSt9enable_ifIXsrSt6__and_IJSt6__not_ISt15__is_tuple_likeIT_EESt21is_move_constructibleIS4_ESt18is_move_assignableIS4_EEE5valueEvE4typeERS4_SE_"
 "_ZSt4swapIiENSt9enable_ifIXsrSt6__and_IJSt6__not_ISt15__is_tuple_likeIT_EESt21is_move_constructibleIS4_ESt18is_move_assignableIS4_EEE5valueEvE4typeERS4_SE_"
 "_ZSt6fill_nIPfyfET_S1_T0_RKT1_"
 "_ZSt6fill_nIPhyhET_S1_T0_RKT1_"
 "_ZSt6fill_nIPiyiET_S1_T0_RKT1_"
 "_ZSt7forwardIbEOT_RNSt16remove_referenceIS0_E4typeE"
 "_ZSt7forwardIiEOT_RNSt16remove_referenceIS0_E4typeE"
 "_ZSt7forwardIjEOT_RNSt16remove_referenceIS0_E4typeE"
 "_ZSt7forwardIN13llama_context9swap_infoEEOT_RNSt16remove_referenceIS2_E4typeE"
 "_ZSt7forwardIP11ggml_tensorEOT_RNSt16remove_referenceIS2_E4typeE"
 "_ZSt7forwardIP12ggml_backendEOT_RNSt16remove_referenceIS2_E4typeE"
 "_ZSt7forwardIPKcEOT_RNSt16remove_referenceIS2_E4typeE"
 "_ZSt7forwardIRbEOT_RNSt16remove_referenceIS1_E4typeE"
 "_ZSt7forwardIRK12llama_ubatchEOT_RNSt16remove_referenceIS3_E4typeE"
 "_ZSt7forwardIRKiEOT_RNSt16remove_referenceIS2_E4typeE"
 "_ZSt7forwardIRKP18llama_adapter_loraEOT_RNSt16remove_referenceIS4_E4typeE"
 "_ZSt7forwardIRKP24ggml_backend_buffer_typeEOT_RNSt16remove_referenceIS4_E4typeE"
 "_ZSt7forwardIRKSt21piecewise_construct_tEOT_RNSt16remove_referenceIS3_E4typeE"
 "_ZSt7forwardIRKSt4pairIKP18llama_adapter_lorafEEOT_RNSt16remove_referenceIS7_E4typeE"
 "_ZSt7forwardIRP12ggml_backendEOT_RNSt16remove_referenceIS3_E4typeE"
 "_ZSt7forwardIRPFvP12ggml_backendiEEOT_RNSt16remove_referenceIS5_E4typeE"
 "_ZSt7forwardIRPSt13_Rb_tree_nodeIiEEOT_RNSt16remove_referenceIS4_E4typeE"
 "_ZSt7forwardIRPSt13_Rb_tree_nodeISt4pairIKiSt6vectorIfSaIfEEEEEOT_RNSt16remove_referenceISA_E4typeE"
 "_ZSt7forwardIRPSt18_Rb_tree_node_baseEOT_RNSt16remove_referenceIS3_E4typeE"
 "_ZSt7forwardIRSt17_Rb_tree_iteratorIiEEOT_RNSt16remove_referenceIS3_E4typeE"
 "_ZSt7forwardISt10unique_ptrI12ggml_backend20ggml_backend_deleterEEOT_RNSt16remove_referenceIS4_E4typeE"
 "_ZSt7forwardISt14default_deleteI22llama_memory_context_iEEOT_RNSt16remove_referenceIS3_E4typeE"
 "_ZSt7forwardISt17_Rb_tree_iteratorIiEEOT_RNSt16remove_referenceIS2_E4typeE"
 "_ZSt7forwardISt3setIiSt4lessIiESaIiEEEOT_RNSt16remove_referenceIS5_E4typeE"
 "_ZSt7forwardISt4pairIP12ggml_backendPFvS2_iEEEOT_RNSt16remove_referenceIS6_E4typeE"
 "_ZSt7forwardISt5tupleIJEEEOT_RNSt16remove_referenceIS2_E4typeE"
 "_ZSt7forwardISt5tupleIJRKiEEEOT_RNSt16remove_referenceIS4_E4typeE"
 "_ZSt7forwardISt5tupleIJRKP18llama_adapter_loraEEEOT_RNSt16remove_referenceIS6_E4typeE"
 "_ZSt8__fill_aIN9__gnu_cxx17__normal_iteratorIPiSt6vectorIiSaIiEEEEiEvT_S7_RKT0_"
 "_ZSt8__fill_aIPffEvT_S1_RKT0_"
 "_ZSt8__fill_aIPhhEvT_S1_RKT0_"
 "_ZSt8__fill_aIPiiEvT_S1_RKT0_"
 "_ZSt8_DestroyIPaEvT_S1_"
 "_ZSt8_DestroyIPfEvT_S1_"
 "_ZSt8_DestroyIPhEvT_S1_"
 "_ZSt8_DestroyIPiEvT_S1_"
 "_ZSt8_DestroyIPN13llama_context9swap_infoEEvT_S3_"
 "_ZSt8_DestroyIPP11ggml_tensorEvT_S3_"
 "_ZSt8_DestroyIPP12ggml_backendEvT_S3_"
 "_ZSt8_DestroyIPP24ggml_backend_buffer_typeEvT_S3_"
 "_ZSt8_DestroyIPPiEvT_S2_"
 "_ZSt8_DestroyIPSt10unique_ptrI12ggml_backend20ggml_backend_deleterEEvT_S5_"
 "_ZSt8_DestroyIPSt10unique_ptrI12ggml_context20ggml_context_deleterEEvT_S5_"
 "_ZSt8_DestroyIPSt10unique_ptrI19ggml_backend_buffer27ggml_backend_buffer_deleterEEvT_S5_"
 "_ZSt8_DestroyIPSt3setIiSt4lessIiESaIiEEEvT_S6_"
 "_ZSt8_DestroyIPSt4pairIP12ggml_backendPFvS2_iEEEvT_S7_"
 "_ZSt8_DestroyIPSt6bitsetILy64EEEvT_S3_"
 "_ZSt8_DestroyIPSt6vectorIbSaIbEEEvT_S4_"
 "_ZSt8_DestroyISt10unique_ptrI12ggml_backend20ggml_backend_deleterEEvPT_"
 "_ZSt8_DestroyISt10unique_ptrI12ggml_context20ggml_context_deleterEEvPT_"
 "_ZSt8_DestroyISt10unique_ptrI19ggml_backend_buffer27ggml_backend_buffer_deleterEEvPT_"
 "_ZSt8_DestroyISt3setIiSt4lessIiESaIiEEEvPT_"
 "_ZSt8_DestroyISt6vectorIbSaIbEEEvPT_"
 "_ZSt9__fill_a1IhEN9__gnu_cxx11__enable_ifIXsrSt9__is_byteIT_E7__valueEvE6__typeEPS3_S7_RKS3_"
 "_ZSt9__fill_a1IPffEN9__gnu_cxx11__enable_ifIXsrSt11__is_scalarIT0_E7__valueEvE6__typeET_S8_RKS4_"
 "_ZSt9__fill_a1IPiiEN9__gnu_cxx11__enable_ifIXsrSt11__is_scalarIT0_E7__valueEvE6__typeET_S8_RKS4_"
 "_ZSt9__fill_a1IPiSt6vectorIiSaIiEEiEvN9__gnu_cxx17__normal_iteratorIT_T0_EES8_RKT1_"
 "_ZSt9addressofINSt8__detail10_Hash_nodeISt4pairIKP18llama_adapter_lorafELb0EEEEPT_RS8_"
 "_ZSt9addressofINSt8__detail10_Hash_nodeISt4pairIKSt6bitsetILy64EESt6vectorIiSaIiEEELb0EEEEPT_RSB_"
 "_ZSt9addressofIPNSt8__detail15_Hash_node_baseEEPT_RS3_"
 "_ZSteqI19ggml_backend_buffer27ggml_backend_buffer_deleterEbRKSt10unique_ptrIT_T0_EDn"
 "_ZSteqIcSt11char_traitsIcESaIcEEbRKNSt7__cxx1112basic_stringIT_T0_T1_EESA_"
 "_ZSteqRKSt17_Rb_tree_iteratorIiES2_"
 "_ZSteqRKSt17_Rb_tree_iteratorISt4pairIKiSt6vectorIfSaIfEEEES8_"
 "_ZStneI14llama_memory_iSt14default_deleteIS0_EEbRKSt10unique_ptrIT_T0_EDn"
 "_ZStneIcSt11char_traitsIcESaIcEEbRKNSt7__cxx1112basic_stringIT_T0_T1_EESA_"
 "_ZStplIcSt11char_traitsIcESaIcEENSt7__cxx1112basic_stringIT_T0_T1_EEPKS5_OS8_"
 "_ZTI15llama_io_read_i"
 "_ZTI16llama_io_write_i"
 "_ZTI18llama_io_read_file"
 "_ZTI19llama_io_write_file"
 "_ZTI20llama_io_read_buffer"
 "_ZTI20llama_io_write_dummy"
 "_ZTI21llama_io_write_buffer"
 "_ZTISt13runtime_error"
 "_ZTISt9exception"
 "_ZTS15llama_io_read_i"
 "_ZTS16llama_io_write_i"
 "_ZTS18llama_io_read_file"
 "_ZTS19llama_io_write_file"
 "_ZTS20llama_io_read_buffer"
 "_ZTS20llama_io_write_dummy"
 "_ZTS21llama_io_write_buffer"
 "_ZTSSt13runtime_error"
 "_ZTSSt9exception"
 "_ZTV15llama_io_read_i"
 "_ZTV16llama_io_write_i"
 "_ZTV18llama_io_read_file"
 "_ZTV19llama_io_write_file"
 "_ZTV20llama_io_read_buffer"
 "_ZTV20llama_io_write_dummy"
 "_ZTV21llama_io_write_buffer"
 "_ZZNSt7__cxx1112basic_stringIcSt11char_traitsIcESaIcEE12_M_constructIPKcEEvT_S8_St20forward_iterator_tagEN6_GuardC1EPS4_"
 "_ZZNSt7__cxx1112basic_stringIcSt11char_traitsIcESaIcEE12_M_constructIPKcEEvT_S8_St20forward_iterator_tagEN6_GuardD1Ev"
 "llama_apply_adapter_cvec"
 "llama_attach_threadpool"
 "llama_clear_adapter_lora"
 "llama_context_default_params"
 "llama_copy_state_data"
 "llama_decode"
 "llama_detach_threadpool"
 "llama_encode"
 "llama_free"
 "llama_get_embeddings"
 "llama_get_embeddings_ith"
 "llama_get_embeddings_seq"
 "llama_get_logits"
 "llama_get_logits_ith"
 "llama_get_memory"
 "llama_get_model"
 "llama_get_state_size"
 "llama_init_from_model"
 "llama_kv_self_can_shift"
 "llama_kv_self_clear"
 "llama_kv_self_defrag"
 "llama_kv_self_n_tokens"
 "llama_kv_self_seq_add"
 "llama_kv_self_seq_cp"
 "llama_kv_self_seq_div"
 "llama_kv_self_seq_keep"
 "llama_kv_self_seq_pos_max"
 "llama_kv_self_seq_pos_min"
 "llama_kv_self_seq_rm"
 "llama_kv_self_update"
 "llama_kv_self_used_cells"
 "llama_load_session_file"
 "llama_memory_can_shift"
 "llama_memory_clear"
 "llama_memory_seq_add"
 "llama_memory_seq_cp"
 "llama_memory_seq_div"
 "llama_memory_seq_keep"
 "llama_memory_seq_pos_max"
 "llama_memory_seq_pos_min"
 "llama_memory_seq_rm"
 "llama_n_batch"
 "llama_n_ctx"
 "llama_n_seq_max"
 "llama_n_threads"
 "llama_n_threads_batch"
 "llama_n_ubatch"
 "llama_new_context_with_model"
 "llama_opt_epoch"
 "llama_opt_init"
 "llama_opt_param_filter_all"
 "llama_perf_context"
 "llama_perf_context_print"
 "llama_perf_context_reset"
 "llama_pooling_type"
 "llama_rm_adapter_lora"
 "llama_save_session_file"
 "llama_set_abort_callback"
 "llama_set_adapter_lora"
 "llama_set_causal_attn"
 "llama_set_embeddings"
 "llama_set_n_threads"
 "llama_set_state_data"
 "llama_set_warmup"
 "llama_state_get_data"
 "llama_state_get_size"
 "llama_state_load_file"
 "llama_state_save_file"
 "llama_state_seq_get_data"
 "llama_state_seq_get_data_ext"
 "llama_state_seq_get_size"
 "llama_state_seq_get_size_ext"
 "llama_state_seq_load_file"
 "llama_state_seq_save_file"
 "llama_state_seq_set_data"
 "llama_state_seq_set_data_ext"
 "llama_state_set_data"
 "llama_synchronize"
 "llama_max_parallel_sequences"
 "_Z20llama_grammar_acceptP13llama_grammarj"
 "_Z23llama_grammar_free_implP13llama_grammar"
 "_Z23llama_grammar_get_rulesPK13llama_grammar"
 "_Z23llama_grammar_init_implPK11llama_vocabPKcS3_bPS3_yPKiy"
 "_Z23llama_grammar_init_implPK11llama_vocabPPK21llama_grammar_elementyy"
 "_Z24llama_grammar_accept_strR13llama_grammarRKNSt7__cxx1112basic_stringIcSt11char_traitsIcESaIcEEE"
 "_Z24llama_grammar_apply_implRK13llama_grammarP22llama_token_data_array"
 "_Z24llama_grammar_clone_implRK13llama_grammar"
 "_Z24llama_grammar_get_stacksP13llama_grammar"
 "_Z25llama_grammar_accept_implR13llama_grammari"
 "_Z41llama_grammar_reject_candidates_for_stackRKSt6vectorIS_I21llama_grammar_elementSaIS0_EESaIS2_EERKS_IPKS0_SaIS8_EERKS_I23llama_grammar_candidateSaISD_EE"
 "_ZdlPvS_"
 "_ZGVZNKSt8__detail11_AnyMatcherINSt7__cxx1112regex_traitsIcEELb0ELb0ELb0EEclEcE5__nul"
 "_ZGVZNKSt8__detail11_AnyMatcherINSt7__cxx1112regex_traitsIcEELb0ELb0ELb1EEclEcE5__nul"
 "_ZGVZNKSt8__detail11_AnyMatcherINSt7__cxx1112regex_traitsIcEELb0ELb1ELb0EEclEcE5__nul"
 "_ZGVZNKSt8__detail11_AnyMatcherINSt7__cxx1112regex_traitsIcEELb0ELb1ELb1EEclEcE5__nul"
 "_ZN13llama_grammarD1Ev"
 "_ZN20llama_grammar_parser10parse_ruleEPKc"
 "_ZN20llama_grammar_parser13get_symbol_idEPKcy"
 "_ZN20llama_grammar_parser14parse_sequenceEPKcRKNSt7__cxx1112basic_stringIcSt11char_traitsIcESaIcEEERSt6vectorI21llama_grammar_elementSaISB_EEb"
 "_ZN20llama_grammar_parser16parse_alternatesEPKcRKNSt7__cxx1112basic_stringIcSt11char_traitsIcESaIcEEEjb"
 "_ZN20llama_grammar_parser18generate_symbol_idERKNSt7__cxx1112basic_stringIcSt11char_traitsIcESaIcEEE"
 "_ZN20llama_grammar_parser5parseEPKc"
 "_ZN20llama_grammar_parser5printEP6_iobuf"
 "_ZN20llama_grammar_parser8add_ruleEjRKSt6vectorI21llama_grammar_elementSaIS1_EE"
 "_ZN20llama_grammar_parserC1Ev"
 "_ZN20llama_grammar_parserD1Ev"
 "_ZN29llama_grammar_trigger_patternC1EOS_"
 "_ZN29llama_grammar_trigger_patternC1ERKS_"
 "_ZN29llama_grammar_trigger_patternC1Ev"
 "_ZN29llama_grammar_trigger_patternD1Ev"
 "_ZN9__gnu_cxx11char_traitsIcE2eqERKcS3_"
 "_ZN9__gnu_cxx11char_traitsIcE6lengthEPKc"
 "_ZN9__gnu_cxx16__aligned_bufferINSt8__detail4_NFAINSt7__cxx1112regex_traitsIcEEEEE6_M_ptrEv"
 "_ZN9__gnu_cxx16__aligned_bufferINSt8__detail4_NFAINSt7__cxx1112regex_traitsIcEEEEE7_M_addrEv"
 "_ZN9__gnu_cxx16__aligned_membufISt4pairIKjNSt7__cxx1112basic_stringIcSt11char_traitsIcESaIcEEEEE6_M_ptrEv"
 "_ZN9__gnu_cxx16__aligned_membufISt4pairIKjNSt7__cxx1112basic_stringIcSt11char_traitsIcESaIcEEEEE7_M_addrEv"
 "_ZN9__gnu_cxx16__aligned_membufISt4pairIKllEE6_M_ptrEv"
 "_ZN9__gnu_cxx16__aligned_membufISt4pairIKllEE7_M_addrEv"
 "_ZN9__gnu_cxx16__aligned_membufISt4pairIKNSt7__cxx1112basic_stringIcSt11char_traitsIcESaIcEEEjEE6_M_ptrEv"
 "_ZN9__gnu_cxx16__aligned_membufISt4pairIKNSt7__cxx1112basic_stringIcSt11char_traitsIcESaIcEEEjEE7_M_addrEv"
 "_ZN9__gnu_cxx16__aligned_membufISt8functionIFbcEEE7_M_addrEv"
 "_ZN9__gnu_cxx17__normal_iteratorIP21llama_grammar_elementSt6vectorIS1_SaIS1_EEEC1ERKS2_"
 "_ZN9__gnu_cxx17__normal_iteratorIP21llama_grammar_elementSt6vectorIS1_SaIS1_EEEpLEx"
 "_ZN9__gnu_cxx17__normal_iteratorIP23llama_grammar_candidateSt6vectorIS1_SaIS1_EEEC1ERKS2_"
 "_ZN9__gnu_cxx17__normal_iteratorIP23llama_grammar_candidateSt6vectorIS1_SaIS1_EEEppEv"
 "_ZN9__gnu_cxx17__normal_iteratorIP29llama_grammar_trigger_patternSt6vectorIS1_SaIS1_EEEC1ERKS2_"
 "_ZN9__gnu_cxx17__normal_iteratorIP29llama_grammar_trigger_patternSt6vectorIS1_SaIS1_EEEppEv"
 "_ZN9__gnu_cxx17__normal_iteratorIPcNSt7__cxx1112basic_stringIcSt11char_traitsIcESaIcEEEEppEv"
 "_ZN9__gnu_cxx17__normal_iteratorIPcSt6vectorIcSaIcEEEC1ERKS1_"
 "_ZN9__gnu_cxx17__normal_iteratorIPcSt6vectorIcSaIcEEEmmEv"
 "_ZN9__gnu_cxx17__normal_iteratorIPcSt6vectorIcSaIcEEEppEv"
 "_ZN9__gnu_cxx17__normal_iteratorIPiSt6vectorIiSaIiEEEC1ERKS1_"
 "_ZN9__gnu_cxx17__normal_iteratorIPiSt6vectorIiSaIiEEEppEv"
 "_ZN9__gnu_cxx17__normal_iteratorIPjSt6vectorIjSaIjEEEC1ERKS1_"
 "_ZN9__gnu_cxx17__normal_iteratorIPK21llama_grammar_elementSt6vectorIS1_SaIS1_EEEC1ERKS3_"
 "_ZN9__gnu_cxx17__normal_iteratorIPK21llama_grammar_elementSt6vectorIS1_SaIS1_EEEC1IPS1_vEERKNS0_IT_S6_EE"
 "_ZN9__gnu_cxx17__normal_iteratorIPK21llama_grammar_elementSt6vectorIS1_SaIS1_EEEppEv"
 "_ZN9__gnu_cxx17__normal_iteratorIPK23llama_grammar_candidateSt6vectorIS1_SaIS1_EEEC1ERKS3_"
 "_ZN9__gnu_cxx17__normal_iteratorIPK23llama_grammar_candidateSt6vectorIS1_SaIS1_EEEppEv"
 "_ZN9__gnu_cxx17__normal_iteratorIPK29llama_grammar_trigger_patternSt6vectorIS1_SaIS1_EEEC1ERKS3_"
 "_ZN9__gnu_cxx17__normal_iteratorIPK29llama_grammar_trigger_patternSt6vectorIS1_SaIS1_EEEppEv"
 "_ZN9__gnu_cxx17__normal_iteratorIPKcNSt7__cxx1112basic_stringIcSt11char_traitsIcESaIcEEEEC1Ev"
 "_ZN9__gnu_cxx17__normal_iteratorIPKcNSt7__cxx1112basic_stringIcSt11char_traitsIcESaIcEEEEmmEv"
 "_ZN9__gnu_cxx17__normal_iteratorIPKcNSt7__cxx1112basic_stringIcSt11char_traitsIcESaIcEEEEpLEx"
 "_ZN9__gnu_cxx17__normal_iteratorIPKcNSt7__cxx1112basic_stringIcSt11char_traitsIcESaIcEEEEppEv"
 "_ZN9__gnu_cxx17__normal_iteratorIPKcSt6vectorIcSaIcEEEC1ERKS2_"
 "_ZN9__gnu_cxx17__normal_iteratorIPKcSt6vectorIcSaIcEEEC1IPcvEERKNS0_IT_S5_EE"
 "_ZN9__gnu_cxx17__normal_iteratorIPKcSt6vectorIcSaIcEEEpLEx"
 "_ZN9__gnu_cxx17__normal_iteratorIPKcSt6vectorIcSaIcEEEppEv"
 "_ZN9__gnu_cxx17__normal_iteratorIPKiSt6vectorIiSaIiEEEC1ERKS2_"
 "_ZN9__gnu_cxx17__normal_iteratorIPKjSt6vectorIjSaIjEEEC1ERKS2_"
 "_ZN9__gnu_cxx17__normal_iteratorIPKjSt6vectorIjSaIjEEEppEv"
 "_ZN9__gnu_cxx17__normal_iteratorIPKNSt7__cxx1112basic_stringIcSt11char_traitsIcESaIcEEESt6vectorIS6_SaIS6_EEEC1ERKS8_"
 "_ZN9__gnu_cxx17__normal_iteratorIPKNSt7__cxx1112basic_stringIcSt11char_traitsIcESaIcEEESt6vectorIS6_SaIS6_EEEppEv"
 "_ZN9__gnu_cxx17__normal_iteratorIPKNSt7__cxx1112regex_traitsIcE10_RegexMaskESt6vectorIS4_SaIS4_EEEC1ERKS6_"
 "_ZN9__gnu_cxx17__normal_iteratorIPKNSt7__cxx1112regex_traitsIcE10_RegexMaskESt6vectorIS4_SaIS4_EEEppEv"
 "_ZN9__gnu_cxx17__normal_iteratorIPKNSt7__cxx119sub_matchINS0_IPKcNS1_12basic_stringIcSt11char_traitsIcESaIcEEEEEEESt6vectorISB_SaISB_EEEC1ERKSD_"
 "_ZN9__gnu_cxx17__normal_iteratorIPKNSt7__cxx119sub_matchINS0_IPKcNS1_12basic_stringIcSt11char_traitsIcESaIcEEEEEEESt6vectorISB_SaISB_EEEppEv"
 "_ZN9__gnu_cxx17__normal_iteratorIPKPK21llama_grammar_elementSt6vectorIS3_SaIS3_EEEC1ERKS5_"
 "_ZN9__gnu_cxx17__normal_iteratorIPKSt4pairIccESt6vectorIS2_SaIS2_EEEC1ERKS4_"
 "_ZN9__gnu_cxx17__normal_iteratorIPKSt4pairIccESt6vectorIS2_SaIS2_EEEppEv"
 "_ZN9__gnu_cxx17__normal_iteratorIPKSt4pairIlSt6vectorINSt7__cxx119sub_matchINS0_IPKcNS3_12basic_stringIcSt11char_traitsIcESaIcEEEEEEESaISD_EEES2_ISG_SaISG_EEEC1ERKSI_"
 "_ZN9__gnu_cxx17__normal_iteratorIPKSt4pairINSt7__cxx1112basic_stringIcSt11char_traitsIcESaIcEEES7_ESt6vectorIS8_SaIS8_EEEC1ERKSA_"
 "_ZN9__gnu_cxx17__normal_iteratorIPKSt4pairINSt7__cxx1112basic_stringIcSt11char_traitsIcESaIcEEES7_ESt6vectorIS8_SaIS8_EEEppEv"
 "_ZN9__gnu_cxx17__normal_iteratorIPKSt6vectorI21llama_grammar_elementSaIS2_EES1_IS4_SaIS4_EEEC1ERKS6_"
 "_ZN9__gnu_cxx17__normal_iteratorIPKSt6vectorI21llama_grammar_elementSaIS2_EES1_IS4_SaIS4_EEEppEv"
 "_ZN9__gnu_cxx17__normal_iteratorIPKSt6vectorIPK21llama_grammar_elementSaIS4_EES1_IS6_SaIS6_EEEC1ERKS8_"
 "_ZN9__gnu_cxx17__normal_iteratorIPKSt6vectorIPK21llama_grammar_elementSaIS4_EES1_IS6_SaIS6_EEEppEv"
 "_ZN9__gnu_cxx17__normal_iteratorIPNSt7__cxx1112basic_stringIcSt11char_traitsIcESaIcEEESt6vectorIS6_SaIS6_EEEC1ERKS7_"
 "_ZN9__gnu_cxx17__normal_iteratorIPNSt7__cxx1112regex_traitsIcE10_RegexMaskESt6vectorIS4_SaIS4_EEEC1ERKS5_"
 "_ZN9__gnu_cxx17__normal_iteratorIPNSt7__cxx119sub_matchINS0_IPKcNS1_12basic_stringIcSt11char_traitsIcESaIcEEEEEEESt6vectorISB_SaISB_EEEC1ERKSC_"
 "_ZN9__gnu_cxx17__normal_iteratorIPNSt7__cxx119sub_matchINS0_IPKcNS1_12basic_stringIcSt11char_traitsIcESaIcEEEEEEESt6vectorISB_SaISB_EEEppEv"
 "_ZN9__gnu_cxx17__normal_iteratorIPNSt8__detail6_StateIcEESt6vectorIS3_SaIS3_EEEC1ERKS4_"
 "_ZN9__gnu_cxx17__normal_iteratorIPNSt8__detail6_StateIcEESt6vectorIS3_SaIS3_EEEppEv"
 "_ZN9__gnu_cxx17__normal_iteratorIPPK21llama_grammar_elementSt6vectorIS3_SaIS3_EEEC1ERKS4_"
 "_ZN9__gnu_cxx17__normal_iteratorIPSt4pairIccESt6vectorIS2_SaIS2_EEEC1ERKS3_"
 "_ZN9__gnu_cxx17__normal_iteratorIPSt4pairIlSt6vectorINSt7__cxx119sub_matchINS0_IPKcNS3_12basic_stringIcSt11char_traitsIcESaIcEEEEEEESaISD_EEES2_ISG_SaISG_EEEC1ERKSH_"
 "_ZN9__gnu_cxx17__normal_iteratorIPSt4pairIlSt6vectorINSt7__cxx119sub_matchINS0_IPKcNS3_12basic_stringIcSt11char_traitsIcESaIcEEEEEEESaISD_EEES2_ISG_SaISG_EEEppEv"
 "_ZN9__gnu_cxx17__normal_iteratorIPSt4pairINSt7__cxx1112basic_stringIcSt11char_traitsIcESaIcEEES7_ESt6vectorIS8_SaIS8_EEEC1ERKS9_"
 "_ZN9__gnu_cxx17__normal_iteratorIPSt4pairISt6vectorIjSaIjEE18llama_partial_utf8ES2_IS6_SaIS6_EEEC1ERKS7_"
 "_ZN9__gnu_cxx17__normal_iteratorIPSt6vectorI21llama_grammar_elementSaIS2_EES1_IS4_SaIS4_EEEC1ERKS5_"
 "_ZN9__gnu_cxx17__normal_iteratorIPSt6vectorI21llama_grammar_elementSaIS2_EES1_IS4_SaIS4_EEEppEv"
 "_ZN9__gnu_cxx17__normal_iteratorIPSt6vectorIPK21llama_grammar_elementSaIS4_EES1_IS6_SaIS6_EEEC1ERKS7_"
 "_ZN9__gnu_cxx17__normal_iteratorIPSt6vectorIPK21llama_grammar_elementSaIS4_EES1_IS6_SaIS6_EEEppEv"
 "_ZN9__gnu_cxx17__normal_iteratorIPySt6vectorIySaIyEEEC1ERKS1_"
 "_ZN9__gnu_cxx17__normal_iteratorIPySt6vectorIySaIyEEEppEv"
 "_ZN9__gnu_cxx5__ops14_Iter_less_valC1ENS0_15_Iter_less_iterE"
 "_ZN9__gnu_cxx5__ops15__iter_less_valEv"
 "_ZN9__gnu_cxx5__ops15__val_comp_iterENS0_15_Iter_less_iterE"
 "_ZN9__gnu_cxx5__ops16__iter_less_iterEv"
 "_ZN9__gnu_cxx5__ops16_Iter_equals_valIKiEC1ERS2_"
 "_ZN9__gnu_cxx5__ops16_Iter_equals_valIKiEclINS_17__normal_iteratorIPiSt6vectorIiSaIiEEEEEEbT_"
 "_ZN9__gnu_cxx5__ops16_Iter_equals_valIKNSt7__cxx1112basic_stringIcSt11char_traitsIcESaIcEEEEC1ERS8_"
 "_ZN9__gnu_cxx5__ops16_Iter_equals_valIKNSt7__cxx1112basic_stringIcSt11char_traitsIcESaIcEEEEclINS_17__normal_iteratorIPS8_St6vectorIS7_SaIS7_EEEEEEbT_"
 "_ZN9__gnu_cxx5__ops16_Iter_equals_valIKSt6vectorIPK21llama_grammar_elementSaIS5_EEEC1ERS8_"
 "_ZN9__gnu_cxx5__ops16_Iter_equals_valIKSt6vectorIPK21llama_grammar_elementSaIS5_EEEclINS_17__normal_iteratorIPS7_S2_IS7_SaIS7_EEEEEEbT_"
 "_ZN9__gnu_cxx5__ops17__iter_equals_valIKiEENS0_16_Iter_equals_valIT_EERS4_"
 "_ZN9__gnu_cxx5__ops17__iter_equals_valIKNSt7__cxx1112basic_stringIcSt11char_traitsIcESaIcEEEEENS0_16_Iter_equals_valIT_EERSA_"
 "_ZN9__gnu_cxx5__ops17__iter_equals_valIKSt6vectorIPK21llama_grammar_elementSaIS5_EEEENS0_16_Iter_equals_valIT_EERSA_"
 "_ZN9__gnu_cxx5__ops20__iter_equal_to_iterEv"
 "_ZN9__gnu_cxx6__stoaImmcJiEEET0_PFT_PKT1_PPS3_DpT2_EPKcS5_PyS9_"
 "_ZN9__gnu_cxxeqIPcSt6vectorIcSaIcEEEEbRKNS_17__normal_iteratorIT_T0_EESA_"
 "_ZN9__gnu_cxxeqIPK21llama_grammar_elementSt6vectorIS1_SaIS1_EEEEbRKNS_17__normal_iteratorIT_T0_EESC_"
 "_ZN9__gnu_cxxeqIPK23llama_grammar_candidateSt6vectorIS1_SaIS1_EEEEbRKNS_17__normal_iteratorIT_T0_EESC_"
 "_ZN9__gnu_cxxeqIPKcNSt7__cxx1112basic_stringIcSt11char_traitsIcESaIcEEEEEbRKNS_17__normal_iteratorIT_T0_EESE_"
 "_ZN9__gnu_cxxeqIPKNSt7__cxx119sub_matchINS_17__normal_iteratorIPKcNS1_12basic_stringIcSt11char_traitsIcESaIcEEEEEEESt6vectorISC_SaISC_EEEEbRKNS3_IT_T0_EESM_"
 "_ZN9__gnu_cxxeqIPKPK21llama_grammar_elementSt6vectorIS3_SaIS3_EEEEbRKNS_17__normal_iteratorIT_T0_EESE_"
 "_ZN9__gnu_cxxeqIPKSt4pairIlSt6vectorINSt7__cxx119sub_matchINS_17__normal_iteratorIPKcNS3_12basic_stringIcSt11char_traitsIcESaIcEEEEEEESaISE_EEES2_ISH_SaISH_EEEEbRKNS5_IT_T0_EESQ_"
 "_ZN9__gnu_cxxeqIPKSt6vectorI21llama_grammar_elementSaIS2_EES1_IS4_SaIS4_EEEEbRKNS_17__normal_iteratorIT_T0_EESE_"
 "_ZN9__gnu_cxxeqIPKSt6vectorIPK21llama_grammar_elementSaIS4_EES1_IS6_SaIS6_EEEEbRKNS_17__normal_iteratorIT_T0_EESG_"
 "_ZN9__gnu_cxxeqIPSt6vectorIPK21llama_grammar_elementSaIS4_EES1_IS6_SaIS6_EEEEbRKNS_17__normal_iteratorIT_T0_EESF_"
 "_ZN9__gnu_cxxltIPcSt6vectorIcSaIcEEEEbRKNS_17__normal_iteratorIT_T0_EESA_"
 "_ZN9__gnu_cxxmiIP21llama_grammar_elementSt6vectorIS1_SaIS1_EEEENS_17__normal_iteratorIT_T0_E15difference_typeERKS9_SC_"
 "_ZN9__gnu_cxxmiIP23llama_grammar_candidateSt6vectorIS1_SaIS1_EEEENS_17__normal_iteratorIT_T0_E15difference_typeERKS9_SC_"
 "_ZN9__gnu_cxxmiIP29llama_grammar_trigger_patternSt6vectorIS1_SaIS1_EEEENS_17__normal_iteratorIT_T0_E15difference_typeERKS9_SC_"
 "_ZN9__gnu_cxxmiIPcNSt7__cxx1112basic_stringIcSt11char_traitsIcESaIcEEEEENS_17__normal_iteratorIT_T0_E15difference_typeERKSB_SE_"
 "_ZN9__gnu_cxxmiIPcSt6vectorIcSaIcEEEENS_17__normal_iteratorIT_T0_E15difference_typeERKS8_SB_"
 "_ZN9__gnu_cxxmiIPiSt6vectorIiSaIiEEEENS_17__normal_iteratorIT_T0_E15difference_typeERKS8_SB_"
 "_ZN9__gnu_cxxmiIPjSt6vectorIjSaIjEEEENS_17__normal_iteratorIT_T0_E15difference_typeERKS8_SB_"
 "_ZN9__gnu_cxxmiIPK21llama_grammar_elementSt6vectorIS1_SaIS1_EEEENS_17__normal_iteratorIT_T0_E15difference_typeERKSA_SD_"
 "_ZN9__gnu_cxxmiIPKcNSt7__cxx1112basic_stringIcSt11char_traitsIcESaIcEEEEENS_17__normal_iteratorIT_T0_E15difference_typeERKSC_SF_"
 "_ZN9__gnu_cxxmiIPKcSt6vectorIcSaIcEEEENS_17__normal_iteratorIT_T0_E15difference_typeERKS9_SC_"
 "_ZN9__gnu_cxxmiIPKNSt7__cxx1112basic_stringIcSt11char_traitsIcESaIcEEESt6vectorIS6_SaIS6_EEEENS_17__normal_iteratorIT_T0_E15difference_typeERKSF_SI_"
 "_ZN9__gnu_cxxmiIPKPK21llama_grammar_elementSt6vectorIS3_SaIS3_EEEENS_17__normal_iteratorIT_T0_E15difference_typeERKSC_SF_"
 "_ZN9__gnu_cxxmiIPNSt7__cxx1112basic_stringIcSt11char_traitsIcESaIcEEESt6vectorIS6_SaIS6_EEEENS_17__normal_iteratorIT_T0_E15difference_typeERKSE_SH_"
 "_ZN9__gnu_cxxmiIPNSt7__cxx1112regex_traitsIcE10_RegexMaskESt6vectorIS4_SaIS4_EEEENS_17__normal_iteratorIT_T0_E15difference_typeERKSC_SF_"
 "_ZN9__gnu_cxxmiIPNSt8__detail6_StateIcEESt6vectorIS3_SaIS3_EEEENS_17__normal_iteratorIT_T0_E15difference_typeERKSB_SE_"
 "_ZN9__gnu_cxxmiIPPK21llama_grammar_elementSt6vectorIS3_SaIS3_EEEENS_17__normal_iteratorIT_T0_E15difference_typeERKSB_SE_"
 "_ZN9__gnu_cxxmiIPSt4pairIccESt6vectorIS2_SaIS2_EEEENS_17__normal_iteratorIT_T0_E15difference_typeERKSA_SD_"
 "_ZN9__gnu_cxxmiIPSt4pairIlSt6vectorINSt7__cxx119sub_matchINS_17__normal_iteratorIPKcNS3_12basic_stringIcSt11char_traitsIcESaIcEEEEEEESaISE_EEES2_ISH_SaISH_EEEENS5_IT_T0_E15difference_typeERKSN_SQ_"
 "_ZN9__gnu_cxxmiIPSt4pairINSt7__cxx1112basic_stringIcSt11char_traitsIcESaIcEEES7_ESt6vectorIS8_SaIS8_EEEENS_17__normal_iteratorIT_T0_E15difference_typeERKSG_SJ_"
 "_ZN9__gnu_cxxmiIPSt4pairISt6vectorIjSaIjEE18llama_partial_utf8ES2_IS6_SaIS6_EEEENS_17__normal_iteratorIT_T0_E15difference_typeERKSD_SG_"
 "_ZN9__gnu_cxxmiIPSt6vectorIPK21llama_grammar_elementSaIS4_EES1_IS6_SaIS6_EEEENS_17__normal_iteratorIT_T0_E15difference_typeERKSD_SG_"
 "_ZN9__gnu_cxxmiIPySt6vectorIySaIyEEEENS_17__normal_iteratorIT_T0_E15difference_typeERKS8_SB_"
 "_ZN9__gnu_cxxneIP21llama_grammar_elementSt6vectorIS1_SaIS1_EEEEbRKNS_17__normal_iteratorIT_T0_EESB_"
 "_ZN9__gnu_cxxneIP23llama_grammar_candidateSt6vectorIS1_SaIS1_EEEEbRKNS_17__normal_iteratorIT_T0_EESB_"
 "_ZN9__gnu_cxxneIP29llama_grammar_trigger_patternSt6vectorIS1_SaIS1_EEEEbRKNS_17__normal_iteratorIT_T0_EESB_"
 "_ZN9__gnu_cxxneIPcNSt7__cxx1112basic_stringIcSt11char_traitsIcESaIcEEEEEbRKNS_17__normal_iteratorIT_T0_EESD_"
 "_ZN9__gnu_cxxneIPcSt6vectorIcSaIcEEEEbRKNS_17__normal_iteratorIT_T0_EESA_"
 "_ZN9__gnu_cxxneIPiSt6vectorIiSaIiEEEEbRKNS_17__normal_iteratorIT_T0_EESA_"
 "_ZN9__gnu_cxxneIPK21llama_grammar_elementSt6vectorIS1_SaIS1_EEEEbRKNS_17__normal_iteratorIT_T0_EESC_"
 "_ZN9__gnu_cxxneIPK23llama_grammar_candidateSt6vectorIS1_SaIS1_EEEEbRKNS_17__normal_iteratorIT_T0_EESC_"
 "_ZN9__gnu_cxxneIPK29llama_grammar_trigger_patternSt6vectorIS1_SaIS1_EEEEbRKNS_17__normal_iteratorIT_T0_EESC_"
 "_ZN9__gnu_cxxneIPKcNSt7__cxx1112basic_stringIcSt11char_traitsIcESaIcEEEEEbRKNS_17__normal_iteratorIT_T0_EESE_"
 "_ZN9__gnu_cxxneIPKcSt6vectorIcSaIcEEEEbRKNS_17__normal_iteratorIT_T0_EESB_"
 "_ZN9__gnu_cxxneIPKjSt6vectorIjSaIjEEEEbRKNS_17__normal_iteratorIT_T0_EESB_"
 "_ZN9__gnu_cxxneIPKNSt7__cxx1112basic_stringIcSt11char_traitsIcESaIcEEESt6vectorIS6_SaIS6_EEEEbRKNS_17__normal_iteratorIT_T0_EESH_"
 "_ZN9__gnu_cxxneIPKNSt7__cxx1112regex_traitsIcE10_RegexMaskESt6vectorIS4_SaIS4_EEEEbRKNS_17__normal_iteratorIT_T0_EESF_"
 "_ZN9__gnu_cxxneIPKNSt7__cxx119sub_matchINS_17__normal_iteratorIPKcNS1_12basic_stringIcSt11char_traitsIcESaIcEEEEEEESt6vectorISC_SaISC_EEEEbRKNS3_IT_T0_EESM_"
 "_ZN9__gnu_cxxneIPKSt4pairIccESt6vectorIS2_SaIS2_EEEEbRKNS_17__normal_iteratorIT_T0_EESD_"
 "_ZN9__gnu_cxxneIPKSt4pairINSt7__cxx1112basic_stringIcSt11char_traitsIcESaIcEEES7_ESt6vectorIS8_SaIS8_EEEEbRKNS_17__normal_iteratorIT_T0_EESJ_"
 "_ZN9__gnu_cxxneIPKSt6vectorI21llama_grammar_elementSaIS2_EES1_IS4_SaIS4_EEEEbRKNS_17__normal_iteratorIT_T0_EESE_"
 "_ZN9__gnu_cxxneIPKSt6vectorIPK21llama_grammar_elementSaIS4_EES1_IS6_SaIS6_EEEEbRKNS_17__normal_iteratorIT_T0_EESG_"
 "_ZN9__gnu_cxxneIPNSt7__cxx119sub_matchINS_17__normal_iteratorIPKcNS1_12basic_stringIcSt11char_traitsIcESaIcEEEEEEESt6vectorISC_SaISC_EEEEbRKNS3_IT_T0_EESL_"
 "_ZN9__gnu_cxxneIPNSt8__detail6_StateIcEESt6vectorIS3_SaIS3_EEEEbRKNS_17__normal_iteratorIT_T0_EESD_"
 "_ZN9__gnu_cxxneIPSt4pairIlSt6vectorINSt7__cxx119sub_matchINS_17__normal_iteratorIPKcNS3_12basic_stringIcSt11char_traitsIcESaIcEEEEEEESaISE_EEES2_ISH_SaISH_EEEEbRKNS5_IT_T0_EESP_"
 "_ZN9__gnu_cxxneIPSt6vectorI21llama_grammar_elementSaIS2_EES1_IS4_SaIS4_EEEEbRKNS_17__normal_iteratorIT_T0_EESD_"
 "_ZN9__gnu_cxxneIPSt6vectorIPK21llama_grammar_elementSaIS4_EES1_IS6_SaIS6_EEEEbRKNS_17__normal_iteratorIT_T0_EESF_"
 "_ZN9__gnu_cxxneIPySt6vectorIySaIyEEEEbRKNS_17__normal_iteratorIT_T0_EESA_"
 "_ZNK20llama_grammar_parser7c_rulesEv"
 "_ZNK9__gnu_cxx16__aligned_membufISt4pairIKjNSt7__cxx1112basic_stringIcSt11char_traitsIcESaIcEEEEE6_M_ptrEv"
 "_ZNK9__gnu_cxx16__aligned_membufISt4pairIKjNSt7__cxx1112basic_stringIcSt11char_traitsIcESaIcEEEEE7_M_addrEv"
 "_ZNK9__gnu_cxx16__aligned_membufISt4pairIKllEE6_M_ptrEv"
 "_ZNK9__gnu_cxx16__aligned_membufISt4pairIKllEE7_M_addrEv"
 "_ZNK9__gnu_cxx16__aligned_membufISt4pairIKNSt7__cxx1112basic_stringIcSt11char_traitsIcESaIcEEEjEE6_M_ptrEv"
 "_ZNK9__gnu_cxx16__aligned_membufISt4pairIKNSt7__cxx1112basic_stringIcSt11char_traitsIcESaIcEEEjEE7_M_addrEv"
 "_ZNK9__gnu_cxx16__aligned_membufISt8functionIFbcEEE7_M_addrEv"
 "_ZNK9__gnu_cxx17__normal_iteratorIP21llama_grammar_elementSt6vectorIS1_SaIS1_EEE4baseEv"
 "_ZNK9__gnu_cxx17__normal_iteratorIP21llama_grammar_elementSt6vectorIS1_SaIS1_EEEdeEv"
 "_ZNK9__gnu_cxx17__normal_iteratorIP21llama_grammar_elementSt6vectorIS1_SaIS1_EEEmiEx"
 "_ZNK9__gnu_cxx17__normal_iteratorIP21llama_grammar_elementSt6vectorIS1_SaIS1_EEEplEx"
 "_ZNK9__gnu_cxx17__normal_iteratorIP23llama_grammar_candidateSt6vectorIS1_SaIS1_EEE4baseEv"
 "_ZNK9__gnu_cxx17__normal_iteratorIP23llama_grammar_candidateSt6vectorIS1_SaIS1_EEEdeEv"
 "_ZNK9__gnu_cxx17__normal_iteratorIP23llama_grammar_candidateSt6vectorIS1_SaIS1_EEEmiEx"
 "_ZNK9__gnu_cxx17__normal_iteratorIP29llama_grammar_trigger_patternSt6vectorIS1_SaIS1_EEE4baseEv"
 "_ZNK9__gnu_cxx17__normal_iteratorIP29llama_grammar_trigger_patternSt6vectorIS1_SaIS1_EEEdeEv"
 "_ZNK9__gnu_cxx17__normal_iteratorIP29llama_grammar_trigger_patternSt6vectorIS1_SaIS1_EEEmiEx"
 "_ZNK9__gnu_cxx17__normal_iteratorIPcNSt7__cxx1112basic_stringIcSt11char_traitsIcESaIcEEEE4baseEv"
 "_ZNK9__gnu_cxx17__normal_iteratorIPcNSt7__cxx1112basic_stringIcSt11char_traitsIcESaIcEEEEdeEv"
 "_ZNK9__gnu_cxx17__normal_iteratorIPcSt6vectorIcSaIcEEE4baseEv"
 "_ZNK9__gnu_cxx17__normal_iteratorIPcSt6vectorIcSaIcEEEdeEv"
 "_ZNK9__gnu_cxx17__normal_iteratorIPcSt6vectorIcSaIcEEEmiEx"
 "_ZNK9__gnu_cxx17__normal_iteratorIPcSt6vectorIcSaIcEEEplEx"
 "_ZNK9__gnu_cxx17__normal_iteratorIPiSt6vectorIiSaIiEEE4baseEv"
 "_ZNK9__gnu_cxx17__normal_iteratorIPiSt6vectorIiSaIiEEEdeEv"
 "_ZNK9__gnu_cxx17__normal_iteratorIPjSt6vectorIjSaIjEEE4baseEv"
 "_ZNK9__gnu_cxx17__normal_iteratorIPjSt6vectorIjSaIjEEEdeEv"
 "_ZNK9__gnu_cxx17__normal_iteratorIPjSt6vectorIjSaIjEEEmiEx"
 "_ZNK9__gnu_cxx17__normal_iteratorIPK21llama_grammar_elementSt6vectorIS1_SaIS1_EEE4baseEv"
 "_ZNK9__gnu_cxx17__normal_iteratorIPK21llama_grammar_elementSt6vectorIS1_SaIS1_EEEdeEv"
 "_ZNK9__gnu_cxx17__normal_iteratorIPK21llama_grammar_elementSt6vectorIS1_SaIS1_EEEmiEx"
 "_ZNK9__gnu_cxx17__normal_iteratorIPK23llama_grammar_candidateSt6vectorIS1_SaIS1_EEE4baseEv"
 "_ZNK9__gnu_cxx17__normal_iteratorIPK23llama_grammar_candidateSt6vectorIS1_SaIS1_EEEdeEv"
 "_ZNK9__gnu_cxx17__normal_iteratorIPK29llama_grammar_trigger_patternSt6vectorIS1_SaIS1_EEE4baseEv"
 "_ZNK9__gnu_cxx17__normal_iteratorIPK29llama_grammar_trigger_patternSt6vectorIS1_SaIS1_EEEdeEv"
 "_ZNK9__gnu_cxx17__normal_iteratorIPKcNSt7__cxx1112basic_stringIcSt11char_traitsIcESaIcEEEE4baseEv"
 "_ZNK9__gnu_cxx17__normal_iteratorIPKcNSt7__cxx1112basic_stringIcSt11char_traitsIcESaIcEEEEdeEv"
 "_ZNK9__gnu_cxx17__normal_iteratorIPKcSt6vectorIcSaIcEEE4baseEv"
 "_ZNK9__gnu_cxx17__normal_iteratorIPKcSt6vectorIcSaIcEEEdeEv"
 "_ZNK9__gnu_cxx17__normal_iteratorIPKiSt6vectorIiSaIiEEE4baseEv"
 "_ZNK9__gnu_cxx17__normal_iteratorIPKjSt6vectorIjSaIjEEE4baseEv"
 "_ZNK9__gnu_cxx17__normal_iteratorIPKjSt6vectorIjSaIjEEEdeEv"
 "_ZNK9__gnu_cxx17__normal_iteratorIPKjSt6vectorIjSaIjEEEmiEx"
 "_ZNK9__gnu_cxx17__normal_iteratorIPKNSt7__cxx1112basic_stringIcSt11char_traitsIcESaIcEEESt6vectorIS6_SaIS6_EEE4baseEv"
 "_ZNK9__gnu_cxx17__normal_iteratorIPKNSt7__cxx1112basic_stringIcSt11char_traitsIcESaIcEEESt6vectorIS6_SaIS6_EEEdeEv"
 "_ZNK9__gnu_cxx17__normal_iteratorIPKNSt7__cxx1112regex_traitsIcE10_RegexMaskESt6vectorIS4_SaIS4_EEE4baseEv"
 "_ZNK9__gnu_cxx17__normal_iteratorIPKNSt7__cxx1112regex_traitsIcE10_RegexMaskESt6vectorIS4_SaIS4_EEEdeEv"
 "_ZNK9__gnu_cxx17__normal_iteratorIPKNSt7__cxx119sub_matchINS0_IPKcNS1_12basic_stringIcSt11char_traitsIcESaIcEEEEEEESt6vectorISB_SaISB_EEE4baseEv"
 "_ZNK9__gnu_cxx17__normal_iteratorIPKNSt7__cxx119sub_matchINS0_IPKcNS1_12basic_stringIcSt11char_traitsIcESaIcEEEEEEESt6vectorISB_SaISB_EEEdeEv"
 "_ZNK9__gnu_cxx17__normal_iteratorIPKPK21llama_grammar_elementSt6vectorIS3_SaIS3_EEE4baseEv"
 "_ZNK9__gnu_cxx17__normal_iteratorIPKPK21llama_grammar_elementSt6vectorIS3_SaIS3_EEEdeEv"
 "_ZNK9__gnu_cxx17__normal_iteratorIPKPK21llama_grammar_elementSt6vectorIS3_SaIS3_EEEmiEx"
 "_ZNK9__gnu_cxx17__normal_iteratorIPKSt4pairIccESt6vectorIS2_SaIS2_EEE4baseEv"
 "_ZNK9__gnu_cxx17__normal_iteratorIPKSt4pairIccESt6vectorIS2_SaIS2_EEEdeEv"
 "_ZNK9__gnu_cxx17__normal_iteratorIPKSt4pairIlSt6vectorINSt7__cxx119sub_matchINS0_IPKcNS3_12basic_stringIcSt11char_traitsIcESaIcEEEEEEESaISD_EEES2_ISG_SaISG_EEE4baseEv"
 "_ZNK9__gnu_cxx17__normal_iteratorIPKSt4pairINSt7__cxx1112basic_stringIcSt11char_traitsIcESaIcEEES7_ESt6vectorIS8_SaIS8_EEE4baseEv"
 "_ZNK9__gnu_cxx17__normal_iteratorIPKSt4pairINSt7__cxx1112basic_stringIcSt11char_traitsIcESaIcEEES7_ESt6vectorIS8_SaIS8_EEEdeEv"
 "_ZNK9__gnu_cxx17__normal_iteratorIPKSt6vectorI21llama_grammar_elementSaIS2_EES1_IS4_SaIS4_EEE4baseEv"
 "_ZNK9__gnu_cxx17__normal_iteratorIPKSt6vectorI21llama_grammar_elementSaIS2_EES1_IS4_SaIS4_EEEdeEv"
 "_ZNK9__gnu_cxx17__normal_iteratorIPKSt6vectorIPK21llama_grammar_elementSaIS4_EES1_IS6_SaIS6_EEE4baseEv"
 "_ZNK9__gnu_cxx17__normal_iteratorIPKSt6vectorIPK21llama_grammar_elementSaIS4_EES1_IS6_SaIS6_EEEdeEv"
 "_ZNK9__gnu_cxx17__normal_iteratorIPNSt7__cxx1112basic_stringIcSt11char_traitsIcESaIcEEESt6vectorIS6_SaIS6_EEE4baseEv"
 "_ZNK9__gnu_cxx17__normal_iteratorIPNSt7__cxx1112regex_traitsIcE10_RegexMaskESt6vectorIS4_SaIS4_EEE4baseEv"
 "_ZNK9__gnu_cxx17__normal_iteratorIPNSt7__cxx119sub_matchINS0_IPKcNS1_12basic_stringIcSt11char_traitsIcESaIcEEEEEEESt6vectorISB_SaISB_EEE4baseEv"
 "_ZNK9__gnu_cxx17__normal_iteratorIPNSt7__cxx119sub_matchINS0_IPKcNS1_12basic_stringIcSt11char_traitsIcESaIcEEEEEEESt6vectorISB_SaISB_EEEdeEv"
 "_ZNK9__gnu_cxx17__normal_iteratorIPNSt7__cxx119sub_matchINS0_IPKcNS1_12basic_stringIcSt11char_traitsIcESaIcEEEEEEESt6vectorISB_SaISB_EEEplEx"
 "_ZNK9__gnu_cxx17__normal_iteratorIPNSt8__detail6_StateIcEESt6vectorIS3_SaIS3_EEE4baseEv"
 "_ZNK9__gnu_cxx17__normal_iteratorIPNSt8__detail6_StateIcEESt6vectorIS3_SaIS3_EEEdeEv"
 "_ZNK9__gnu_cxx17__normal_iteratorIPNSt8__detail6_StateIcEESt6vectorIS3_SaIS3_EEEmiEx"
 "_ZNK9__gnu_cxx17__normal_iteratorIPPK21llama_grammar_elementSt6vectorIS3_SaIS3_EEE4baseEv"
 "_ZNK9__gnu_cxx17__normal_iteratorIPPK21llama_grammar_elementSt6vectorIS3_SaIS3_EEEdeEv"
 "_ZNK9__gnu_cxx17__normal_iteratorIPPK21llama_grammar_elementSt6vectorIS3_SaIS3_EEEmiEx"
 "_ZNK9__gnu_cxx17__normal_iteratorIPSt4pairIccESt6vectorIS2_SaIS2_EEE4baseEv"
 "_ZNK9__gnu_cxx17__normal_iteratorIPSt4pairIccESt6vectorIS2_SaIS2_EEEdeEv"
 "_ZNK9__gnu_cxx17__normal_iteratorIPSt4pairIccESt6vectorIS2_SaIS2_EEEmiEx"
 "_ZNK9__gnu_cxx17__normal_iteratorIPSt4pairIlSt6vectorINSt7__cxx119sub_matchINS0_IPKcNS3_12basic_stringIcSt11char_traitsIcESaIcEEEEEEESaISD_EEES2_ISG_SaISG_EEE4baseEv"
 "_ZNK9__gnu_cxx17__normal_iteratorIPSt4pairIlSt6vectorINSt7__cxx119sub_matchINS0_IPKcNS3_12basic_stringIcSt11char_traitsIcESaIcEEEEEEESaISD_EEES2_ISG_SaISG_EEEdeEv"
 "_ZNK9__gnu_cxx17__normal_iteratorIPSt4pairIlSt6vectorINSt7__cxx119sub_matchINS0_IPKcNS3_12basic_stringIcSt11char_traitsIcESaIcEEEEEEESaISD_EEES2_ISG_SaISG_EEEmiEx"
 "_ZNK9__gnu_cxx17__normal_iteratorIPSt4pairINSt7__cxx1112basic_stringIcSt11char_traitsIcESaIcEEES7_ESt6vectorIS8_SaIS8_EEE4baseEv"
 "_ZNK9__gnu_cxx17__normal_iteratorIPSt4pairINSt7__cxx1112basic_stringIcSt11char_traitsIcESaIcEEES7_ESt6vectorIS8_SaIS8_EEEdeEv"
 "_ZNK9__gnu_cxx17__normal_iteratorIPSt4pairINSt7__cxx1112basic_stringIcSt11char_traitsIcESaIcEEES7_ESt6vectorIS8_SaIS8_EEEmiEx"
 "_ZNK9__gnu_cxx17__normal_iteratorIPSt4pairISt6vectorIjSaIjEE18llama_partial_utf8ES2_IS6_SaIS6_EEE4baseEv"
 "_ZNK9__gnu_cxx17__normal_iteratorIPSt4pairISt6vectorIjSaIjEE18llama_partial_utf8ES2_IS6_SaIS6_EEEdeEv"
 "_ZNK9__gnu_cxx17__normal_iteratorIPSt4pairISt6vectorIjSaIjEE18llama_partial_utf8ES2_IS6_SaIS6_EEEmiEx"
 "_ZNK9__gnu_cxx17__normal_iteratorIPSt6vectorI21llama_grammar_elementSaIS2_EES1_IS4_SaIS4_EEE4baseEv"
 "_ZNK9__gnu_cxx17__normal_iteratorIPSt6vectorI21llama_grammar_elementSaIS2_EES1_IS4_SaIS4_EEEdeEv"
 "_ZNK9__gnu_cxx17__normal_iteratorIPSt6vectorIPK21llama_grammar_elementSaIS4_EES1_IS6_SaIS6_EEE4baseEv"
 "_ZNK9__gnu_cxx17__normal_iteratorIPSt6vectorIPK21llama_grammar_elementSaIS4_EES1_IS6_SaIS6_EEEdeEv"
 "_ZNK9__gnu_cxx17__normal_iteratorIPSt6vectorIPK21llama_grammar_elementSaIS4_EES1_IS6_SaIS6_EEEmiEx"
 "_ZNK9__gnu_cxx17__normal_iteratorIPySt6vectorIySaIyEEE4baseEv"
 "_ZNK9__gnu_cxx17__normal_iteratorIPySt6vectorIySaIyEEEdeEv"
 "_ZNK9__gnu_cxx17__normal_iteratorIPySt6vectorIySaIyEEEmiEx"
 "_ZNK9__gnu_cxx5__ops14_Iter_less_valclINS_17__normal_iteratorIPcSt6vectorIcSaIcEEEEcEEbT_RT0_"
 "_ZNK9__gnu_cxx5__ops14_Iter_less_valclINS_17__normal_iteratorIPKcSt6vectorIcSaIcEEEES4_EEbT_RT0_"
 "_ZNK9__gnu_cxx5__ops14_Val_less_iterclIcNS_17__normal_iteratorIPcSt6vectorIcSaIcEEEEEEbRT_T0_"
 "_ZNK9__gnu_cxx5__ops15_Iter_less_iterclINS_17__normal_iteratorIPcSt6vectorIcSaIcEEEES8_EEbT_T0_"
 "_ZNK9__gnu_cxx5__ops19_Iter_equal_to_iterclINS_17__normal_iteratorIPcSt6vectorIcSaIcEEEES8_EEbT_T0_"
 "_ZNKSt10_Select1stISt4pairIKjNSt7__cxx1112basic_stringIcSt11char_traitsIcESaIcEEEEEclERKS8_"
 "_ZNKSt10_Select1stISt4pairIKllEEclERKS2_"
 "_ZNKSt10_Select1stISt4pairIKNSt7__cxx1112basic_stringIcSt11char_traitsIcESaIcEEEjEEclERKS8_"
 "_ZNKSt11_Deque_baseIlSaIlEE19_M_get_Tp_allocatorEv"
 "_ZNKSt11_Deque_baseIlSaIlEE20_M_get_map_allocatorEv"
 "_ZNKSt11_Deque_baseINSt8__detail9_StateSeqINSt7__cxx1112regex_traitsIcEEEESaIS5_EE19_M_get_Tp_allocatorEv"
 "_ZNKSt11_Deque_baseINSt8__detail9_StateSeqINSt7__cxx1112regex_traitsIcEEEESaIS5_EE20_M_get_map_allocatorEv"
 "_ZNKSt12__shared_ptrIKNSt8__detail4_NFAINSt7__cxx1112regex_traitsIcEEEELN9__gnu_cxx12_Lock_policyE2EE3getEv"
 "_ZNKSt12__shared_ptrIKNSt8__detail4_NFAINSt7__cxx1112regex_traitsIcEEEELN9__gnu_cxx12_Lock_policyE2EEcvbEv"
 "_ZNKSt12__shared_ptrINSt8__detail4_NFAINSt7__cxx1112regex_traitsIcEEEELN9__gnu_cxx12_Lock_policyE2EE3getEv"
 "_ZNKSt12_Base_bitsetILy8EE10_M_getwordEy"
 "_ZNKSt12_Vector_baseI21llama_grammar_elementSaIS0_EE19_M_get_Tp_allocatorEv"
 "_ZNKSt12_Vector_baseI23llama_grammar_candidateSaIS0_EE13get_allocatorEv"
 "_ZNKSt12_Vector_baseI23llama_grammar_candidateSaIS0_EE19_M_get_Tp_allocatorEv"
 "_ZNKSt12_Vector_baseI29llama_grammar_trigger_patternSaIS0_EE19_M_get_Tp_allocatorEv"
 "_ZNKSt12_Vector_baseIcSaIcEE19_M_get_Tp_allocatorEv"
 "_ZNKSt12_Vector_baseIiSaIiEE19_M_get_Tp_allocatorEv"
 "_ZNKSt12_Vector_baseIjSaIjEE19_M_get_Tp_allocatorEv"
 "_ZNKSt12_Vector_baseINSt7__cxx1112basic_stringIcSt11char_traitsIcESaIcEEESaIS5_EE19_M_get_Tp_allocatorEv"
 "_ZNKSt12_Vector_baseINSt7__cxx1112regex_traitsIcE10_RegexMaskESaIS3_EE19_M_get_Tp_allocatorEv"
 "_ZNKSt12_Vector_baseINSt7__cxx119sub_matchIN9__gnu_cxx17__normal_iteratorIPKcNS0_12basic_stringIcSt11char_traitsIcESaIcEEEEEEESaISC_EE13get_allocatorEv"
 "_ZNKSt12_Vector_baseINSt7__cxx119sub_matchIN9__gnu_cxx17__normal_iteratorIPKcNS0_12basic_stringIcSt11char_traitsIcESaIcEEEEEEESaISC_EE19_M_get_Tp_allocatorEv"
 "_ZNKSt12_Vector_baseINSt8__detail6_StateIcEESaIS2_EE19_M_get_Tp_allocatorEv"
 "_ZNKSt12_Vector_baseIPK21llama_grammar_elementSaIS2_EE19_M_get_Tp_allocatorEv"
 "_ZNKSt12_Vector_baseISt4pairIccESaIS1_EE19_M_get_Tp_allocatorEv"
 "_ZNKSt12_Vector_baseISt4pairIlSt6vectorINSt7__cxx119sub_matchIN9__gnu_cxx17__normal_iteratorIPKcNS2_12basic_stringIcSt11char_traitsIcESaIcEEEEEEESaISE_EEESaISH_EE19_M_get_Tp_allocatorEv"
 "_ZNKSt12_Vector_baseISt4pairINSt7__cxx1112basic_stringIcSt11char_traitsIcESaIcEEES6_ESaIS7_EE19_M_get_Tp_allocatorEv"
 "_ZNKSt12_Vector_baseISt4pairISt6vectorIjSaIjEE18llama_partial_utf8ESaIS5_EE19_M_get_Tp_allocatorEv"
 "_ZNKSt12_Vector_baseISt6vectorI21llama_grammar_elementSaIS1_EESaIS3_EE19_M_get_Tp_allocatorEv"
 "_ZNKSt12_Vector_baseISt6vectorIPK21llama_grammar_elementSaIS3_EESaIS5_EE13get_allocatorEv"
 "_ZNKSt12_Vector_baseISt6vectorIPK21llama_grammar_elementSaIS3_EESaIS5_EE19_M_get_Tp_allocatorEv"
 "_ZNKSt12_Vector_baseIySaIyEE19_M_get_Tp_allocatorEv"
 "_ZNKSt13_Bit_iteratordeEv"
 "_ZNKSt13_Bit_iteratorixEx"
 "_ZNKSt13_Bvector_baseISaIbEE13_Bvector_impl11_M_end_addrEv"
 "_ZNKSt13_Rb_tree_nodeISt4pairIKjNSt7__cxx1112basic_stringIcSt11char_traitsIcESaIcEEEEE9_M_valptrEv"
 "_ZNKSt13_Rb_tree_nodeISt4pairIKllEE9_M_valptrEv"
 "_ZNKSt13_Rb_tree_nodeISt4pairIKNSt7__cxx1112basic_stringIcSt11char_traitsIcESaIcEEEjEE9_M_valptrEv"
 "_ZNKSt13move_iteratorIP21llama_grammar_elementE4baseEv"
 "_ZNKSt14_Bit_referencecvbEv"
 "_ZNKSt14_Function_base8_M_emptyEv"
 "_ZNKSt15_Deque_iteratorIlRlPlEdeEv"
 "_ZNKSt15_Deque_iteratorINSt8__detail9_StateSeqINSt7__cxx1112regex_traitsIcEEEERS5_PS5_EdeEv"
 "_ZNKSt17_Rb_tree_iteratorISt4pairIKjNSt7__cxx1112basic_stringIcSt11char_traitsIcESaIcEEEEEdeEv"
 "_ZNKSt17_Rb_tree_iteratorISt4pairIKllEEdeEv"
 "_ZNKSt17_Rb_tree_iteratorISt4pairIKllEEptEv"
 "_ZNKSt17_Rb_tree_iteratorISt4pairIKNSt7__cxx1112basic_stringIcSt11char_traitsIcESaIcEEEjEEdeEv"
 "_ZNKSt17_Rb_tree_iteratorISt4pairIKNSt7__cxx1112basic_stringIcSt11char_traitsIcESaIcEEEjEEptEv"
 "_ZNKSt17integral_constantIbLb1EEcvbEv"
 "_ZNKSt19__shared_ptr_accessIKNSt8__detail4_NFAINSt7__cxx1112regex_traitsIcEEEELN9__gnu_cxx12_Lock_policyE2ELb0ELb0EE6_M_getEv"
 "_ZNKSt19__shared_ptr_accessIKNSt8__detail4_NFAINSt7__cxx1112regex_traitsIcEEEELN9__gnu_cxx12_Lock_policyE2ELb0ELb0EEdeEv"
 "_ZNKSt19__shared_ptr_accessIKNSt8__detail4_NFAINSt7__cxx1112regex_traitsIcEEEELN9__gnu_cxx12_Lock_policyE2ELb0ELb0EEptEv"
 "_ZNKSt19__shared_ptr_accessINSt8__detail4_NFAINSt7__cxx1112regex_traitsIcEEEELN9__gnu_cxx12_Lock_policyE2ELb0ELb0EE6_M_getEv"
 "_ZNKSt19__shared_ptr_accessINSt8__detail4_NFAINSt7__cxx1112regex_traitsIcEEEELN9__gnu_cxx12_Lock_policyE2ELb0ELb0EEdeEv"
 "_ZNKSt19__shared_ptr_accessINSt8__detail4_NFAINSt7__cxx1112regex_traitsIcEEEELN9__gnu_cxx12_Lock_policyE2ELb0ELb0EEptEv"
 "_ZNKSt23_Rb_tree_const_iteratorISt4pairIKjNSt7__cxx1112basic_stringIcSt11char_traitsIcESaIcEEEEE13_M_const_castEv"
 "_ZNKSt23_Rb_tree_const_iteratorISt4pairIKjNSt7__cxx1112basic_stringIcSt11char_traitsIcESaIcEEEEEdeEv"
 "_ZNKSt23_Rb_tree_const_iteratorISt4pairIKllEE13_M_const_castEv"
 "_ZNKSt23_Rb_tree_const_iteratorISt4pairIKNSt7__cxx1112basic_stringIcSt11char_traitsIcESaIcEEEjEE13_M_const_castEv"
 "_ZNKSt3mapIjNSt7__cxx1112basic_stringIcSt11char_traitsIcESaIcEEESt4lessIjESaISt4pairIKjS5_EEE11lower_boundERS9_"
 "_ZNKSt3mapIjNSt7__cxx1112basic_stringIcSt11char_traitsIcESaIcEEESt4lessIjESaISt4pairIKjS5_EEE2atERS9_"
 "_ZNKSt3mapIjNSt7__cxx1112basic_stringIcSt11char_traitsIcESaIcEEESt4lessIjESaISt4pairIKjS5_EEE3endEv"
 "_ZNKSt3mapIjNSt7__cxx1112basic_stringIcSt11char_traitsIcESaIcEEESt4lessIjESaISt4pairIKjS5_EEE8key_compEv"
 "_ZNKSt3mapIllSt4lessIlESaISt4pairIKllEEE5countERS3_"
 "_ZNKSt3mapIllSt4lessIlESaISt4pairIKllEEE8key_compEv"
 "_ZNKSt3mapINSt7__cxx1112basic_stringIcSt11char_traitsIcESaIcEEEjSt4lessIS5_ESaISt4pairIKS5_jEEE4sizeEv"
 "_ZNKSt3mapINSt7__cxx1112basic_stringIcSt11char_traitsIcESaIcEEEjSt4lessIS5_ESaISt4pairIKS5_jEEE8key_compEv"
 "_ZNKSt4lessIjEclERKjS2_"
 "_ZNKSt4lessIlEclERKlS2_"
 "_ZNKSt4lessINSt7__cxx1112basic_stringIcSt11char_traitsIcESaIcEEEEclERKS5_S8_"
 "_ZNKSt5ctypeIcE2isEtc"
 "_ZNKSt5ctypeIcE5widenEc"
 "_ZNKSt5ctypeIcE6narrowEcc"
 "_ZNKSt5ctypeIcE7tolowerEc"
 "_ZNKSt5ctypeIcE7tolowerEPcPKc"
 "_ZNKSt5ctypeIcE7toupperEc"
 "_ZNKSt5dequeIlSaIlEE4sizeEv"
 "_ZNKSt5dequeIlSaIlEE5emptyEv"
 "_ZNKSt5dequeIlSaIlEE8max_sizeEv"
 "_ZNKSt5dequeINSt8__detail9_StateSeqINSt7__cxx1112regex_traitsIcEEEESaIS5_EE4sizeEv"
 "_ZNKSt5dequeINSt8__detail9_StateSeqINSt7__cxx1112regex_traitsIcEEEESaIS5_EE5emptyEv"
 "_ZNKSt5dequeINSt8__detail9_StateSeqINSt7__cxx1112regex_traitsIcEEEESaIS5_EE8max_sizeEv"
 "_ZNKSt5stackIlSt5dequeIlSaIlEEE5emptyEv"
 "_ZNKSt5stackINSt8__detail9_StateSeqINSt7__cxx1112regex_traitsIcEEEESt5dequeIS5_SaIS5_EEE5emptyEv"
 "_ZNKSt6bitsetILy256EE15_Unchecked_testEy"
 "_ZNKSt6bitsetILy256EE4sizeEv"
 "_ZNKSt6bitsetILy256EEixEy"
 "_ZNKSt6vectorI21llama_grammar_elementSaIS0_EE11_M_data_ptrIS0_EEPT_S5_"
 "_ZNKSt6vectorI21llama_grammar_elementSaIS0_EE12_M_check_lenEyPKc"
 "_ZNKSt6vectorI21llama_grammar_elementSaIS0_EE3endEv"
 "_ZNKSt6vectorI21llama_grammar_elementSaIS0_EE4backEv"
 "_ZNKSt6vectorI21llama_grammar_elementSaIS0_EE4dataEv"
 "_ZNKSt6vectorI21llama_grammar_elementSaIS0_EE4sizeEv"
 "_ZNKSt6vectorI21llama_grammar_elementSaIS0_EE5beginEv"
 "_ZNKSt6vectorI21llama_grammar_elementSaIS0_EE5emptyEv"
 "_ZNKSt6vectorI21llama_grammar_elementSaIS0_EE6cbeginEv"
 "_ZNKSt6vectorI21llama_grammar_elementSaIS0_EE8capacityEv"
 "_ZNKSt6vectorI21llama_grammar_elementSaIS0_EE8max_sizeEv"
 "_ZNKSt6vectorI21llama_grammar_elementSaIS0_EEixEy"
 "_ZNKSt6vectorI23llama_grammar_candidateSaIS0_EE12_M_check_lenEyPKc"
 "_ZNKSt6vectorI23llama_grammar_candidateSaIS0_EE3endEv"
 "_ZNKSt6vectorI23llama_grammar_candidateSaIS0_EE4sizeEv"
 "_ZNKSt6vectorI23llama_grammar_candidateSaIS0_EE5beginEv"
 "_ZNKSt6vectorI23llama_grammar_candidateSaIS0_EE5emptyEv"
 "_ZNKSt6vectorI23llama_grammar_candidateSaIS0_EE8capacityEv"
 "_ZNKSt6vectorI23llama_grammar_candidateSaIS0_EE8max_sizeEv"
 "_ZNKSt6vectorI29llama_grammar_trigger_patternSaIS0_EE12_M_check_lenEyPKc"
 "_ZNKSt6vectorI29llama_grammar_trigger_patternSaIS0_EE3endEv"
 "_ZNKSt6vectorI29llama_grammar_trigger_patternSaIS0_EE4sizeEv"
 "_ZNKSt6vectorI29llama_grammar_trigger_patternSaIS0_EE5beginEv"
 "_ZNKSt6vectorI29llama_grammar_trigger_patternSaIS0_EE8max_sizeEv"
 "_ZNKSt6vectorIcSaIcEE11_M_data_ptrIcEEPT_S4_"
 "_ZNKSt6vectorIcSaIcEE12_M_check_lenEyPKc"
 "_ZNKSt6vectorIcSaIcEE3endEv"
 "_ZNKSt6vectorIcSaIcEE4sizeEv"
 "_ZNKSt6vectorIcSaIcEE5beginEv"
 "_ZNKSt6vectorIcSaIcEE6cbeginEv"
 "_ZNKSt6vectorIcSaIcEE8max_sizeEv"
 "_ZNKSt6vectorIiSaIiEE12_M_check_lenEyPKc"
 "_ZNKSt6vectorIiSaIiEE3endEv"
 "_ZNKSt6vectorIiSaIiEE4sizeEv"
 "_ZNKSt6vectorIiSaIiEE5beginEv"
 "_ZNKSt6vectorIiSaIiEE8max_sizeEv"
 "_ZNKSt6vectorIjSaIjEE11_M_data_ptrIjEEPT_S4_"
 "_ZNKSt6vectorIjSaIjEE12_M_check_lenEyPKc"
 "_ZNKSt6vectorIjSaIjEE3endEv"
 "_ZNKSt6vectorIjSaIjEE4sizeEv"
 "_ZNKSt6vectorIjSaIjEE5beginEv"
 "_ZNKSt6vectorIjSaIjEE8capacityEv"
 "_ZNKSt6vectorIjSaIjEE8max_sizeEv"
 "_ZNKSt6vectorINSt7__cxx1112basic_stringIcSt11char_traitsIcESaIcEEESaIS5_EE12_M_check_lenEyPKc"
 "_ZNKSt6vectorINSt7__cxx1112basic_stringIcSt11char_traitsIcESaIcEEESaIS5_EE3endEv"
 "_ZNKSt6vectorINSt7__cxx1112basic_stringIcSt11char_traitsIcESaIcEEESaIS5_EE4sizeEv"
 "_ZNKSt6vectorINSt7__cxx1112basic_stringIcSt11char_traitsIcESaIcEEESaIS5_EE5beginEv"
 "_ZNKSt6vectorINSt7__cxx1112basic_stringIcSt11char_traitsIcESaIcEEESaIS5_EE8max_sizeEv"
 "_ZNKSt6vectorINSt7__cxx1112regex_traitsIcE10_RegexMaskESaIS3_EE12_M_check_lenEyPKc"
 "_ZNKSt6vectorINSt7__cxx1112regex_traitsIcE10_RegexMaskESaIS3_EE3endEv"
 "_ZNKSt6vectorINSt7__cxx1112regex_traitsIcE10_RegexMaskESaIS3_EE4sizeEv"
 "_ZNKSt6vectorINSt7__cxx1112regex_traitsIcE10_RegexMaskESaIS3_EE5beginEv"
 "_ZNKSt6vectorINSt7__cxx1112regex_traitsIcE10_RegexMaskESaIS3_EE8max_sizeEv"
 "_ZNKSt6vectorINSt7__cxx119sub_matchIN9__gnu_cxx17__normal_iteratorIPKcNS0_12basic_stringIcSt11char_traitsIcESaIcEEEEEEESaISC_EE3endEv"
 "_ZNKSt6vectorINSt7__cxx119sub_matchIN9__gnu_cxx17__normal_iteratorIPKcNS0_12basic_stringIcSt11char_traitsIcESaIcEEEEEEESaISC_EE4sizeEv"
 "_ZNKSt6vectorINSt7__cxx119sub_matchIN9__gnu_cxx17__normal_iteratorIPKcNS0_12basic_stringIcSt11char_traitsIcESaIcEEEEEEESaISC_EE5beginEv"
 "_ZNKSt6vectorINSt7__cxx119sub_matchIN9__gnu_cxx17__normal_iteratorIPKcNS0_12basic_stringIcSt11char_traitsIcESaIcEEEEEEESaISC_EE5emptyEv"
 "_ZNKSt6vectorINSt7__cxx119sub_matchIN9__gnu_cxx17__normal_iteratorIPKcNS0_12basic_stringIcSt11char_traitsIcESaIcEEEEEEESaISC_EE8capacityEv"
 "_ZNKSt6vectorINSt7__cxx119sub_matchIN9__gnu_cxx17__normal_iteratorIPKcNS0_12basic_stringIcSt11char_traitsIcESaIcEEEEEEESaISC_EEixEy"
 "_ZNKSt6vectorINSt8__detail6_StateIcEESaIS2_EE12_M_check_lenEyPKc"
 "_ZNKSt6vectorINSt8__detail6_StateIcEESaIS2_EE4sizeEv"
 "_ZNKSt6vectorINSt8__detail6_StateIcEESaIS2_EE8max_sizeEv"
 "_ZNKSt6vectorINSt8__detail6_StateIcEESaIS2_EEixEy"
 "_ZNKSt6vectorIPK21llama_grammar_elementSaIS2_EE12_M_check_lenEyPKc"
 "_ZNKSt6vectorIPK21llama_grammar_elementSaIS2_EE3endEv"
 "_ZNKSt6vectorIPK21llama_grammar_elementSaIS2_EE4backEv"
 "_ZNKSt6vectorIPK21llama_grammar_elementSaIS2_EE4sizeEv"
 "_ZNKSt6vectorIPK21llama_grammar_elementSaIS2_EE5beginEv"
 "_ZNKSt6vectorIPK21llama_grammar_elementSaIS2_EE5emptyEv"
 "_ZNKSt6vectorIPK21llama_grammar_elementSaIS2_EE8capacityEv"
 "_ZNKSt6vectorIPK21llama_grammar_elementSaIS2_EE8max_sizeEv"
 "_ZNKSt6vectorIPK21llama_grammar_elementSaIS2_EEixEy"
 "_ZNKSt6vectorIS_I21llama_grammar_elementSaIS0_EESaIS2_EE12_M_check_lenEyPKc"
 "_ZNKSt6vectorIS_I21llama_grammar_elementSaIS0_EESaIS2_EE3endEv"
 "_ZNKSt6vectorIS_I21llama_grammar_elementSaIS0_EESaIS2_EE4sizeEv"
 "_ZNKSt6vectorIS_I21llama_grammar_elementSaIS0_EESaIS2_EE5beginEv"
 "_ZNKSt6vectorIS_I21llama_grammar_elementSaIS0_EESaIS2_EE5emptyEv"
 "_ZNKSt6vectorIS_I21llama_grammar_elementSaIS0_EESaIS2_EE8max_sizeEv"
 "_ZNKSt6vectorIS_I21llama_grammar_elementSaIS0_EESaIS2_EEixEy"
 "_ZNKSt6vectorIS_IPK21llama_grammar_elementSaIS2_EESaIS4_EE12_M_check_lenEyPKc"
 "_ZNKSt6vectorIS_IPK21llama_grammar_elementSaIS2_EESaIS4_EE3endEv"
 "_ZNKSt6vectorIS_IPK21llama_grammar_elementSaIS2_EESaIS4_EE4sizeEv"
 "_ZNKSt6vectorIS_IPK21llama_grammar_elementSaIS2_EESaIS4_EE5beginEv"
 "_ZNKSt6vectorIS_IPK21llama_grammar_elementSaIS2_EESaIS4_EE5emptyEv"
 "_ZNKSt6vectorIS_IPK21llama_grammar_elementSaIS2_EESaIS4_EE5frontEv"
 "_ZNKSt6vectorIS_IPK21llama_grammar_elementSaIS2_EESaIS4_EE8capacityEv"
 "_ZNKSt6vectorIS_IPK21llama_grammar_elementSaIS2_EESaIS4_EE8max_sizeEv"
 "_ZNKSt6vectorIS_IPK21llama_grammar_elementSaIS2_EESaIS4_EEixEy"
 "_ZNKSt6vectorISt4pairIccESaIS1_EE12_M_check_lenEyPKc"
 "_ZNKSt6vectorISt4pairIccESaIS1_EE3endEv"
 "_ZNKSt6vectorISt4pairIccESaIS1_EE4sizeEv"
 "_ZNKSt6vectorISt4pairIccESaIS1_EE5beginEv"
 "_ZNKSt6vectorISt4pairIccESaIS1_EE8max_sizeEv"
 "_ZNKSt6vectorISt4pairIlS_INSt7__cxx119sub_matchIN9__gnu_cxx17__normal_iteratorIPKcNS1_12basic_stringIcSt11char_traitsIcESaIcEEEEEEESaISD_EEESaISG_EE12_M_check_lenEyS6_"
 "_ZNKSt6vectorISt4pairIlS_INSt7__cxx119sub_matchIN9__gnu_cxx17__normal_iteratorIPKcNS1_12basic_stringIcSt11char_traitsIcESaIcEEEEEEESaISD_EEESaISG_EE3endEv"
 "_ZNKSt6vectorISt4pairIlS_INSt7__cxx119sub_matchIN9__gnu_cxx17__normal_iteratorIPKcNS1_12basic_stringIcSt11char_traitsIcESaIcEEEEEEESaISD_EEESaISG_EE4sizeEv"
 "_ZNKSt6vectorISt4pairIlS_INSt7__cxx119sub_matchIN9__gnu_cxx17__normal_iteratorIPKcNS1_12basic_stringIcSt11char_traitsIcESaIcEEEEEEESaISD_EEESaISG_EE5beginEv"
 "_ZNKSt6vectorISt4pairIlS_INSt7__cxx119sub_matchIN9__gnu_cxx17__normal_iteratorIPKcNS1_12basic_stringIcSt11char_traitsIcESaIcEEEEEEESaISD_EEESaISG_EE5emptyEv"
 "_ZNKSt6vectorISt4pairIlS_INSt7__cxx119sub_matchIN9__gnu_cxx17__normal_iteratorIPKcNS1_12basic_stringIcSt11char_traitsIcESaIcEEEEEEESaISD_EEESaISG_EE8max_sizeEv"
 "_ZNKSt6vectorISt4pairINSt7__cxx1112basic_stringIcSt11char_traitsIcESaIcEEES6_ESaIS7_EE12_M_check_lenEyPKc"
 "_ZNKSt6vectorISt4pairINSt7__cxx1112basic_stringIcSt11char_traitsIcESaIcEEES6_ESaIS7_EE3endEv"
 "_ZNKSt6vectorISt4pairINSt7__cxx1112basic_stringIcSt11char_traitsIcESaIcEEES6_ESaIS7_EE4sizeEv"
 "_ZNKSt6vectorISt4pairINSt7__cxx1112basic_stringIcSt11char_traitsIcESaIcEEES6_ESaIS7_EE5beginEv"
 "_ZNKSt6vectorISt4pairINSt7__cxx1112basic_stringIcSt11char_traitsIcESaIcEEES6_ESaIS7_EE8max_sizeEv"
 "_ZNKSt6vectorISt4pairIS_IjSaIjEE18llama_partial_utf8ESaIS4_EE12_M_check_lenEyPKc"
 "_ZNKSt6vectorISt4pairIS_IjSaIjEE18llama_partial_utf8ESaIS4_EE4sizeEv"
 "_ZNKSt6vectorISt4pairIS_IjSaIjEE18llama_partial_utf8ESaIS4_EE8capacityEv"
 "_ZNKSt6vectorISt4pairIS_IjSaIjEE18llama_partial_utf8ESaIS4_EE8max_sizeEv"
 "_ZNKSt6vectorIySaIyEE12_M_check_lenEyPKc"
 "_ZNKSt6vectorIySaIyEE4sizeEv"
 "_ZNKSt6vectorIySaIyEE8max_sizeEv"
 "_ZNKSt7__cxx1111basic_regexIcNS_12regex_traitsIcEEE5flagsEv"
 "_ZNKSt7__cxx1112regex_traitsIcE10_RegexMaskanES2_"
 "_ZNKSt7__cxx1112regex_traitsIcE10_RegexMaskeqES2_"
 "_ZNKSt7__cxx1112regex_traitsIcE10_RegexMaskneES2_"
 "_ZNKSt7__cxx1112regex_traitsIcE10_RegexMaskorES2_"
 "_ZNKSt7__cxx1112regex_traitsIcE16lookup_classnameIPKcEENS1_10_RegexMaskET_S6_b"
 "_ZNKSt7__cxx1112regex_traitsIcE16translate_nocaseEc"
 "_ZNKSt7__cxx1112regex_traitsIcE17transform_primaryIPcEENS_12basic_stringIcSt11char_traitsIcESaIcEEET_S9_"
 "_ZNKSt7__cxx1112regex_traitsIcE17transform_primaryIPKcEENS_12basic_stringIcSt11char_traitsIcESaIcEEET_SA_"
 "_ZNKSt7__cxx1112regex_traitsIcE18lookup_collatenameIPKcEENS_12basic_stringIcSt11char_traitsIcESaIcEEET_SA_"
 "_ZNKSt7__cxx1112regex_traitsIcE5valueEci"
 "_ZNKSt7__cxx1112regex_traitsIcE6getlocEv"
 "_ZNKSt7__cxx1112regex_traitsIcE7isctypeEcNS1_10_RegexMaskE"
 "_ZNKSt7__cxx1112regex_traitsIcE9transformIN9__gnu_cxx17__normal_iteratorIPcNS_12basic_stringIcSt11char_traitsIcESaIcEEEEEEESA_T_SC_"
 "_ZNKSt7__cxx1112regex_traitsIcE9transformIPcEENS_12basic_stringIcSt11char_traitsIcESaIcEEET_S9_"
 "_ZNKSt7__cxx1112regex_traitsIcE9translateEc"
 "_ZNKSt7__cxx1113match_resultsIN9__gnu_cxx17__normal_iteratorIPKcNS_12basic_stringIcSt11char_traitsIcESaIcEEEEESaINS_9sub_matchISA_EEEE16_M_unmatched_subEv"
 "_ZNKSt7__cxx1113match_resultsIN9__gnu_cxx17__normal_iteratorIPKcNS_12basic_stringIcSt11char_traitsIcESaIcEEEEESaINS_9sub_matchISA_EEEE4sizeEv"
 "_ZNKSt7__cxx1113match_resultsIN9__gnu_cxx17__normal_iteratorIPKcNS_12basic_stringIcSt11char_traitsIcESaIcEEEEESaINS_9sub_matchISA_EEEE5readyEv"
 "_ZNKSt7__cxx1113match_resultsIN9__gnu_cxx17__normal_iteratorIPKcNS_12basic_stringIcSt11char_traitsIcESaIcEEEEESaINS_9sub_matchISA_EEEE6lengthEy"
 "_ZNKSt7__cxx1113match_resultsIN9__gnu_cxx17__normal_iteratorIPKcNS_12basic_stringIcSt11char_traitsIcESaIcEEEEESaINS_9sub_matchISA_EEEE8positionEy"
 "_ZNKSt7__cxx1113match_resultsIN9__gnu_cxx17__normal_iteratorIPKcNS_12basic_stringIcSt11char_traitsIcESaIcEEEEESaINS_9sub_matchISA_EEEEixEy"
 "_ZNKSt7__cxx119sub_matchIN9__gnu_cxx17__normal_iteratorIPKcNS_12basic_stringIcSt11char_traitsIcESaIcEEEEEE6lengthEv"
 "_ZNKSt8__detail11_AnyMatcherINSt7__cxx1112regex_traitsIcEELb0ELb0ELb0EEclEc"
 "_ZNKSt8__detail11_AnyMatcherINSt7__cxx1112regex_traitsIcEELb0ELb0ELb1EEclEc"
 "_ZNKSt8__detail11_AnyMatcherINSt7__cxx1112regex_traitsIcEELb0ELb1ELb0EEclEc"
 "_ZNKSt8__detail11_AnyMatcherINSt7__cxx1112regex_traitsIcEELb0ELb1ELb1EEclEc"
 "_ZNKSt8__detail11_AnyMatcherINSt7__cxx1112regex_traitsIcEELb1ELb0ELb0EE8_M_applyEcSt17integral_constantIbLb1EE"
 "_ZNKSt8__detail11_AnyMatcherINSt7__cxx1112regex_traitsIcEELb1ELb0ELb0EEclEc"
 "_ZNKSt8__detail11_AnyMatcherINSt7__cxx1112regex_traitsIcEELb1ELb0ELb1EE8_M_applyEcSt17integral_constantIbLb1EE"
 "_ZNKSt8__detail11_AnyMatcherINSt7__cxx1112regex_traitsIcEELb1ELb0ELb1EEclEc"
 "_ZNKSt8__detail11_AnyMatcherINSt7__cxx1112regex_traitsIcEELb1ELb1ELb0EE8_M_applyEcSt17integral_constantIbLb1EE"
 "_ZNKSt8__detail11_AnyMatcherINSt7__cxx1112regex_traitsIcEELb1ELb1ELb0EEclEc"
 "_ZNKSt8__detail11_AnyMatcherINSt7__cxx1112regex_traitsIcEELb1ELb1ELb1EE8_M_applyEcSt17integral_constantIbLb1EE"
 "_ZNKSt8__detail11_AnyMatcherINSt7__cxx1112regex_traitsIcEELb1ELb1ELb1EEclEc"
 "_ZNKSt8__detail11_State_base10_M_has_altEv"
 "_ZNKSt8__detail12_CharMatcherINSt7__cxx1112regex_traitsIcEELb0ELb0EEclEc"
 "_ZNKSt8__detail12_CharMatcherINSt7__cxx1112regex_traitsIcEELb0ELb1EEclEc"
 "_ZNKSt8__detail12_CharMatcherINSt7__cxx1112regex_traitsIcEELb1ELb0EEclEc"
 "_ZNKSt8__detail12_CharMatcherINSt7__cxx1112regex_traitsIcEELb1ELb1EEclEc"
 "_ZNKSt8__detail12_ScannerBase10_M_is_ecmaEv"
 "_ZNKSt8__detail12_ScannerBase11_M_is_basicEv"
 "_ZNKSt8__detail12_ScannerBase9_M_is_awkEv"
 "_ZNKSt8__detail15_BracketMatcherINSt7__cxx1112regex_traitsIcEELb0ELb0EE8_M_applyEcSt17integral_constantIbLb0EE"
 "_ZNKSt8__detail15_BracketMatcherINSt7__cxx1112regex_traitsIcEELb0ELb0EE8_M_applyEcSt17integral_constantIbLb1EE"
 "_ZNKSt8__detail15_BracketMatcherINSt7__cxx1112regex_traitsIcEELb0ELb0EEclEc"
 "_ZNKSt8__detail15_BracketMatcherINSt7__cxx1112regex_traitsIcEELb0ELb1EE8_M_applyEcSt17integral_constantIbLb0EE"
 "_ZNKSt8__detail15_BracketMatcherINSt7__cxx1112regex_traitsIcEELb0ELb1EE8_M_applyEcSt17integral_constantIbLb1EE"
 "_ZNKSt8__detail15_BracketMatcherINSt7__cxx1112regex_traitsIcEELb0ELb1EEclEc"
 "_ZNKSt8__detail15_BracketMatcherINSt7__cxx1112regex_traitsIcEELb1ELb0EE8_M_applyEcSt17integral_constantIbLb0EE"
 "_ZNKSt8__detail15_BracketMatcherINSt7__cxx1112regex_traitsIcEELb1ELb0EE8_M_applyEcSt17integral_constantIbLb1EE"
 "_ZNKSt8__detail15_BracketMatcherINSt7__cxx1112regex_traitsIcEELb1ELb0EEclEc"
 "_ZNKSt8__detail15_BracketMatcherINSt7__cxx1112regex_traitsIcEELb1ELb1EE8_M_applyEcSt17integral_constantIbLb0EE"
 "_ZNKSt8__detail15_BracketMatcherINSt7__cxx1112regex_traitsIcEELb1ELb1EE8_M_applyEcSt17integral_constantIbLb1EE"
 "_ZNKSt8__detail15_BracketMatcherINSt7__cxx1112regex_traitsIcEELb1ELb1EEclEc"
 "_ZNKSt8__detail16_RegexTranslatorINSt7__cxx1112regex_traitsIcEELb0ELb0EE12_M_transformEc"
 "_ZNKSt8__detail16_RegexTranslatorINSt7__cxx1112regex_traitsIcEELb0ELb0EE12_M_translateEc"
 "_ZNKSt8__detail16_RegexTranslatorINSt7__cxx1112regex_traitsIcEELb0ELb0EE14_M_match_rangeEccc"
 "_ZNKSt8__detail16_RegexTranslatorINSt7__cxx1112regex_traitsIcEELb1ELb0EE12_M_transformEc"
 "_ZNKSt8__detail16_RegexTranslatorINSt7__cxx1112regex_traitsIcEELb1ELb0EE14_M_match_rangeEccc"
 "_ZNKSt8__detail16_RegexTranslatorINSt7__cxx1112regex_traitsIcEELb1ELb1EE14_M_match_rangeERKNS1_12basic_stringIcSt11char_traitsIcESaIcEEESB_SB_"
 "_ZNKSt8__detail20_RegexTranslatorBaseINSt7__cxx1112regex_traitsIcEELb0ELb1EE12_M_transformEc"
 "_ZNKSt8__detail20_RegexTranslatorBaseINSt7__cxx1112regex_traitsIcEELb0ELb1EE12_M_translateEc"
 "_ZNKSt8__detail20_RegexTranslatorBaseINSt7__cxx1112regex_traitsIcEELb0ELb1EE14_M_match_rangeERKNS1_12basic_stringIcSt11char_traitsIcESaIcEEESB_SB_"
 "_ZNKSt8__detail20_RegexTranslatorBaseINSt7__cxx1112regex_traitsIcEELb1ELb0EE12_M_translateEc"
 "_ZNKSt8__detail20_RegexTranslatorBaseINSt7__cxx1112regex_traitsIcEELb1ELb0EE17_M_in_range_icaseEccc"
 "_ZNKSt8__detail20_RegexTranslatorBaseINSt7__cxx1112regex_traitsIcEELb1ELb1EE12_M_transformEc"
 "_ZNKSt8__detail20_RegexTranslatorBaseINSt7__cxx1112regex_traitsIcEELb1ELb1EE12_M_translateEc"
 "_ZNKSt8__detail20_RegexTranslatorBaseINSt7__cxx1112regex_traitsIcEELb1ELb1EE17_M_in_range_icaseEccc"
 "_ZNKSt8__detail6_StateIcE10_M_matchesEc"
 "_ZNKSt8__detail6_StateIcE14_M_get_matcherEv"
 "_ZNKSt8__detail6_StateIcE9_M_opcodeEv"
 "_ZNKSt8__detail8_ScannerIcE12_M_get_tokenEv"
 "_ZNKSt8__detail8_ScannerIcE12_M_get_valueB5cxx11Ev"
 "_ZNKSt8__detail9_CompilerINSt7__cxx1112regex_traitsIcEEE13_BracketState10_M_is_charEv"
 "_ZNKSt8__detail9_CompilerINSt7__cxx1112regex_traitsIcEEE13_BracketState11_M_is_classEv"
 "_ZNKSt8__detail9_CompilerINSt7__cxx1112regex_traitsIcEEE13_BracketState3getEv"
 "_ZNKSt8__detail9_ExecutorIN9__gnu_cxx17__normal_iteratorIPKcNSt7__cxx1112basic_stringIcSt11char_traitsIcESaIcEEEEESaINS5_9sub_matchISB_EEENS5_12regex_traitsIcEELb0EE10_M_is_wordEc"
 "_ZNKSt8__detail9_ExecutorIN9__gnu_cxx17__normal_iteratorIPKcNSt7__cxx1112basic_stringIcSt11char_traitsIcESaIcEEEEESaINS5_9sub_matchISB_EEENS5_12regex_traitsIcEELb0EE11_M_at_beginEv"
 "_ZNKSt8__detail9_ExecutorIN9__gnu_cxx17__normal_iteratorIPKcNSt7__cxx1112basic_stringIcSt11char_traitsIcESaIcEEEEESaINS5_9sub_matchISB_EEENS5_12regex_traitsIcEELb0EE16_M_word_boundaryEv"
 "_ZNKSt8__detail9_ExecutorIN9__gnu_cxx17__normal_iteratorIPKcNSt7__cxx1112basic_stringIcSt11char_traitsIcESaIcEEEEESaINS5_9sub_matchISB_EEENS5_12regex_traitsIcEELb0EE18_M_match_multilineEv"
 "_ZNKSt8__detail9_ExecutorIN9__gnu_cxx17__normal_iteratorIPKcNSt7__cxx1112basic_stringIcSt11char_traitsIcESaIcEEEEESaINS5_9sub_matchISB_EEENS5_12regex_traitsIcEELb0EE21_M_is_line_terminatorEc"
 "_ZNKSt8__detail9_ExecutorIN9__gnu_cxx17__normal_iteratorIPKcNSt7__cxx1112basic_stringIcSt11char_traitsIcESaIcEEEEESaINS5_9sub_matchISB_EEENS5_12regex_traitsIcEELb0EE9_M_at_endEv"
 "_ZNKSt8__detail9_ExecutorIN9__gnu_cxx17__normal_iteratorIPKcNSt7__cxx1112basic_stringIcSt11char_traitsIcESaIcEEEEESaINS5_9sub_matchISB_EEENS5_12regex_traitsIcEELb1EE10_M_is_wordEc"
 "_ZNKSt8__detail9_ExecutorIN9__gnu_cxx17__normal_iteratorIPKcNSt7__cxx1112basic_stringIcSt11char_traitsIcESaIcEEEEESaINS5_9sub_matchISB_EEENS5_12regex_traitsIcEELb1EE11_M_at_beginEv"
 "_ZNKSt8__detail9_ExecutorIN9__gnu_cxx17__normal_iteratorIPKcNSt7__cxx1112basic_stringIcSt11char_traitsIcESaIcEEEEESaINS5_9sub_matchISB_EEENS5_12regex_traitsIcEELb1EE11_State_infoISt17integral_constantIbLb1EESt6vectorISD_SE_EE10_M_visitedEl"
 "_ZNKSt8__detail9_ExecutorIN9__gnu_cxx17__normal_iteratorIPKcNSt7__cxx1112basic_stringIcSt11char_traitsIcESaIcEEEEESaINS5_9sub_matchISB_EEENS5_12regex_traitsIcEELb1EE16_M_word_boundaryEv"
 "_ZNKSt8__detail9_ExecutorIN9__gnu_cxx17__normal_iteratorIPKcNSt7__cxx1112basic_stringIcSt11char_traitsIcESaIcEEEEESaINS5_9sub_matchISB_EEENS5_12regex_traitsIcEELb1EE18_M_match_multilineEv"
 "_ZNKSt8__detail9_ExecutorIN9__gnu_cxx17__normal_iteratorIPKcNSt7__cxx1112basic_stringIcSt11char_traitsIcESaIcEEEEESaINS5_9sub_matchISB_EEENS5_12regex_traitsIcEELb1EE21_M_is_line_terminatorEc"
 "_ZNKSt8__detail9_ExecutorIN9__gnu_cxx17__normal_iteratorIPKcNSt7__cxx1112basic_stringIcSt11char_traitsIcESaIcEEEEESaINS5_9sub_matchISB_EEENS5_12regex_traitsIcEELb1EE9_M_at_endEv"
 "_ZNKSt8__detail9_NFA_base10_M_optionsEv"
 "_ZNKSt8__detail9_NFA_base12_M_sub_countEv"
 "_ZNKSt8__detail9_NFA_base8_M_startEv"
 "_ZNKSt8_Rb_treeIjSt4pairIKjNSt7__cxx1112basic_stringIcSt11char_traitsIcESaIcEEEESt10_Select1stIS8_ESt4lessIjESaIS8_EE10_Auto_node6_M_keyEv"
 "_ZNKSt8_Rb_treeIjSt4pairIKjNSt7__cxx1112basic_stringIcSt11char_traitsIcESaIcEEEESt10_Select1stIS8_ESt4lessIjESaIS8_EE11lower_boundERS1_"
 "_ZNKSt8_Rb_treeIjSt4pairIKjNSt7__cxx1112basic_stringIcSt11char_traitsIcESaIcEEEESt10_Select1stIS8_ESt4lessIjESaIS8_EE14_M_lower_boundEPKSt13_Rb_tree_nodeIS8_EPKSt18_Rb_tree_node_baseRS1_"
 "_ZNKSt8_Rb_treeIjSt4pairIKjNSt7__cxx1112basic_stringIcSt11char_traitsIcESaIcEEEESt10_Select1stIS8_ESt4lessIjESaIS8_EE3endEv"
 "_ZNKSt8_Rb_treeIjSt4pairIKjNSt7__cxx1112basic_stringIcSt11char_traitsIcESaIcEEEESt10_Select1stIS8_ESt4lessIjESaIS8_EE4sizeEv"
 "_ZNKSt8_Rb_treeIjSt4pairIKjNSt7__cxx1112basic_stringIcSt11char_traitsIcESaIcEEEESt10_Select1stIS8_ESt4lessIjESaIS8_EE6_M_endEv"
 "_ZNKSt8_Rb_treeIjSt4pairIKjNSt7__cxx1112basic_stringIcSt11char_traitsIcESaIcEEEESt10_Select1stIS8_ESt4lessIjESaIS8_EE8_M_beginEv"
 "_ZNKSt8_Rb_treeIjSt4pairIKjNSt7__cxx1112basic_stringIcSt11char_traitsIcESaIcEEEESt10_Select1stIS8_ESt4lessIjESaIS8_EE8key_compEv"
 "_ZNKSt8_Rb_treeIjSt4pairIKjNSt7__cxx1112basic_stringIcSt11char_traitsIcESaIcEEEESt10_Select1stIS8_ESt4lessIjESaIS8_EE9_M_mbeginEv"
 "_ZNKSt8_Rb_treeIlSt4pairIKllESt10_Select1stIS2_ESt4lessIlESaIS2_EE10_Auto_node6_M_keyEv"
 "_ZNKSt8_Rb_treeIlSt4pairIKllESt10_Select1stIS2_ESt4lessIlESaIS2_EE14_M_lower_boundEPKSt13_Rb_tree_nodeIS2_EPKSt18_Rb_tree_node_baseRS1_"
 "_ZNKSt8_Rb_treeIlSt4pairIKllESt10_Select1stIS2_ESt4lessIlESaIS2_EE3endEv"
 "_ZNKSt8_Rb_treeIlSt4pairIKllESt10_Select1stIS2_ESt4lessIlESaIS2_EE4findERS1_"
 "_ZNKSt8_Rb_treeIlSt4pairIKllESt10_Select1stIS2_ESt4lessIlESaIS2_EE4sizeEv"
 "_ZNKSt8_Rb_treeIlSt4pairIKllESt10_Select1stIS2_ESt4lessIlESaIS2_EE6_M_endEv"
 "_ZNKSt8_Rb_treeIlSt4pairIKllESt10_Select1stIS2_ESt4lessIlESaIS2_EE8_M_beginEv"
 "_ZNKSt8_Rb_treeIlSt4pairIKllESt10_Select1stIS2_ESt4lessIlESaIS2_EE8key_compEv"
 "_ZNKSt8_Rb_treeIlSt4pairIKllESt10_Select1stIS2_ESt4lessIlESaIS2_EE9_M_mbeginEv"
 "_ZNKSt8_Rb_treeINSt7__cxx1112basic_stringIcSt11char_traitsIcESaIcEEESt4pairIKS5_jESt10_Select1stIS8_ESt4lessIS5_ESaIS8_EE10_Auto_node6_M_keyEv"
 "_ZNKSt8_Rb_treeINSt7__cxx1112basic_stringIcSt11char_traitsIcESaIcEEESt4pairIKS5_jESt10_Select1stIS8_ESt4lessIS5_ESaIS8_EE4sizeEv"
 "_ZNKSt8_Rb_treeINSt7__cxx1112basic_stringIcSt11char_traitsIcESaIcEEESt4pairIKS5_jESt10_Select1stIS8_ESt4lessIS5_ESaIS8_EE8key_compEv"
 "_ZNKSt8_Rb_treeINSt7__cxx1112basic_stringIcSt11char_traitsIcESaIcEEESt4pairIKS5_jESt10_Select1stIS8_ESt4lessIS5_ESaIS8_EE9_M_mbeginEv"
 "_ZNKSt8functionIFbcEEclEc"
 "_ZNKSt8functionIFbcEEcvbEv"
 "_ZNKSt9_Any_data9_M_accessEv"
 "_ZNKSt9_Any_data9_M_accessINSt8__detail11_AnyMatcherINSt7__cxx1112regex_traitsIcEELb0ELb0ELb0EEEEERKT_v"
 "_ZNKSt9_Any_data9_M_accessINSt8__detail11_AnyMatcherINSt7__cxx1112regex_traitsIcEELb0ELb0ELb1EEEEERKT_v"
 "_ZNKSt9_Any_data9_M_accessINSt8__detail11_AnyMatcherINSt7__cxx1112regex_traitsIcEELb0ELb1ELb0EEEEERKT_v"
 "_ZNKSt9_Any_data9_M_accessINSt8__detail11_AnyMatcherINSt7__cxx1112regex_traitsIcEELb0ELb1ELb1EEEEERKT_v"
 "_ZNKSt9_Any_data9_M_accessINSt8__detail11_AnyMatcherINSt7__cxx1112regex_traitsIcEELb1ELb0ELb0EEEEERKT_v"
 "_ZNKSt9_Any_data9_M_accessINSt8__detail11_AnyMatcherINSt7__cxx1112regex_traitsIcEELb1ELb0ELb1EEEEERKT_v"
 "_ZNKSt9_Any_data9_M_accessINSt8__detail11_AnyMatcherINSt7__cxx1112regex_traitsIcEELb1ELb1ELb0EEEEERKT_v"
 "_ZNKSt9_Any_data9_M_accessINSt8__detail11_AnyMatcherINSt7__cxx1112regex_traitsIcEELb1ELb1ELb1EEEEERKT_v"
 "_ZNKSt9_Any_data9_M_accessINSt8__detail12_CharMatcherINSt7__cxx1112regex_traitsIcEELb0ELb0EEEEERKT_v"
 "_ZNKSt9_Any_data9_M_accessINSt8__detail12_CharMatcherINSt7__cxx1112regex_traitsIcEELb0ELb1EEEEERKT_v"
 "_ZNKSt9_Any_data9_M_accessINSt8__detail12_CharMatcherINSt7__cxx1112regex_traitsIcEELb1ELb0EEEEERKT_v"
 "_ZNKSt9_Any_data9_M_accessINSt8__detail12_CharMatcherINSt7__cxx1112regex_traitsIcEELb1ELb1EEEEERKT_v"
 "_ZNKSt9_Any_data9_M_accessIPNSt8__detail15_BracketMatcherINSt7__cxx1112regex_traitsIcEELb0ELb0EEEEERKT_v"
 "_ZNKSt9_Any_data9_M_accessIPNSt8__detail15_BracketMatcherINSt7__cxx1112regex_traitsIcEELb0ELb1EEEEERKT_v"
 "_ZNKSt9_Any_data9_M_accessIPNSt8__detail15_BracketMatcherINSt7__cxx1112regex_traitsIcEELb1ELb0EEEEERKT_v"
 "_ZNKSt9_Any_data9_M_accessIPNSt8__detail15_BracketMatcherINSt7__cxx1112regex_traitsIcEELb1ELb1EEEEERKT_v"
 "_ZNSt10__pair_getILy0EE10__move_getIRNSt7__cxx1112basic_stringIcSt11char_traitsIcESaIcEEERjEEOT_OSt4pairISA_T0_E"
 "_ZNSt10__pair_getILy1EE10__move_getIRNSt7__cxx1112basic_stringIcSt11char_traitsIcESaIcEEERjEEOT0_OSt4pairIT_SA_E"
 "_ZNSt10_Head_baseILy0EONSt7__cxx1112basic_stringIcSt11char_traitsIcESaIcEEELb0EE7_M_headERS7_"
 "_ZNSt10_Head_baseILy0EONSt7__cxx1112basic_stringIcSt11char_traitsIcESaIcEEELb0EEC2IS5_EEOT_"
 "_ZNSt10_Head_baseILy0ERKjLb0EE7_M_headERS2_"
 "_ZNSt10_Head_baseILy0ERKjLb0EEC2ES1_"
 "_ZNSt10_Head_baseILy0ERKlLb0EE7_M_headERS2_"
 "_ZNSt10_Head_baseILy0ERKlLb0EEC2ES1_"
 "_ZNSt10shared_ptrIKNSt8__detail4_NFAINSt7__cxx1112regex_traitsIcEEEEEaSEOS7_"
 "_ZNSt10shared_ptrIKNSt8__detail4_NFAINSt7__cxx1112regex_traitsIcEEEEEC1EDn"
 "_ZNSt10shared_ptrIKNSt8__detail4_NFAINSt7__cxx1112regex_traitsIcEEEEEC1EOS7_"
 "_ZNSt10shared_ptrIKNSt8__detail4_NFAINSt7__cxx1112regex_traitsIcEEEEEC1ERKS7_"
 "_ZNSt10shared_ptrIKNSt8__detail4_NFAINSt7__cxx1112regex_traitsIcEEEEEC1Ev"
 "_ZNSt10shared_ptrIKNSt8__detail4_NFAINSt7__cxx1112regex_traitsIcEEEEEC1IS5_vEEOS_IT_E"
 "_ZNSt10shared_ptrIKNSt8__detail4_NFAINSt7__cxx1112regex_traitsIcEEEEED1Ev"
 "_ZNSt10shared_ptrINSt8__detail4_NFAINSt7__cxx1112regex_traitsIcEEEEEC1ISaIvEJRKSt6localeRNSt15regex_constants18syntax_option_typeEEEESt20_Sp_alloc_shared_tagIT_EDpOT0_"
 "_ZNSt10shared_ptrINSt8__detail4_NFAINSt7__cxx1112regex_traitsIcEEEEED1Ev"
 "_ZNSt11__copy_moveILb0ELb0ESt26random_access_iterator_tagE12__assign_oneI21llama_grammar_elementKS3_EEvPT_PT0_"
 "_ZNSt11__copy_moveILb0ELb0ESt26random_access_iterator_tagE12__assign_oneI21llama_grammar_elementS3_EEvPT_PT0_"
 "_ZNSt11__copy_moveILb0ELb0ESt26random_access_iterator_tagE12__assign_oneIccEEvPT_PT0_"
 "_ZNSt11__copy_moveILb0ELb0ESt26random_access_iterator_tagE12__assign_oneIcKcEEvPT_PT0_"
 "_ZNSt11__copy_moveILb0ELb0ESt26random_access_iterator_tagE12__assign_oneIiKiEEvPT_PT0_"
 "_ZNSt11__copy_moveILb0ELb0ESt26random_access_iterator_tagE12__assign_oneIPK21llama_grammar_elementKS5_EEvPT_PT0_"
 "_ZNSt11__copy_moveILb0ELb0ESt26random_access_iterator_tagE12__assign_oneIPlS3_EEvPT_PT0_"
 "_ZNSt11__copy_moveILb0ELb0ESt26random_access_iterator_tagE12__assign_oneIPNSt8__detail9_StateSeqINSt7__cxx1112regex_traitsIcEEEES9_EEvPT_PT0_"
 "_ZNSt11__copy_moveILb0ELb0ESt26random_access_iterator_tagE8__copy_mIPKNSt7__cxx119sub_matchIN9__gnu_cxx17__normal_iteratorIPKcNS3_12basic_stringIcSt11char_traitsIcESaIcEEEEEEEPSF_EET0_T_SK_SJ_"
 "_ZNSt11__copy_moveILb0ELb0ESt26random_access_iterator_tagE8__copy_mIPNSt7__cxx119sub_matchIN9__gnu_cxx17__normal_iteratorIPKcNS3_12basic_stringIcSt11char_traitsIcESaIcEEEEEEESG_EET0_T_SI_SH_"
 "_ZNSt11__copy_moveILb0ELb1ESt26random_access_iterator_tagE8__copy_mI21llama_grammar_elementS3_EEPT0_PT_S7_S5_"
 "_ZNSt11__copy_moveILb0ELb1ESt26random_access_iterator_tagE8__copy_mIccEEPT0_PT_S6_S4_"
 "_ZNSt11__copy_moveILb0ELb1ESt26random_access_iterator_tagE8__copy_mIK21llama_grammar_elementS3_EEPT0_PT_S8_S6_"
 "_ZNSt11__copy_moveILb0ELb1ESt26random_access_iterator_tagE8__copy_mIKccEEPT0_PT_S7_S5_"
 "_ZNSt11__copy_moveILb0ELb1ESt26random_access_iterator_tagE8__copy_mIKiiEEPT0_PT_S7_S5_"
 "_ZNSt11__copy_moveILb0ELb1ESt26random_access_iterator_tagE8__copy_mIKPK21llama_grammar_elementS5_EEPT0_PT_SA_S8_"
 "_ZNSt11__copy_moveILb0ELb1ESt26random_access_iterator_tagE8__copy_mIPlS3_EEPT0_PT_S7_S5_"
 "_ZNSt11__copy_moveILb0ELb1ESt26random_access_iterator_tagE8__copy_mIPNSt8__detail9_StateSeqINSt7__cxx1112regex_traitsIcEEEES9_EEPT0_PT_SD_SB_"
 "_ZNSt11__copy_moveILb1ELb0ESt26random_access_iterator_tagE12__assign_oneI21llama_grammar_elementS3_EEvPT_PT0_"
 "_ZNSt11__copy_moveILb1ELb0ESt26random_access_iterator_tagE12__assign_oneIccEEvPT_PT0_"
 "_ZNSt11__copy_moveILb1ELb1ESt26random_access_iterator_tagE8__copy_mI21llama_grammar_elementS3_EEPT0_PT_S7_S5_"
 "_ZNSt11__copy_moveILb1ELb1ESt26random_access_iterator_tagE8__copy_mIccEEPT0_PT_S6_S4_"
 "_ZNSt11_Deque_baseIlSaIlEE11_Deque_implC1Ev"
 "_ZNSt11_Deque_baseIlSaIlEE11_Deque_implD1Ev"
 "_ZNSt11_Deque_baseIlSaIlEE15_M_allocate_mapEy"
 "_ZNSt11_Deque_baseIlSaIlEE15_M_create_nodesEPPlS3_"
 "_ZNSt11_Deque_baseIlSaIlEE16_Deque_impl_dataC2Ev"
 "_ZNSt11_Deque_baseIlSaIlEE16_M_allocate_nodeEv"
 "_ZNSt11_Deque_baseIlSaIlEE16_M_destroy_nodesEPPlS3_"
 "_ZNSt11_Deque_baseIlSaIlEE17_M_deallocate_mapEPPly"
 "_ZNSt11_Deque_baseIlSaIlEE17_M_initialize_mapEy"
 "_ZNSt11_Deque_baseIlSaIlEE18_M_deallocate_nodeEPl"
 "_ZNSt11_Deque_baseIlSaIlEE19_M_get_Tp_allocatorEv"
 "_ZNSt11_Deque_baseIlSaIlEEC2Ev"
 "_ZNSt11_Deque_baseIlSaIlEED2Ev"
 "_ZNSt11_Deque_baseINSt8__detail9_StateSeqINSt7__cxx1112regex_traitsIcEEEESaIS5_EE11_Deque_implC1Ev"
 "_ZNSt11_Deque_baseINSt8__detail9_StateSeqINSt7__cxx1112regex_traitsIcEEEESaIS5_EE11_Deque_implD1Ev"
 "_ZNSt11_Deque_baseINSt8__detail9_StateSeqINSt7__cxx1112regex_traitsIcEEEESaIS5_EE15_M_allocate_mapEy"
 "_ZNSt11_Deque_baseINSt8__detail9_StateSeqINSt7__cxx1112regex_traitsIcEEEESaIS5_EE15_M_create_nodesEPPS5_S9_"
 "_ZNSt11_Deque_baseINSt8__detail9_StateSeqINSt7__cxx1112regex_traitsIcEEEESaIS5_EE16_Deque_impl_dataC2Ev"
 "_ZNSt11_Deque_baseINSt8__detail9_StateSeqINSt7__cxx1112regex_traitsIcEEEESaIS5_EE16_M_allocate_nodeEv"
 "_ZNSt11_Deque_baseINSt8__detail9_StateSeqINSt7__cxx1112regex_traitsIcEEEESaIS5_EE16_M_destroy_nodesEPPS5_S9_"
 "_ZNSt11_Deque_baseINSt8__detail9_StateSeqINSt7__cxx1112regex_traitsIcEEEESaIS5_EE17_M_deallocate_mapEPPS5_y"
 "_ZNSt11_Deque_baseINSt8__detail9_StateSeqINSt7__cxx1112regex_traitsIcEEEESaIS5_EE17_M_initialize_mapEy"
 "_ZNSt11_Deque_baseINSt8__detail9_StateSeqINSt7__cxx1112regex_traitsIcEEEESaIS5_EE18_M_deallocate_nodeEPS5_"
 "_ZNSt11_Deque_baseINSt8__detail9_StateSeqINSt7__cxx1112regex_traitsIcEEEESaIS5_EE19_M_get_Tp_allocatorEv"
 "_ZNSt11_Deque_baseINSt8__detail9_StateSeqINSt7__cxx1112regex_traitsIcEEEESaIS5_EEC2Ev"
 "_ZNSt11_Deque_baseINSt8__detail9_StateSeqINSt7__cxx1112regex_traitsIcEEEESaIS5_EED2Ev"
 "_ZNSt11_Tuple_implILy0EJONSt7__cxx1112basic_stringIcSt11char_traitsIcESaIcEEEEE7_M_headERS7_"
 "_ZNSt11_Tuple_implILy0EJONSt7__cxx1112basic_stringIcSt11char_traitsIcESaIcEEEEEC2EOS7_"
 "_ZNSt11_Tuple_implILy0EJONSt7__cxx1112basic_stringIcSt11char_traitsIcESaIcEEEEEC2IS5_EEOT_"
 "_ZNSt11_Tuple_implILy0EJRKjEE7_M_headERS2_"
 "_ZNSt11_Tuple_implILy0EJRKjEEC2EOS2_"
 "_ZNSt11_Tuple_implILy0EJRKjEEC2ES1_"
 "_ZNSt11_Tuple_implILy0EJRKlEE7_M_headERS2_"
 "_ZNSt11_Tuple_implILy0EJRKlEEC2EOS2_"
 "_ZNSt11_Tuple_implILy0EJRKlEEC2ES1_"
 "_ZNSt11char_traitsIcE2ltERKcS2_"
 "_ZNSt11char_traitsIcE6lengthEPKc"
 "_ZNSt11char_traitsIcE7compareEPKcS2_y"
 "_ZNSt11regex_errorC1ENSt15regex_constants10error_typeEPKc"
 "_ZNSt12__shared_ptrIKNSt8__detail4_NFAINSt7__cxx1112regex_traitsIcEEEELN9__gnu_cxx12_Lock_policyE2EE4swapERS9_"
 "_ZNSt12__shared_ptrIKNSt8__detail4_NFAINSt7__cxx1112regex_traitsIcEEEELN9__gnu_cxx12_Lock_policyE2EEaSEOS9_"
 "_ZNSt12__shared_ptrIKNSt8__detail4_NFAINSt7__cxx1112regex_traitsIcEEEELN9__gnu_cxx12_Lock_policyE2EEC1EOS9_"
 "_ZNSt12__shared_ptrIKNSt8__detail4_NFAINSt7__cxx1112regex_traitsIcEEEELN9__gnu_cxx12_Lock_policyE2EEC2EOS9_"
 "_ZNSt12__shared_ptrIKNSt8__detail4_NFAINSt7__cxx1112regex_traitsIcEEEELN9__gnu_cxx12_Lock_policyE2EEC2ERKS9_"
 "_ZNSt12__shared_ptrIKNSt8__detail4_NFAINSt7__cxx1112regex_traitsIcEEEELN9__gnu_cxx12_Lock_policyE2EEC2Ev"
 "_ZNSt12__shared_ptrIKNSt8__detail4_NFAINSt7__cxx1112regex_traitsIcEEEELN9__gnu_cxx12_Lock_policyE2EEC2IS5_vEEOS_IT_LS8_2EE"
 "_ZNSt12__shared_ptrIKNSt8__detail4_NFAINSt7__cxx1112regex_traitsIcEEEELN9__gnu_cxx12_Lock_policyE2EED1Ev"
 "_ZNSt12__shared_ptrIKNSt8__detail4_NFAINSt7__cxx1112regex_traitsIcEEEELN9__gnu_cxx12_Lock_policyE2EED2Ev"
 "_ZNSt12__shared_ptrINSt8__detail4_NFAINSt7__cxx1112regex_traitsIcEEEELN9__gnu_cxx12_Lock_policyE2EE31_M_enable_shared_from_this_withIS5_S5_EENSt9enable_ifIXntsrNS8_15__has_esft_baseIT0_vEE5valueEvE4typeEPT_"
 "_ZNSt12__shared_ptrINSt8__detail4_NFAINSt7__cxx1112regex_traitsIcEEEELN9__gnu_cxx12_Lock_policyE2EEC2ISaIvEJRKSt6localeRNSt15regex_constants18syntax_option_typeEEEESt20_Sp_alloc_shared_tagIT_EDpOT0_"
 "_ZNSt12__shared_ptrINSt8__detail4_NFAINSt7__cxx1112regex_traitsIcEEEELN9__gnu_cxx12_Lock_policyE2EED2Ev"
 "_ZNSt12_Base_bitsetILy8EE10_M_getwordEy"
 "_ZNSt12_Base_bitsetILy8EE10_S_maskbitEy"
 "_ZNSt12_Base_bitsetILy8EE11_S_whichbitEy"
 "_ZNSt12_Base_bitsetILy8EE12_S_whichwordEy"
 "_ZNSt12_Base_bitsetILy8EEC2Ev"
 "_ZNSt12_Destroy_auxILb0EE9__destroyIP29llama_grammar_trigger_patternEEvT_S4_"
 "_ZNSt12_Destroy_auxILb0EE9__destroyIPNSt7__cxx1112basic_stringIcSt11char_traitsIcESaIcEEEEEvT_S9_"
 "_ZNSt12_Destroy_auxILb0EE9__destroyIPNSt8__detail6_StateIcEEEEvT_S6_"
 "_ZNSt12_Destroy_auxILb0EE9__destroyIPSt4pairIlSt6vectorINSt7__cxx119sub_matchIN9__gnu_cxx17__normal_iteratorIPKcNS4_12basic_stringIcSt11char_traitsIcESaIcEEEEEEESaISG_EEEEEvT_SL_"
 "_ZNSt12_Destroy_auxILb0EE9__destroyIPSt4pairINSt7__cxx1112basic_stringIcSt11char_traitsIcESaIcEEES8_EEEvT_SB_"
 "_ZNSt12_Destroy_auxILb0EE9__destroyIPSt4pairISt6vectorIjSaIjEE18llama_partial_utf8EEEvT_S9_"
 "_ZNSt12_Destroy_auxILb0EE9__destroyIPSt6vectorI21llama_grammar_elementSaIS3_EEEEvT_S7_"
 "_ZNSt12_Destroy_auxILb0EE9__destroyIPSt6vectorIPK21llama_grammar_elementSaIS5_EEEEvT_S9_"
 "_ZNSt12_Destroy_auxILb1EE9__destroyIN9__gnu_cxx17__normal_iteratorIP21llama_grammar_elementSt6vectorIS4_SaIS4_EEEEEEvT_SA_"
 "_ZNSt12_Destroy_auxILb1EE9__destroyIN9__gnu_cxx17__normal_iteratorIPNSt7__cxx119sub_matchINS3_IPKcNS4_12basic_stringIcSt11char_traitsIcESaIcEEEEEEESt6vectorISE_SaISE_EEEEEEvT_SK_"
 "_ZNSt12_Destroy_auxILb1EE9__destroyIP21llama_grammar_elementEEvT_S4_"
 "_ZNSt12_Destroy_auxILb1EE9__destroyIP23llama_grammar_candidateEEvT_S4_"
 "_ZNSt12_Destroy_auxILb1EE9__destroyIPcEEvT_S3_"
 "_ZNSt12_Destroy_auxILb1EE9__destroyIPiEEvT_S3_"
 "_ZNSt12_Destroy_auxILb1EE9__destroyIPjEEvT_S3_"
 "_ZNSt12_Destroy_auxILb1EE9__destroyIPNSt7__cxx1112regex_traitsIcE10_RegexMaskEEEvT_S7_"
 "_ZNSt12_Destroy_auxILb1EE9__destroyIPNSt7__cxx119sub_matchIN9__gnu_cxx17__normal_iteratorIPKcNS2_12basic_stringIcSt11char_traitsIcESaIcEEEEEEEEEvT_SG_"
 "_ZNSt12_Destroy_auxILb1EE9__destroyIPPK21llama_grammar_elementEEvT_S6_"
 "_ZNSt12_Destroy_auxILb1EE9__destroyIPSt4pairIccEEEvT_S5_"
 "_ZNSt12_Destroy_auxILb1EE9__destroyIPSt4pairIN9__gnu_cxx17__normal_iteratorIPKcNSt7__cxx1112basic_stringIcSt11char_traitsIcESaIcEEEEEiEEEvT_SG_"
 "_ZNSt12_Destroy_auxILb1EE9__destroyIPyEEvT_S3_"
 "_ZNSt12_Vector_baseI21llama_grammar_elementSaIS0_EE11_M_allocateEy"
 "_ZNSt12_Vector_baseI21llama_grammar_elementSaIS0_EE12_Vector_implC1EOS3_"
 "_ZNSt12_Vector_baseI21llama_grammar_elementSaIS0_EE12_Vector_implC1ERKS1_"
 "_ZNSt12_Vector_baseI21llama_grammar_elementSaIS0_EE12_Vector_implC1Ev"
 "_ZNSt12_Vector_baseI21llama_grammar_elementSaIS0_EE12_Vector_implD1Ev"
 "_ZNSt12_Vector_baseI21llama_grammar_elementSaIS0_EE13_M_deallocateEPS0_y"
 "_ZNSt12_Vector_baseI21llama_grammar_elementSaIS0_EE17_M_create_storageEy"
 "_ZNSt12_Vector_baseI21llama_grammar_elementSaIS0_EE17_Vector_impl_dataC2EOS3_"
 "_ZNSt12_Vector_baseI21llama_grammar_elementSaIS0_EE17_Vector_impl_dataC2Ev"
 "_ZNSt12_Vector_baseI21llama_grammar_elementSaIS0_EE19_M_get_Tp_allocatorEv"
 "_ZNSt12_Vector_baseI21llama_grammar_elementSaIS0_EEC2EOS2_"
 "_ZNSt12_Vector_baseI21llama_grammar_elementSaIS0_EEC2ERKS1_"
 "_ZNSt12_Vector_baseI21llama_grammar_elementSaIS0_EEC2Ev"
 "_ZNSt12_Vector_baseI21llama_grammar_elementSaIS0_EEC2EyRKS1_"
 "_ZNSt12_Vector_baseI21llama_grammar_elementSaIS0_EED2Ev"
 "_ZNSt12_Vector_baseI23llama_grammar_candidateSaIS0_EE11_M_allocateEy"
 "_ZNSt12_Vector_baseI23llama_grammar_candidateSaIS0_EE12_Vector_implC1EOS3_"
 "_ZNSt12_Vector_baseI23llama_grammar_candidateSaIS0_EE12_Vector_implC1ERKS1_"
 "_ZNSt12_Vector_baseI23llama_grammar_candidateSaIS0_EE12_Vector_implC1Ev"
 "_ZNSt12_Vector_baseI23llama_grammar_candidateSaIS0_EE12_Vector_implD1Ev"
 "_ZNSt12_Vector_baseI23llama_grammar_candidateSaIS0_EE13_M_deallocateEPS0_y"
 "_ZNSt12_Vector_baseI23llama_grammar_candidateSaIS0_EE17_Vector_impl_data12_M_copy_dataERKS3_"
 "_ZNSt12_Vector_baseI23llama_grammar_candidateSaIS0_EE17_Vector_impl_data12_M_swap_dataERS3_"
 "_ZNSt12_Vector_baseI23llama_grammar_candidateSaIS0_EE17_Vector_impl_dataC1Ev"
 "_ZNSt12_Vector_baseI23llama_grammar_candidateSaIS0_EE17_Vector_impl_dataC2EOS3_"
 "_ZNSt12_Vector_baseI23llama_grammar_candidateSaIS0_EE17_Vector_impl_dataC2Ev"
 "_ZNSt12_Vector_baseI23llama_grammar_candidateSaIS0_EE19_M_get_Tp_allocatorEv"
 "_ZNSt12_Vector_baseI23llama_grammar_candidateSaIS0_EEC2EOS2_"
 "_ZNSt12_Vector_baseI23llama_grammar_candidateSaIS0_EEC2ERKS1_"
 "_ZNSt12_Vector_baseI23llama_grammar_candidateSaIS0_EEC2Ev"
 "_ZNSt12_Vector_baseI23llama_grammar_candidateSaIS0_EED2Ev"
 "_ZNSt12_Vector_baseI29llama_grammar_trigger_patternSaIS0_EE11_M_allocateEy"
 "_ZNSt12_Vector_baseI29llama_grammar_trigger_patternSaIS0_EE12_Vector_implC1EOS3_"
 "_ZNSt12_Vector_baseI29llama_grammar_trigger_patternSaIS0_EE12_Vector_implC1ERKS1_"
 "_ZNSt12_Vector_baseI29llama_grammar_trigger_patternSaIS0_EE12_Vector_implC1Ev"
 "_ZNSt12_Vector_baseI29llama_grammar_trigger_patternSaIS0_EE12_Vector_implD1Ev"
 "_ZNSt12_Vector_baseI29llama_grammar_trigger_patternSaIS0_EE13_M_deallocateEPS0_y"
 "_ZNSt12_Vector_baseI29llama_grammar_trigger_patternSaIS0_EE17_M_create_storageEy"
 "_ZNSt12_Vector_baseI29llama_grammar_trigger_patternSaIS0_EE17_Vector_impl_dataC2EOS3_"
 "_ZNSt12_Vector_baseI29llama_grammar_trigger_patternSaIS0_EE17_Vector_impl_dataC2Ev"
 "_ZNSt12_Vector_baseI29llama_grammar_trigger_patternSaIS0_EE19_M_get_Tp_allocatorEv"
 "_ZNSt12_Vector_baseI29llama_grammar_trigger_patternSaIS0_EEC2EOS2_"
 "_ZNSt12_Vector_baseI29llama_grammar_trigger_patternSaIS0_EEC2Ev"
 "_ZNSt12_Vector_baseI29llama_grammar_trigger_patternSaIS0_EEC2EyRKS1_"
 "_ZNSt12_Vector_baseI29llama_grammar_trigger_patternSaIS0_EED2Ev"
 "_ZNSt12_Vector_baseIcSaIcEE11_M_allocateEy"
 "_ZNSt12_Vector_baseIcSaIcEE12_Vector_implC1EOS2_"
 "_ZNSt12_Vector_baseIcSaIcEE12_Vector_implC1ERKS0_"
 "_ZNSt12_Vector_baseIcSaIcEE12_Vector_implC1Ev"
 "_ZNSt12_Vector_baseIcSaIcEE12_Vector_implD1Ev"
 "_ZNSt12_Vector_baseIcSaIcEE13_M_deallocateEPcy"
 "_ZNSt12_Vector_baseIcSaIcEE17_M_create_storageEy"
 "_ZNSt12_Vector_baseIcSaIcEE17_Vector_impl_dataC2EOS2_"
 "_ZNSt12_Vector_baseIcSaIcEE17_Vector_impl_dataC2Ev"
 "_ZNSt12_Vector_baseIcSaIcEE19_M_get_Tp_allocatorEv"
 "_ZNSt12_Vector_baseIcSaIcEEC2EOS1_"
 "_ZNSt12_Vector_baseIcSaIcEEC2ERKS0_"
 "_ZNSt12_Vector_baseIcSaIcEEC2Ev"
 "_ZNSt12_Vector_baseIcSaIcEEC2EyRKS0_"
 "_ZNSt12_Vector_baseIcSaIcEED2Ev"
 "_ZNSt12_Vector_baseIiSaIiEE11_M_allocateEy"
 "_ZNSt12_Vector_baseIiSaIiEE12_Vector_implC1EOS2_"
 "_ZNSt12_Vector_baseIiSaIiEE12_Vector_implC1ERKS0_"
 "_ZNSt12_Vector_baseIiSaIiEE12_Vector_implC1Ev"
 "_ZNSt12_Vector_baseIiSaIiEE12_Vector_implD1Ev"
 "_ZNSt12_Vector_baseIiSaIiEE13_M_deallocateEPiy"
 "_ZNSt12_Vector_baseIiSaIiEE17_M_create_storageEy"
 "_ZNSt12_Vector_baseIiSaIiEE17_Vector_impl_dataC2EOS2_"
 "_ZNSt12_Vector_baseIiSaIiEE17_Vector_impl_dataC2Ev"
 "_ZNSt12_Vector_baseIiSaIiEE19_M_get_Tp_allocatorEv"
 "_ZNSt12_Vector_baseIiSaIiEEC2EOS1_"
 "_ZNSt12_Vector_baseIiSaIiEEC2Ev"
 "_ZNSt12_Vector_baseIiSaIiEEC2EyRKS0_"
 "_ZNSt12_Vector_baseIiSaIiEED2Ev"
 "_ZNSt12_Vector_baseIjSaIjEE11_M_allocateEy"
 "_ZNSt12_Vector_baseIjSaIjEE12_Vector_implC1EOS2_"
 "_ZNSt12_Vector_baseIjSaIjEE12_Vector_implC1Ev"
 "_ZNSt12_Vector_baseIjSaIjEE12_Vector_implD1Ev"
 "_ZNSt12_Vector_baseIjSaIjEE13_M_deallocateEPjy"
 "_ZNSt12_Vector_baseIjSaIjEE17_Vector_impl_dataC2EOS2_"
 "_ZNSt12_Vector_baseIjSaIjEE17_Vector_impl_dataC2Ev"
 "_ZNSt12_Vector_baseIjSaIjEE19_M_get_Tp_allocatorEv"
 "_ZNSt12_Vector_baseIjSaIjEEC2EOS1_"
 "_ZNSt12_Vector_baseIjSaIjEEC2Ev"
 "_ZNSt12_Vector_baseIjSaIjEED2Ev"
 "_ZNSt12_Vector_baseINSt7__cxx1112basic_stringIcSt11char_traitsIcESaIcEEESaIS5_EE11_M_allocateEy"
 "_ZNSt12_Vector_baseINSt7__cxx1112basic_stringIcSt11char_traitsIcESaIcEEESaIS5_EE12_Vector_implC1EOS8_"
 "_ZNSt12_Vector_baseINSt7__cxx1112basic_stringIcSt11char_traitsIcESaIcEEESaIS5_EE12_Vector_implC1ERKS6_"
 "_ZNSt12_Vector_baseINSt7__cxx1112basic_stringIcSt11char_traitsIcESaIcEEESaIS5_EE12_Vector_implC1Ev"
 "_ZNSt12_Vector_baseINSt7__cxx1112basic_stringIcSt11char_traitsIcESaIcEEESaIS5_EE12_Vector_implD1Ev"
 "_ZNSt12_Vector_baseINSt7__cxx1112basic_stringIcSt11char_traitsIcESaIcEEESaIS5_EE13_M_deallocateEPS5_y"
 "_ZNSt12_Vector_baseINSt7__cxx1112basic_stringIcSt11char_traitsIcESaIcEEESaIS5_EE17_M_create_storageEy"
 "_ZNSt12_Vector_baseINSt7__cxx1112basic_stringIcSt11char_traitsIcESaIcEEESaIS5_EE17_Vector_impl_dataC2EOS8_"
 "_ZNSt12_Vector_baseINSt7__cxx1112basic_stringIcSt11char_traitsIcESaIcEEESaIS5_EE17_Vector_impl_dataC2Ev"
 "_ZNSt12_Vector_baseINSt7__cxx1112basic_stringIcSt11char_traitsIcESaIcEEESaIS5_EE19_M_get_Tp_allocatorEv"
 "_ZNSt12_Vector_baseINSt7__cxx1112basic_stringIcSt11char_traitsIcESaIcEEESaIS5_EEC2EOS7_"
 "_ZNSt12_Vector_baseINSt7__cxx1112basic_stringIcSt11char_traitsIcESaIcEEESaIS5_EEC2Ev"
 "_ZNSt12_Vector_baseINSt7__cxx1112basic_stringIcSt11char_traitsIcESaIcEEESaIS5_EEC2EyRKS6_"
 "_ZNSt12_Vector_baseINSt7__cxx1112basic_stringIcSt11char_traitsIcESaIcEEESaIS5_EED2Ev"
 "_ZNSt12_Vector_baseINSt7__cxx1112regex_traitsIcE10_RegexMaskESaIS3_EE11_M_allocateEy"
 "_ZNSt12_Vector_baseINSt7__cxx1112regex_traitsIcE10_RegexMaskESaIS3_EE12_Vector_implC1EOS6_"
 "_ZNSt12_Vector_baseINSt7__cxx1112regex_traitsIcE10_RegexMaskESaIS3_EE12_Vector_implC1ERKS4_"
 "_ZNSt12_Vector_baseINSt7__cxx1112regex_traitsIcE10_RegexMaskESaIS3_EE12_Vector_implC1Ev"
 "_ZNSt12_Vector_baseINSt7__cxx1112regex_traitsIcE10_RegexMaskESaIS3_EE12_Vector_implD1Ev"
 "_ZNSt12_Vector_baseINSt7__cxx1112regex_traitsIcE10_RegexMaskESaIS3_EE13_M_deallocateEPS3_y"
 "_ZNSt12_Vector_baseINSt7__cxx1112regex_traitsIcE10_RegexMaskESaIS3_EE17_M_create_storageEy"
 "_ZNSt12_Vector_baseINSt7__cxx1112regex_traitsIcE10_RegexMaskESaIS3_EE17_Vector_impl_dataC2EOS6_"
 "_ZNSt12_Vector_baseINSt7__cxx1112regex_traitsIcE10_RegexMaskESaIS3_EE17_Vector_impl_dataC2Ev"
 "_ZNSt12_Vector_baseINSt7__cxx1112regex_traitsIcE10_RegexMaskESaIS3_EE19_M_get_Tp_allocatorEv"
 "_ZNSt12_Vector_baseINSt7__cxx1112regex_traitsIcE10_RegexMaskESaIS3_EEC2EOS5_"
 "_ZNSt12_Vector_baseINSt7__cxx1112regex_traitsIcE10_RegexMaskESaIS3_EEC2Ev"
 "_ZNSt12_Vector_baseINSt7__cxx1112regex_traitsIcE10_RegexMaskESaIS3_EEC2EyRKS4_"
 "_ZNSt12_Vector_baseINSt7__cxx1112regex_traitsIcE10_RegexMaskESaIS3_EED2Ev"
 "_ZNSt12_Vector_baseINSt7__cxx119sub_matchIN9__gnu_cxx17__normal_iteratorIPKcNS0_12basic_stringIcSt11char_traitsIcESaIcEEEEEEESaISC_EE11_M_allocateEy"
 "_ZNSt12_Vector_baseINSt7__cxx119sub_matchIN9__gnu_cxx17__normal_iteratorIPKcNS0_12basic_stringIcSt11char_traitsIcESaIcEEEEEEESaISC_EE12_Vector_implC1EOSD_OSF_"
 "_ZNSt12_Vector_baseINSt7__cxx119sub_matchIN9__gnu_cxx17__normal_iteratorIPKcNS0_12basic_stringIcSt11char_traitsIcESaIcEEEEEEESaISC_EE12_Vector_implC1EOSF_"
 "_ZNSt12_Vector_baseINSt7__cxx119sub_matchIN9__gnu_cxx17__normal_iteratorIPKcNS0_12basic_stringIcSt11char_traitsIcESaIcEEEEEEESaISC_EE12_Vector_implC1ERKSD_"
 "_ZNSt12_Vector_baseINSt7__cxx119sub_matchIN9__gnu_cxx17__normal_iteratorIPKcNS0_12basic_stringIcSt11char_traitsIcESaIcEEEEEEESaISC_EE12_Vector_implD1Ev"
 "_ZNSt12_Vector_baseINSt7__cxx119sub_matchIN9__gnu_cxx17__normal_iteratorIPKcNS0_12basic_stringIcSt11char_traitsIcESaIcEEEEEEESaISC_EE13_M_deallocateEPSC_y"
 "_ZNSt12_Vector_baseINSt7__cxx119sub_matchIN9__gnu_cxx17__normal_iteratorIPKcNS0_12basic_stringIcSt11char_traitsIcESaIcEEEEEEESaISC_EE17_M_create_storageEy"
 "_ZNSt12_Vector_baseINSt7__cxx119sub_matchIN9__gnu_cxx17__normal_iteratorIPKcNS0_12basic_stringIcSt11char_traitsIcESaIcEEEEEEESaISC_EE17_Vector_impl_data12_M_copy_dataERKSF_"
 "_ZNSt12_Vector_baseINSt7__cxx119sub_matchIN9__gnu_cxx17__normal_iteratorIPKcNS0_12basic_stringIcSt11char_traitsIcESaIcEEEEEEESaISC_EE17_Vector_impl_data12_M_swap_dataERSF_"
 "_ZNSt12_Vector_baseINSt7__cxx119sub_matchIN9__gnu_cxx17__normal_iteratorIPKcNS0_12basic_stringIcSt11char_traitsIcESaIcEEEEEEESaISC_EE17_Vector_impl_dataC1Ev"
 "_ZNSt12_Vector_baseINSt7__cxx119sub_matchIN9__gnu_cxx17__normal_iteratorIPKcNS0_12basic_stringIcSt11char_traitsIcESaIcEEEEEEESaISC_EE17_Vector_impl_dataC2EOSF_"
 "_ZNSt12_Vector_baseINSt7__cxx119sub_matchIN9__gnu_cxx17__normal_iteratorIPKcNS0_12basic_stringIcSt11char_traitsIcESaIcEEEEEEESaISC_EE17_Vector_impl_dataC2Ev"
 "_ZNSt12_Vector_baseINSt7__cxx119sub_matchIN9__gnu_cxx17__normal_iteratorIPKcNS0_12basic_stringIcSt11char_traitsIcESaIcEEEEEEESaISC_EE19_M_get_Tp_allocatorEv"
 "_ZNSt12_Vector_baseINSt7__cxx119sub_matchIN9__gnu_cxx17__normal_iteratorIPKcNS0_12basic_stringIcSt11char_traitsIcESaIcEEEEEEESaISC_EEC2EOSE_"
 "_ZNSt12_Vector_baseINSt7__cxx119sub_matchIN9__gnu_cxx17__normal_iteratorIPKcNS0_12basic_stringIcSt11char_traitsIcESaIcEEEEEEESaISC_EEC2ERKSD_"
 "_ZNSt12_Vector_baseINSt7__cxx119sub_matchIN9__gnu_cxx17__normal_iteratorIPKcNS0_12basic_stringIcSt11char_traitsIcESaIcEEEEEEESaISC_EEC2ERKSD_OSE_"
 "_ZNSt12_Vector_baseINSt7__cxx119sub_matchIN9__gnu_cxx17__normal_iteratorIPKcNS0_12basic_stringIcSt11char_traitsIcESaIcEEEEEEESaISC_EEC2EyRKSD_"
 "_ZNSt12_Vector_baseINSt7__cxx119sub_matchIN9__gnu_cxx17__normal_iteratorIPKcNS0_12basic_stringIcSt11char_traitsIcESaIcEEEEEEESaISC_EED2Ev"
 "_ZNSt12_Vector_baseINSt8__detail6_StateIcEESaIS2_EE11_M_allocateEy"
 "_ZNSt12_Vector_baseINSt8__detail6_StateIcEESaIS2_EE12_Vector_implC1Ev"
 "_ZNSt12_Vector_baseINSt8__detail6_StateIcEESaIS2_EE12_Vector_implD1Ev"
 "_ZNSt12_Vector_baseINSt8__detail6_StateIcEESaIS2_EE13_M_deallocateEPS2_y"
 "_ZNSt12_Vector_baseINSt8__detail6_StateIcEESaIS2_EE17_Vector_impl_dataC2Ev"
 "_ZNSt12_Vector_baseINSt8__detail6_StateIcEESaIS2_EE19_M_get_Tp_allocatorEv"
 "_ZNSt12_Vector_baseINSt8__detail6_StateIcEESaIS2_EEC2Ev"
 "_ZNSt12_Vector_baseINSt8__detail6_StateIcEESaIS2_EED2Ev"
 "_ZNSt12_Vector_baseIPK21llama_grammar_elementSaIS2_EE11_M_allocateEy"
 "_ZNSt12_Vector_baseIPK21llama_grammar_elementSaIS2_EE12_Vector_implC1EOS5_"
 "_ZNSt12_Vector_baseIPK21llama_grammar_elementSaIS2_EE12_Vector_implC1ERKS3_"
 "_ZNSt12_Vector_baseIPK21llama_grammar_elementSaIS2_EE12_Vector_implC1Ev"
 "_ZNSt12_Vector_baseIPK21llama_grammar_elementSaIS2_EE12_Vector_implD1Ev"
 "_ZNSt12_Vector_baseIPK21llama_grammar_elementSaIS2_EE13_M_deallocateEPS2_y"
 "_ZNSt12_Vector_baseIPK21llama_grammar_elementSaIS2_EE17_M_create_storageEy"
 "_ZNSt12_Vector_baseIPK21llama_grammar_elementSaIS2_EE17_Vector_impl_dataC2EOS5_"
 "_ZNSt12_Vector_baseIPK21llama_grammar_elementSaIS2_EE17_Vector_impl_dataC2Ev"
 "_ZNSt12_Vector_baseIPK21llama_grammar_elementSaIS2_EE19_M_get_Tp_allocatorEv"
 "_ZNSt12_Vector_baseIPK21llama_grammar_elementSaIS2_EEC2EOS4_"
 "_ZNSt12_Vector_baseIPK21llama_grammar_elementSaIS2_EEC2ERKS3_"
 "_ZNSt12_Vector_baseIPK21llama_grammar_elementSaIS2_EEC2Ev"
 "_ZNSt12_Vector_baseIPK21llama_grammar_elementSaIS2_EEC2EyRKS3_"
 "_ZNSt12_Vector_baseIPK21llama_grammar_elementSaIS2_EED2Ev"
 "_ZNSt12_Vector_baseISt4pairIccESaIS1_EE11_M_allocateEy"
 "_ZNSt12_Vector_baseISt4pairIccESaIS1_EE12_Vector_implC1EOS4_"
 "_ZNSt12_Vector_baseISt4pairIccESaIS1_EE12_Vector_implC1ERKS2_"
 "_ZNSt12_Vector_baseISt4pairIccESaIS1_EE12_Vector_implC1Ev"
 "_ZNSt12_Vector_baseISt4pairIccESaIS1_EE12_Vector_implD1Ev"
 "_ZNSt12_Vector_baseISt4pairIccESaIS1_EE13_M_deallocateEPS1_y"
 "_ZNSt12_Vector_baseISt4pairIccESaIS1_EE17_M_create_storageEy"
 "_ZNSt12_Vector_baseISt4pairIccESaIS1_EE17_Vector_impl_dataC2EOS4_"
 "_ZNSt12_Vector_baseISt4pairIccESaIS1_EE17_Vector_impl_dataC2Ev"
 "_ZNSt12_Vector_baseISt4pairIccESaIS1_EE19_M_get_Tp_allocatorEv"
 "_ZNSt12_Vector_baseISt4pairIccESaIS1_EEC2EOS3_"
 "_ZNSt12_Vector_baseISt4pairIccESaIS1_EEC2Ev"
 "_ZNSt12_Vector_baseISt4pairIccESaIS1_EEC2EyRKS2_"
 "_ZNSt12_Vector_baseISt4pairIccESaIS1_EED2Ev"
 "_ZNSt12_Vector_baseISt4pairIlSt6vectorINSt7__cxx119sub_matchIN9__gnu_cxx17__normal_iteratorIPKcNS2_12basic_stringIcSt11char_traitsIcESaIcEEEEEEESaISE_EEESaISH_EE11_M_allocateEy"
 "_ZNSt12_Vector_baseISt4pairIlSt6vectorINSt7__cxx119sub_matchIN9__gnu_cxx17__normal_iteratorIPKcNS2_12basic_stringIcSt11char_traitsIcESaIcEEEEEEESaISE_EEESaISH_EE12_Vector_implC1EOSK_"
 "_ZNSt12_Vector_baseISt4pairIlSt6vectorINSt7__cxx119sub_matchIN9__gnu_cxx17__normal_iteratorIPKcNS2_12basic_stringIcSt11char_traitsIcESaIcEEEEEEESaISE_EEESaISH_EE12_Vector_implC1Ev"
 "_ZNSt12_Vector_baseISt4pairIlSt6vectorINSt7__cxx119sub_matchIN9__gnu_cxx17__normal_iteratorIPKcNS2_12basic_stringIcSt11char_traitsIcESaIcEEEEEEESaISE_EEESaISH_EE12_Vector_implD1Ev"
 "_ZNSt12_Vector_baseISt4pairIlSt6vectorINSt7__cxx119sub_matchIN9__gnu_cxx17__normal_iteratorIPKcNS2_12basic_stringIcSt11char_traitsIcESaIcEEEEEEESaISE_EEESaISH_EE13_M_deallocateEPSH_y"
 "_ZNSt12_Vector_baseISt4pairIlSt6vectorINSt7__cxx119sub_matchIN9__gnu_cxx17__normal_iteratorIPKcNS2_12basic_stringIcSt11char_traitsIcESaIcEEEEEEESaISE_EEESaISH_EE17_Vector_impl_dataC2EOSK_"
 "_ZNSt12_Vector_baseISt4pairIlSt6vectorINSt7__cxx119sub_matchIN9__gnu_cxx17__normal_iteratorIPKcNS2_12basic_stringIcSt11char_traitsIcESaIcEEEEEEESaISE_EEESaISH_EE17_Vector_impl_dataC2Ev"
 "_ZNSt12_Vector_baseISt4pairIlSt6vectorINSt7__cxx119sub_matchIN9__gnu_cxx17__normal_iteratorIPKcNS2_12basic_stringIcSt11char_traitsIcESaIcEEEEEEESaISE_EEESaISH_EE19_M_get_Tp_allocatorEv"
 "_ZNSt12_Vector_baseISt4pairIlSt6vectorINSt7__cxx119sub_matchIN9__gnu_cxx17__normal_iteratorIPKcNS2_12basic_stringIcSt11char_traitsIcESaIcEEEEEEESaISE_EEESaISH_EEC2EOSJ_"
 "_ZNSt12_Vector_baseISt4pairIlSt6vectorINSt7__cxx119sub_matchIN9__gnu_cxx17__normal_iteratorIPKcNS2_12basic_stringIcSt11char_traitsIcESaIcEEEEEEESaISE_EEESaISH_EEC2Ev"
 "_ZNSt12_Vector_baseISt4pairIlSt6vectorINSt7__cxx119sub_matchIN9__gnu_cxx17__normal_iteratorIPKcNS2_12basic_stringIcSt11char_traitsIcESaIcEEEEEEESaISE_EEESaISH_EED2Ev"
 "_ZNSt12_Vector_baseISt4pairIN9__gnu_cxx17__normal_iteratorIPKcNSt7__cxx1112basic_stringIcSt11char_traitsIcESaIcEEEEEiESaISC_EE11_M_allocateEy"
 "_ZNSt12_Vector_baseISt4pairIN9__gnu_cxx17__normal_iteratorIPKcNSt7__cxx1112basic_stringIcSt11char_traitsIcESaIcEEEEEiESaISC_EE12_Vector_implC1ERKSD_"
 "_ZNSt12_Vector_baseISt4pairIN9__gnu_cxx17__normal_iteratorIPKcNSt7__cxx1112basic_stringIcSt11char_traitsIcESaIcEEEEEiESaISC_EE12_Vector_implD1Ev"
 "_ZNSt12_Vector_baseISt4pairIN9__gnu_cxx17__normal_iteratorIPKcNSt7__cxx1112basic_stringIcSt11char_traitsIcESaIcEEEEEiESaISC_EE13_M_deallocateEPSC_y"
 "_ZNSt12_Vector_baseISt4pairIN9__gnu_cxx17__normal_iteratorIPKcNSt7__cxx1112basic_stringIcSt11char_traitsIcESaIcEEEEEiESaISC_EE17_M_create_storageEy"
 "_ZNSt12_Vector_baseISt4pairIN9__gnu_cxx17__normal_iteratorIPKcNSt7__cxx1112basic_stringIcSt11char_traitsIcESaIcEEEEEiESaISC_EE17_Vector_impl_dataC2Ev"
 "_ZNSt12_Vector_baseISt4pairIN9__gnu_cxx17__normal_iteratorIPKcNSt7__cxx1112basic_stringIcSt11char_traitsIcESaIcEEEEEiESaISC_EE19_M_get_Tp_allocatorEv"
 "_ZNSt12_Vector_baseISt4pairIN9__gnu_cxx17__normal_iteratorIPKcNSt7__cxx1112basic_stringIcSt11char_traitsIcESaIcEEEEEiESaISC_EEC2EyRKSD_"
 "_ZNSt12_Vector_baseISt4pairIN9__gnu_cxx17__normal_iteratorIPKcNSt7__cxx1112basic_stringIcSt11char_traitsIcESaIcEEEEEiESaISC_EED2Ev"
 "_ZNSt12_Vector_baseISt4pairINSt7__cxx1112basic_stringIcSt11char_traitsIcESaIcEEES6_ESaIS7_EE11_M_allocateEy"
 "_ZNSt12_Vector_baseISt4pairINSt7__cxx1112basic_stringIcSt11char_traitsIcESaIcEEES6_ESaIS7_EE12_Vector_implC1EOSA_"
 "_ZNSt12_Vector_baseISt4pairINSt7__cxx1112basic_stringIcSt11char_traitsIcESaIcEEES6_ESaIS7_EE12_Vector_implC1ERKS8_"
 "_ZNSt12_Vector_baseISt4pairINSt7__cxx1112basic_stringIcSt11char_traitsIcESaIcEEES6_ESaIS7_EE12_Vector_implC1Ev"
 "_ZNSt12_Vector_baseISt4pairINSt7__cxx1112basic_stringIcSt11char_traitsIcESaIcEEES6_ESaIS7_EE12_Vector_implD1Ev"
 "_ZNSt12_Vector_baseISt4pairINSt7__cxx1112basic_stringIcSt11char_traitsIcESaIcEEES6_ESaIS7_EE13_M_deallocateEPS7_y"
 "_ZNSt12_Vector_baseISt4pairINSt7__cxx1112basic_stringIcSt11char_traitsIcESaIcEEES6_ESaIS7_EE17_M_create_storageEy"
 "_ZNSt12_Vector_baseISt4pairINSt7__cxx1112basic_stringIcSt11char_traitsIcESaIcEEES6_ESaIS7_EE17_Vector_impl_dataC2EOSA_"
 "_ZNSt12_Vector_baseISt4pairINSt7__cxx1112basic_stringIcSt11char_traitsIcESaIcEEES6_ESaIS7_EE17_Vector_impl_dataC2Ev"
 "_ZNSt12_Vector_baseISt4pairINSt7__cxx1112basic_stringIcSt11char_traitsIcESaIcEEES6_ESaIS7_EE19_M_get_Tp_allocatorEv"
 "_ZNSt12_Vector_baseISt4pairINSt7__cxx1112basic_stringIcSt11char_traitsIcESaIcEEES6_ESaIS7_EEC2EOS9_"
 "_ZNSt12_Vector_baseISt4pairINSt7__cxx1112basic_stringIcSt11char_traitsIcESaIcEEES6_ESaIS7_EEC2Ev"
 "_ZNSt12_Vector_baseISt4pairINSt7__cxx1112basic_stringIcSt11char_traitsIcESaIcEEES6_ESaIS7_EEC2EyRKS8_"
 "_ZNSt12_Vector_baseISt4pairINSt7__cxx1112basic_stringIcSt11char_traitsIcESaIcEEES6_ESaIS7_EED2Ev"
 "_ZNSt12_Vector_baseISt4pairISt6vectorIjSaIjEE18llama_partial_utf8ESaIS5_EE11_M_allocateEy"
 "_ZNSt12_Vector_baseISt4pairISt6vectorIjSaIjEE18llama_partial_utf8ESaIS5_EE12_Vector_implC1Ev"
 "_ZNSt12_Vector_baseISt4pairISt6vectorIjSaIjEE18llama_partial_utf8ESaIS5_EE12_Vector_implD1Ev"
 "_ZNSt12_Vector_baseISt4pairISt6vectorIjSaIjEE18llama_partial_utf8ESaIS5_EE13_M_deallocateEPS5_y"
 "_ZNSt12_Vector_baseISt4pairISt6vectorIjSaIjEE18llama_partial_utf8ESaIS5_EE17_Vector_impl_dataC2Ev"
 "_ZNSt12_Vector_baseISt4pairISt6vectorIjSaIjEE18llama_partial_utf8ESaIS5_EE19_M_get_Tp_allocatorEv"
 "_ZNSt12_Vector_baseISt4pairISt6vectorIjSaIjEE18llama_partial_utf8ESaIS5_EEC2Ev"
 "_ZNSt12_Vector_baseISt4pairISt6vectorIjSaIjEE18llama_partial_utf8ESaIS5_EED2Ev"
 "_ZNSt12_Vector_baseISt6vectorI21llama_grammar_elementSaIS1_EESaIS3_EE11_M_allocateEy"
 "_ZNSt12_Vector_baseISt6vectorI21llama_grammar_elementSaIS1_EESaIS3_EE12_Vector_implC1EOS6_"
 "_ZNSt12_Vector_baseISt6vectorI21llama_grammar_elementSaIS1_EESaIS3_EE12_Vector_implC1ERKS4_"
 "_ZNSt12_Vector_baseISt6vectorI21llama_grammar_elementSaIS1_EESaIS3_EE12_Vector_implC1Ev"
 "_ZNSt12_Vector_baseISt6vectorI21llama_grammar_elementSaIS1_EESaIS3_EE12_Vector_implD1Ev"
 "_ZNSt12_Vector_baseISt6vectorI21llama_grammar_elementSaIS1_EESaIS3_EE13_M_deallocateEPS3_y"
 "_ZNSt12_Vector_baseISt6vectorI21llama_grammar_elementSaIS1_EESaIS3_EE17_M_create_storageEy"
 "_ZNSt12_Vector_baseISt6vectorI21llama_grammar_elementSaIS1_EESaIS3_EE17_Vector_impl_dataC2EOS6_"
 "_ZNSt12_Vector_baseISt6vectorI21llama_grammar_elementSaIS1_EESaIS3_EE17_Vector_impl_dataC2Ev"
 "_ZNSt12_Vector_baseISt6vectorI21llama_grammar_elementSaIS1_EESaIS3_EE19_M_get_Tp_allocatorEv"
 "_ZNSt12_Vector_baseISt6vectorI21llama_grammar_elementSaIS1_EESaIS3_EEC2EOS5_"
 "_ZNSt12_Vector_baseISt6vectorI21llama_grammar_elementSaIS1_EESaIS3_EEC2Ev"
 "_ZNSt12_Vector_baseISt6vectorI21llama_grammar_elementSaIS1_EESaIS3_EEC2EyRKS4_"
 "_ZNSt12_Vector_baseISt6vectorI21llama_grammar_elementSaIS1_EESaIS3_EED2Ev"
 "_ZNSt12_Vector_baseISt6vectorIPK21llama_grammar_elementSaIS3_EESaIS5_EE11_M_allocateEy"
 "_ZNSt12_Vector_baseISt6vectorIPK21llama_grammar_elementSaIS3_EESaIS5_EE12_Vector_implC1EOS8_"
 "_ZNSt12_Vector_baseISt6vectorIPK21llama_grammar_elementSaIS3_EESaIS5_EE12_Vector_implC1ERKS6_"
 "_ZNSt12_Vector_baseISt6vectorIPK21llama_grammar_elementSaIS3_EESaIS5_EE12_Vector_implC1Ev"
 "_ZNSt12_Vector_baseISt6vectorIPK21llama_grammar_elementSaIS3_EESaIS5_EE12_Vector_implD1Ev"
 "_ZNSt12_Vector_baseISt6vectorIPK21llama_grammar_elementSaIS3_EESaIS5_EE13_M_deallocateEPS5_y"
 "_ZNSt12_Vector_baseISt6vectorIPK21llama_grammar_elementSaIS3_EESaIS5_EE17_M_create_storageEy"
 "_ZNSt12_Vector_baseISt6vectorIPK21llama_grammar_elementSaIS3_EESaIS5_EE17_Vector_impl_data12_M_copy_dataERKS8_"
 "_ZNSt12_Vector_baseISt6vectorIPK21llama_grammar_elementSaIS3_EESaIS5_EE17_Vector_impl_data12_M_swap_dataERS8_"
 "_ZNSt12_Vector_baseISt6vectorIPK21llama_grammar_elementSaIS3_EESaIS5_EE17_Vector_impl_dataC1Ev"
 "_ZNSt12_Vector_baseISt6vectorIPK21llama_grammar_elementSaIS3_EESaIS5_EE17_Vector_impl_dataC2EOS8_"
 "_ZNSt12_Vector_baseISt6vectorIPK21llama_grammar_elementSaIS3_EESaIS5_EE17_Vector_impl_dataC2Ev"
 "_ZNSt12_Vector_baseISt6vectorIPK21llama_grammar_elementSaIS3_EESaIS5_EE19_M_get_Tp_allocatorEv"
 "_ZNSt12_Vector_baseISt6vectorIPK21llama_grammar_elementSaIS3_EESaIS5_EEC2EOS7_"
 "_ZNSt12_Vector_baseISt6vectorIPK21llama_grammar_elementSaIS3_EESaIS5_EEC2ERKS6_"
 "_ZNSt12_Vector_baseISt6vectorIPK21llama_grammar_elementSaIS3_EESaIS5_EEC2Ev"
 "_ZNSt12_Vector_baseISt6vectorIPK21llama_grammar_elementSaIS3_EESaIS5_EEC2EyRKS6_"
 "_ZNSt12_Vector_baseISt6vectorIPK21llama_grammar_elementSaIS3_EESaIS5_EED2Ev"
 "_ZNSt12_Vector_baseIySaIyEE11_M_allocateEy"
 "_ZNSt12_Vector_baseIySaIyEE12_Vector_implC1Ev"
 "_ZNSt12_Vector_baseIySaIyEE12_Vector_implD1Ev"
 "_ZNSt12_Vector_baseIySaIyEE13_M_deallocateEPyy"
 "_ZNSt12_Vector_baseIySaIyEE17_Vector_impl_dataC2Ev"
 "_ZNSt12_Vector_baseIySaIyEE19_M_get_Tp_allocatorEv"
 "_ZNSt12_Vector_baseIySaIyEEC2Ev"
 "_ZNSt12_Vector_baseIySaIyEED2Ev"
 "_ZNSt13_Bit_iteratorC1EPmj"
 "_ZNSt13_Bit_iteratorC1Ev"
 "_ZNSt13_Bit_iteratorpLEx"
 "_ZNSt13_Bvector_baseISaIbEE11_M_allocateEy"
 "_ZNSt13_Bvector_baseISaIbEE13_Bvector_implC1ERKSaImE"
 "_ZNSt13_Bvector_baseISaIbEE13_Bvector_implD1Ev"
 "_ZNSt13_Bvector_baseISaIbEE13_M_deallocateEv"
 "_ZNSt13_Bvector_baseISaIbEE18_Bvector_impl_data8_M_resetEv"
 "_ZNSt13_Bvector_baseISaIbEE18_Bvector_impl_dataC1Ev"
 "_ZNSt13_Bvector_baseISaIbEE18_Bvector_impl_dataC2Ev"
 "_ZNSt13_Bvector_baseISaIbEE8_S_nwordEy"
 "_ZNSt13_Bvector_baseISaIbEEC2ERKS0_"
 "_ZNSt13_Bvector_baseISaIbEED2Ev"
 "_ZNSt13_Rb_tree_nodeISt4pairIKjNSt7__cxx1112basic_stringIcSt11char_traitsIcESaIcEEEEE9_M_valptrEv"
 "_ZNSt13_Rb_tree_nodeISt4pairIKllEE9_M_valptrEv"
 "_ZNSt13_Rb_tree_nodeISt4pairIKNSt7__cxx1112basic_stringIcSt11char_traitsIcESaIcEEEjEE9_M_valptrEv"
 "_ZNSt13move_iteratorIP21llama_grammar_elementEC1ES1_"
 "_ZNSt14__shared_countILN9__gnu_cxx12_Lock_policyE2EE7_M_swapERS2_"
 "_ZNSt14__shared_countILN9__gnu_cxx12_Lock_policyE2EEC1ERKS2_"
 "_ZNSt14__shared_countILN9__gnu_cxx12_Lock_policyE2EEC1Ev"
 "_ZNSt14__shared_countILN9__gnu_cxx12_Lock_policyE2EEC1INSt8__detail4_NFAINSt7__cxx1112regex_traitsIcEEEESaIvEJRKSt6localeRNSt15regex_constants18syntax_option_typeEEEERPT_St20_Sp_alloc_shared_tagIT0_EDpOT1_"
 "_ZNSt14__shared_countILN9__gnu_cxx12_Lock_policyE2EED1Ev"
 "_ZNSt14_Bit_referenceaSEb"
 "_ZNSt14_Bit_referenceC1EPmm"
 "_ZNSt14_Function_base13_Base_managerINSt8__detail11_AnyMatcherINSt7__cxx1112regex_traitsIcEELb0ELb0ELb0EEEE10_M_destroyERSt9_Any_dataSt17integral_constantIbLb1EE"
 "_ZNSt14_Function_base13_Base_managerINSt8__detail11_AnyMatcherINSt7__cxx1112regex_traitsIcEELb0ELb0ELb0EEEE10_M_managerERSt9_Any_dataRKS8_St18_Manager_operation"
 "_ZNSt14_Function_base13_Base_managerINSt8__detail11_AnyMatcherINSt7__cxx1112regex_traitsIcEELb0ELb0ELb0EEEE14_M_get_pointerERKSt9_Any_data"
 "_ZNSt14_Function_base13_Base_managerINSt8__detail11_AnyMatcherINSt7__cxx1112regex_traitsIcEELb0ELb0ELb0EEEE15_M_init_functorIRKS6_EEvRSt9_Any_dataOT_"
 "_ZNSt14_Function_base13_Base_managerINSt8__detail11_AnyMatcherINSt7__cxx1112regex_traitsIcEELb0ELb0ELb0EEEE15_M_init_functorIS6_EEvRSt9_Any_dataOT_"
 "_ZNSt14_Function_base13_Base_managerINSt8__detail11_AnyMatcherINSt7__cxx1112regex_traitsIcEELb0ELb0ELb0EEEE21_M_not_empty_functionIS6_EEbRKT_"
 "_ZNSt14_Function_base13_Base_managerINSt8__detail11_AnyMatcherINSt7__cxx1112regex_traitsIcEELb0ELb0ELb0EEEE9_M_createIRKS6_EEvRSt9_Any_dataOT_St17integral_constantIbLb1EE"
 "_ZNSt14_Function_base13_Base_managerINSt8__detail11_AnyMatcherINSt7__cxx1112regex_traitsIcEELb0ELb0ELb0EEEE9_M_createIS6_EEvRSt9_Any_dataOT_St17integral_constantIbLb1EE"
 "_ZNSt14_Function_base13_Base_managerINSt8__detail11_AnyMatcherINSt7__cxx1112regex_traitsIcEELb0ELb0ELb1EEEE10_M_destroyERSt9_Any_dataSt17integral_constantIbLb1EE"
 "_ZNSt14_Function_base13_Base_managerINSt8__detail11_AnyMatcherINSt7__cxx1112regex_traitsIcEELb0ELb0ELb1EEEE10_M_managerERSt9_Any_dataRKS8_St18_Manager_operation"
 "_ZNSt14_Function_base13_Base_managerINSt8__detail11_AnyMatcherINSt7__cxx1112regex_traitsIcEELb0ELb0ELb1EEEE14_M_get_pointerERKSt9_Any_data"
 "_ZNSt14_Function_base13_Base_managerINSt8__detail11_AnyMatcherINSt7__cxx1112regex_traitsIcEELb0ELb0ELb1EEEE15_M_init_functorIRKS6_EEvRSt9_Any_dataOT_"
 "_ZNSt14_Function_base13_Base_managerINSt8__detail11_AnyMatcherINSt7__cxx1112regex_traitsIcEELb0ELb0ELb1EEEE15_M_init_functorIS6_EEvRSt9_Any_dataOT_"
 "_ZNSt14_Function_base13_Base_managerINSt8__detail11_AnyMatcherINSt7__cxx1112regex_traitsIcEELb0ELb0ELb1EEEE21_M_not_empty_functionIS6_EEbRKT_"
 "_ZNSt14_Function_base13_Base_managerINSt8__detail11_AnyMatcherINSt7__cxx1112regex_traitsIcEELb0ELb0ELb1EEEE9_M_createIRKS6_EEvRSt9_Any_dataOT_St17integral_constantIbLb1EE"
 "_ZNSt14_Function_base13_Base_managerINSt8__detail11_AnyMatcherINSt7__cxx1112regex_traitsIcEELb0ELb0ELb1EEEE9_M_createIS6_EEvRSt9_Any_dataOT_St17integral_constantIbLb1EE"
 "_ZNSt14_Function_base13_Base_managerINSt8__detail11_AnyMatcherINSt7__cxx1112regex_traitsIcEELb0ELb1ELb0EEEE10_M_destroyERSt9_Any_dataSt17integral_constantIbLb1EE"
 "_ZNSt14_Function_base13_Base_managerINSt8__detail11_AnyMatcherINSt7__cxx1112regex_traitsIcEELb0ELb1ELb0EEEE10_M_managerERSt9_Any_dataRKS8_St18_Manager_operation"
 "_ZNSt14_Function_base13_Base_managerINSt8__detail11_AnyMatcherINSt7__cxx1112regex_traitsIcEELb0ELb1ELb0EEEE14_M_get_pointerERKSt9_Any_data"
 "_ZNSt14_Function_base13_Base_managerINSt8__detail11_AnyMatcherINSt7__cxx1112regex_traitsIcEELb0ELb1ELb0EEEE15_M_init_functorIRKS6_EEvRSt9_Any_dataOT_"
 "_ZNSt14_Function_base13_Base_managerINSt8__detail11_AnyMatcherINSt7__cxx1112regex_traitsIcEELb0ELb1ELb0EEEE15_M_init_functorIS6_EEvRSt9_Any_dataOT_"
 "_ZNSt14_Function_base13_Base_managerINSt8__detail11_AnyMatcherINSt7__cxx1112regex_traitsIcEELb0ELb1ELb0EEEE21_M_not_empty_functionIS6_EEbRKT_"
 "_ZNSt14_Function_base13_Base_managerINSt8__detail11_AnyMatcherINSt7__cxx1112regex_traitsIcEELb0ELb1ELb0EEEE9_M_createIRKS6_EEvRSt9_Any_dataOT_St17integral_constantIbLb1EE"
 "_ZNSt14_Function_base13_Base_managerINSt8__detail11_AnyMatcherINSt7__cxx1112regex_traitsIcEELb0ELb1ELb0EEEE9_M_createIS6_EEvRSt9_Any_dataOT_St17integral_constantIbLb1EE"
 "_ZNSt14_Function_base13_Base_managerINSt8__detail11_AnyMatcherINSt7__cxx1112regex_traitsIcEELb0ELb1ELb1EEEE10_M_destroyERSt9_Any_dataSt17integral_constantIbLb1EE"
 "_ZNSt14_Function_base13_Base_managerINSt8__detail11_AnyMatcherINSt7__cxx1112regex_traitsIcEELb0ELb1ELb1EEEE10_M_managerERSt9_Any_dataRKS8_St18_Manager_operation"
 "_ZNSt14_Function_base13_Base_managerINSt8__detail11_AnyMatcherINSt7__cxx1112regex_traitsIcEELb0ELb1ELb1EEEE14_M_get_pointerERKSt9_Any_data"
 "_ZNSt14_Function_base13_Base_managerINSt8__detail11_AnyMatcherINSt7__cxx1112regex_traitsIcEELb0ELb1ELb1EEEE15_M_init_functorIRKS6_EEvRSt9_Any_dataOT_"
 "_ZNSt14_Function_base13_Base_managerINSt8__detail11_AnyMatcherINSt7__cxx1112regex_traitsIcEELb0ELb1ELb1EEEE15_M_init_functorIS6_EEvRSt9_Any_dataOT_"
 "_ZNSt14_Function_base13_Base_managerINSt8__detail11_AnyMatcherINSt7__cxx1112regex_traitsIcEELb0ELb1ELb1EEEE21_M_not_empty_functionIS6_EEbRKT_"
 "_ZNSt14_Function_base13_Base_managerINSt8__detail11_AnyMatcherINSt7__cxx1112regex_traitsIcEELb0ELb1ELb1EEEE9_M_createIRKS6_EEvRSt9_Any_dataOT_St17integral_constantIbLb1EE"
 "_ZNSt14_Function_base13_Base_managerINSt8__detail11_AnyMatcherINSt7__cxx1112regex_traitsIcEELb0ELb1ELb1EEEE9_M_createIS6_EEvRSt9_Any_dataOT_St17integral_constantIbLb1EE"
 "_ZNSt14_Function_base13_Base_managerINSt8__detail11_AnyMatcherINSt7__cxx1112regex_traitsIcEELb1ELb0ELb0EEEE10_M_destroyERSt9_Any_dataSt17integral_constantIbLb1EE"
 "_ZNSt14_Function_base13_Base_managerINSt8__detail11_AnyMatcherINSt7__cxx1112regex_traitsIcEELb1ELb0ELb0EEEE10_M_managerERSt9_Any_dataRKS8_St18_Manager_operation"
 "_ZNSt14_Function_base13_Base_managerINSt8__detail11_AnyMatcherINSt7__cxx1112regex_traitsIcEELb1ELb0ELb0EEEE14_M_get_pointerERKSt9_Any_data"
 "_ZNSt14_Function_base13_Base_managerINSt8__detail11_AnyMatcherINSt7__cxx1112regex_traitsIcEELb1ELb0ELb0EEEE15_M_init_functorIRKS6_EEvRSt9_Any_dataOT_"
 "_ZNSt14_Function_base13_Base_managerINSt8__detail11_AnyMatcherINSt7__cxx1112regex_traitsIcEELb1ELb0ELb0EEEE15_M_init_functorIS6_EEvRSt9_Any_dataOT_"
 "_ZNSt14_Function_base13_Base_managerINSt8__detail11_AnyMatcherINSt7__cxx1112regex_traitsIcEELb1ELb0ELb0EEEE21_M_not_empty_functionIS6_EEbRKT_"
 "_ZNSt14_Function_base13_Base_managerINSt8__detail11_AnyMatcherINSt7__cxx1112regex_traitsIcEELb1ELb0ELb0EEEE9_M_createIRKS6_EEvRSt9_Any_dataOT_St17integral_constantIbLb1EE"
 "_ZNSt14_Function_base13_Base_managerINSt8__detail11_AnyMatcherINSt7__cxx1112regex_traitsIcEELb1ELb0ELb0EEEE9_M_createIS6_EEvRSt9_Any_dataOT_St17integral_constantIbLb1EE"
 "_ZNSt14_Function_base13_Base_managerINSt8__detail11_AnyMatcherINSt7__cxx1112regex_traitsIcEELb1ELb0ELb1EEEE10_M_destroyERSt9_Any_dataSt17integral_constantIbLb1EE"
 "_ZNSt14_Function_base13_Base_managerINSt8__detail11_AnyMatcherINSt7__cxx1112regex_traitsIcEELb1ELb0ELb1EEEE10_M_managerERSt9_Any_dataRKS8_St18_Manager_operation"
 "_ZNSt14_Function_base13_Base_managerINSt8__detail11_AnyMatcherINSt7__cxx1112regex_traitsIcEELb1ELb0ELb1EEEE14_M_get_pointerERKSt9_Any_data"
 "_ZNSt14_Function_base13_Base_managerINSt8__detail11_AnyMatcherINSt7__cxx1112regex_traitsIcEELb1ELb0ELb1EEEE15_M_init_functorIRKS6_EEvRSt9_Any_dataOT_"
 "_ZNSt14_Function_base13_Base_managerINSt8__detail11_AnyMatcherINSt7__cxx1112regex_traitsIcEELb1ELb0ELb1EEEE15_M_init_functorIS6_EEvRSt9_Any_dataOT_"
 "_ZNSt14_Function_base13_Base_managerINSt8__detail11_AnyMatcherINSt7__cxx1112regex_traitsIcEELb1ELb0ELb1EEEE21_M_not_empty_functionIS6_EEbRKT_"
 "_ZNSt14_Function_base13_Base_managerINSt8__detail11_AnyMatcherINSt7__cxx1112regex_traitsIcEELb1ELb0ELb1EEEE9_M_createIRKS6_EEvRSt9_Any_dataOT_St17integral_constantIbLb1EE"
 "_ZNSt14_Function_base13_Base_managerINSt8__detail11_AnyMatcherINSt7__cxx1112regex_traitsIcEELb1ELb0ELb1EEEE9_M_createIS6_EEvRSt9_Any_dataOT_St17integral_constantIbLb1EE"
 "_ZNSt14_Function_base13_Base_managerINSt8__detail11_AnyMatcherINSt7__cxx1112regex_traitsIcEELb1ELb1ELb0EEEE10_M_destroyERSt9_Any_dataSt17integral_constantIbLb1EE"
 "_ZNSt14_Function_base13_Base_managerINSt8__detail11_AnyMatcherINSt7__cxx1112regex_traitsIcEELb1ELb1ELb0EEEE10_M_managerERSt9_Any_dataRKS8_St18_Manager_operation"
 "_ZNSt14_Function_base13_Base_managerINSt8__detail11_AnyMatcherINSt7__cxx1112regex_traitsIcEELb1ELb1ELb0EEEE14_M_get_pointerERKSt9_Any_data"
 "_ZNSt14_Function_base13_Base_managerINSt8__detail11_AnyMatcherINSt7__cxx1112regex_traitsIcEELb1ELb1ELb0EEEE15_M_init_functorIRKS6_EEvRSt9_Any_dataOT_"
 "_ZNSt14_Function_base13_Base_managerINSt8__detail11_AnyMatcherINSt7__cxx1112regex_traitsIcEELb1ELb1ELb0EEEE15_M_init_functorIS6_EEvRSt9_Any_dataOT_"
 "_ZNSt14_Function_base13_Base_managerINSt8__detail11_AnyMatcherINSt7__cxx1112regex_traitsIcEELb1ELb1ELb0EEEE21_M_not_empty_functionIS6_EEbRKT_"
 "_ZNSt14_Function_base13_Base_managerINSt8__detail11_AnyMatcherINSt7__cxx1112regex_traitsIcEELb1ELb1ELb0EEEE9_M_createIRKS6_EEvRSt9_Any_dataOT_St17integral_constantIbLb1EE"
 "_ZNSt14_Function_base13_Base_managerINSt8__detail11_AnyMatcherINSt7__cxx1112regex_traitsIcEELb1ELb1ELb0EEEE9_M_createIS6_EEvRSt9_Any_dataOT_St17integral_constantIbLb1EE"
 "_ZNSt14_Function_base13_Base_managerINSt8__detail11_AnyMatcherINSt7__cxx1112regex_traitsIcEELb1ELb1ELb1EEEE10_M_destroyERSt9_Any_dataSt17integral_constantIbLb1EE"
 "_ZNSt14_Function_base13_Base_managerINSt8__detail11_AnyMatcherINSt7__cxx1112regex_traitsIcEELb1ELb1ELb1EEEE10_M_managerERSt9_Any_dataRKS8_St18_Manager_operation"
 "_ZNSt14_Function_base13_Base_managerINSt8__detail11_AnyMatcherINSt7__cxx1112regex_traitsIcEELb1ELb1ELb1EEEE14_M_get_pointerERKSt9_Any_data"
 "_ZNSt14_Function_base13_Base_managerINSt8__detail11_AnyMatcherINSt7__cxx1112regex_traitsIcEELb1ELb1ELb1EEEE15_M_init_functorIRKS6_EEvRSt9_Any_dataOT_"
 "_ZNSt14_Function_base13_Base_managerINSt8__detail11_AnyMatcherINSt7__cxx1112regex_traitsIcEELb1ELb1ELb1EEEE15_M_init_functorIS6_EEvRSt9_Any_dataOT_"
 "_ZNSt14_Function_base13_Base_managerINSt8__detail11_AnyMatcherINSt7__cxx1112regex_traitsIcEELb1ELb1ELb1EEEE21_M_not_empty_functionIS6_EEbRKT_"
 "_ZNSt14_Function_base13_Base_managerINSt8__detail11_AnyMatcherINSt7__cxx1112regex_traitsIcEELb1ELb1ELb1EEEE9_M_createIRKS6_EEvRSt9_Any_dataOT_St17integral_constantIbLb1EE"
 "_ZNSt14_Function_base13_Base_managerINSt8__detail11_AnyMatcherINSt7__cxx1112regex_traitsIcEELb1ELb1ELb1EEEE9_M_createIS6_EEvRSt9_Any_dataOT_St17integral_constantIbLb1EE"
 "_ZNSt14_Function_base13_Base_managerINSt8__detail12_CharMatcherINSt7__cxx1112regex_traitsIcEELb0ELb0EEEE10_M_destroyERSt9_Any_dataSt17integral_constantIbLb1EE"
 "_ZNSt14_Function_base13_Base_managerINSt8__detail12_CharMatcherINSt7__cxx1112regex_traitsIcEELb0ELb0EEEE10_M_managerERSt9_Any_dataRKS8_St18_Manager_operation"
 "_ZNSt14_Function_base13_Base_managerINSt8__detail12_CharMatcherINSt7__cxx1112regex_traitsIcEELb0ELb0EEEE14_M_get_pointerERKSt9_Any_data"
 "_ZNSt14_Function_base13_Base_managerINSt8__detail12_CharMatcherINSt7__cxx1112regex_traitsIcEELb0ELb0EEEE15_M_init_functorIRKS6_EEvRSt9_Any_dataOT_"
 "_ZNSt14_Function_base13_Base_managerINSt8__detail12_CharMatcherINSt7__cxx1112regex_traitsIcEELb0ELb0EEEE15_M_init_functorIS6_EEvRSt9_Any_dataOT_"
 "_ZNSt14_Function_base13_Base_managerINSt8__detail12_CharMatcherINSt7__cxx1112regex_traitsIcEELb0ELb0EEEE21_M_not_empty_functionIS6_EEbRKT_"
 "_ZNSt14_Function_base13_Base_managerINSt8__detail12_CharMatcherINSt7__cxx1112regex_traitsIcEELb0ELb0EEEE9_M_createIRKS6_EEvRSt9_Any_dataOT_St17integral_constantIbLb1EE"
 "_ZNSt14_Function_base13_Base_managerINSt8__detail12_CharMatcherINSt7__cxx1112regex_traitsIcEELb0ELb0EEEE9_M_createIS6_EEvRSt9_Any_dataOT_St17integral_constantIbLb1EE"
 "_ZNSt14_Function_base13_Base_managerINSt8__detail12_CharMatcherINSt7__cxx1112regex_traitsIcEELb0ELb1EEEE10_M_destroyERSt9_Any_dataSt17integral_constantIbLb1EE"
 "_ZNSt14_Function_base13_Base_managerINSt8__detail12_CharMatcherINSt7__cxx1112regex_traitsIcEELb0ELb1EEEE10_M_managerERSt9_Any_dataRKS8_St18_Manager_operation"
 "_ZNSt14_Function_base13_Base_managerINSt8__detail12_CharMatcherINSt7__cxx1112regex_traitsIcEELb0ELb1EEEE14_M_get_pointerERKSt9_Any_data"
 "_ZNSt14_Function_base13_Base_managerINSt8__detail12_CharMatcherINSt7__cxx1112regex_traitsIcEELb0ELb1EEEE15_M_init_functorIRKS6_EEvRSt9_Any_dataOT_"
 "_ZNSt14_Function_base13_Base_managerINSt8__detail12_CharMatcherINSt7__cxx1112regex_traitsIcEELb0ELb1EEEE15_M_init_functorIS6_EEvRSt9_Any_dataOT_"
 "_ZNSt14_Function_base13_Base_managerINSt8__detail12_CharMatcherINSt7__cxx1112regex_traitsIcEELb0ELb1EEEE21_M_not_empty_functionIS6_EEbRKT_"
 "_ZNSt14_Function_base13_Base_managerINSt8__detail12_CharMatcherINSt7__cxx1112regex_traitsIcEELb0ELb1EEEE9_M_createIRKS6_EEvRSt9_Any_dataOT_St17integral_constantIbLb1EE"
 "_ZNSt14_Function_base13_Base_managerINSt8__detail12_CharMatcherINSt7__cxx1112regex_traitsIcEELb0ELb1EEEE9_M_createIS6_EEvRSt9_Any_dataOT_St17integral_constantIbLb1EE"
 "_ZNSt14_Function_base13_Base_managerINSt8__detail12_CharMatcherINSt7__cxx1112regex_traitsIcEELb1ELb0EEEE10_M_destroyERSt9_Any_dataSt17integral_constantIbLb1EE"
 "_ZNSt14_Function_base13_Base_managerINSt8__detail12_CharMatcherINSt7__cxx1112regex_traitsIcEELb1ELb0EEEE10_M_managerERSt9_Any_dataRKS8_St18_Manager_operation"
 "_ZNSt14_Function_base13_Base_managerINSt8__detail12_CharMatcherINSt7__cxx1112regex_traitsIcEELb1ELb0EEEE14_M_get_pointerERKSt9_Any_data"
 "_ZNSt14_Function_base13_Base_managerINSt8__detail12_CharMatcherINSt7__cxx1112regex_traitsIcEELb1ELb0EEEE15_M_init_functorIRKS6_EEvRSt9_Any_dataOT_"
 "_ZNSt14_Function_base13_Base_managerINSt8__detail12_CharMatcherINSt7__cxx1112regex_traitsIcEELb1ELb0EEEE15_M_init_functorIS6_EEvRSt9_Any_dataOT_"
 "_ZNSt14_Function_base13_Base_managerINSt8__detail12_CharMatcherINSt7__cxx1112regex_traitsIcEELb1ELb0EEEE21_M_not_empty_functionIS6_EEbRKT_"
 "_ZNSt14_Function_base13_Base_managerINSt8__detail12_CharMatcherINSt7__cxx1112regex_traitsIcEELb1ELb0EEEE9_M_createIRKS6_EEvRSt9_Any_dataOT_St17integral_constantIbLb1EE"
 "_ZNSt14_Function_base13_Base_managerINSt8__detail12_CharMatcherINSt7__cxx1112regex_traitsIcEELb1ELb0EEEE9_M_createIS6_EEvRSt9_Any_dataOT_St17integral_constantIbLb1EE"
 "_ZNSt14_Function_base13_Base_managerINSt8__detail12_CharMatcherINSt7__cxx1112regex_traitsIcEELb1ELb1EEEE10_M_destroyERSt9_Any_dataSt17integral_constantIbLb1EE"
 "_ZNSt14_Function_base13_Base_managerINSt8__detail12_CharMatcherINSt7__cxx1112regex_traitsIcEELb1ELb1EEEE10_M_managerERSt9_Any_dataRKS8_St18_Manager_operation"
 "_ZNSt14_Function_base13_Base_managerINSt8__detail12_CharMatcherINSt7__cxx1112regex_traitsIcEELb1ELb1EEEE14_M_get_pointerERKSt9_Any_data"
 "_ZNSt14_Function_base13_Base_managerINSt8__detail12_CharMatcherINSt7__cxx1112regex_traitsIcEELb1ELb1EEEE15_M_init_functorIRKS6_EEvRSt9_Any_dataOT_"
 "_ZNSt14_Function_base13_Base_managerINSt8__detail12_CharMatcherINSt7__cxx1112regex_traitsIcEELb1ELb1EEEE15_M_init_functorIS6_EEvRSt9_Any_dataOT_"
 "_ZNSt14_Function_base13_Base_managerINSt8__detail12_CharMatcherINSt7__cxx1112regex_traitsIcEELb1ELb1EEEE21_M_not_empty_functionIS6_EEbRKT_"
 "_ZNSt14_Function_base13_Base_managerINSt8__detail12_CharMatcherINSt7__cxx1112regex_traitsIcEELb1ELb1EEEE9_M_createIRKS6_EEvRSt9_Any_dataOT_St17integral_constantIbLb1EE"
 "_ZNSt14_Function_base13_Base_managerINSt8__detail12_CharMatcherINSt7__cxx1112regex_traitsIcEELb1ELb1EEEE9_M_createIS6_EEvRSt9_Any_dataOT_St17integral_constantIbLb1EE"
 "_ZNSt14_Function_base13_Base_managerINSt8__detail15_BracketMatcherINSt7__cxx1112regex_traitsIcEELb0ELb0EEEE10_M_destroyERSt9_Any_dataSt17integral_constantIbLb0EE"
 "_ZNSt14_Function_base13_Base_managerINSt8__detail15_BracketMatcherINSt7__cxx1112regex_traitsIcEELb0ELb0EEEE10_M_managerERSt9_Any_dataRKS8_St18_Manager_operation"
 "_ZNSt14_Function_base13_Base_managerINSt8__detail15_BracketMatcherINSt7__cxx1112regex_traitsIcEELb0ELb0EEEE14_M_get_pointerERKSt9_Any_data"
 "_ZNSt14_Function_base13_Base_managerINSt8__detail15_BracketMatcherINSt7__cxx1112regex_traitsIcEELb0ELb0EEEE15_M_init_functorIRKS6_EEvRSt9_Any_dataOT_"
 "_ZNSt14_Function_base13_Base_managerINSt8__detail15_BracketMatcherINSt7__cxx1112regex_traitsIcEELb0ELb0EEEE15_M_init_functorIS6_EEvRSt9_Any_dataOT_"
 "_ZNSt14_Function_base13_Base_managerINSt8__detail15_BracketMatcherINSt7__cxx1112regex_traitsIcEELb0ELb0EEEE21_M_not_empty_functionIS6_EEbRKT_"
 "_ZNSt14_Function_base13_Base_managerINSt8__detail15_BracketMatcherINSt7__cxx1112regex_traitsIcEELb0ELb0EEEE9_M_createIRKS6_EEvRSt9_Any_dataOT_St17integral_constantIbLb0EE"
 "_ZNSt14_Function_base13_Base_managerINSt8__detail15_BracketMatcherINSt7__cxx1112regex_traitsIcEELb0ELb0EEEE9_M_createIS6_EEvRSt9_Any_dataOT_St17integral_constantIbLb0EE"
 "_ZNSt14_Function_base13_Base_managerINSt8__detail15_BracketMatcherINSt7__cxx1112regex_traitsIcEELb0ELb1EEEE10_M_destroyERSt9_Any_dataSt17integral_constantIbLb0EE"
 "_ZNSt14_Function_base13_Base_managerINSt8__detail15_BracketMatcherINSt7__cxx1112regex_traitsIcEELb0ELb1EEEE10_M_managerERSt9_Any_dataRKS8_St18_Manager_operation"
 "_ZNSt14_Function_base13_Base_managerINSt8__detail15_BracketMatcherINSt7__cxx1112regex_traitsIcEELb0ELb1EEEE14_M_get_pointerERKSt9_Any_data"
 "_ZNSt14_Function_base13_Base_managerINSt8__detail15_BracketMatcherINSt7__cxx1112regex_traitsIcEELb0ELb1EEEE15_M_init_functorIRKS6_EEvRSt9_Any_dataOT_"
 "_ZNSt14_Function_base13_Base_managerINSt8__detail15_BracketMatcherINSt7__cxx1112regex_traitsIcEELb0ELb1EEEE15_M_init_functorIS6_EEvRSt9_Any_dataOT_"
 "_ZNSt14_Function_base13_Base_managerINSt8__detail15_BracketMatcherINSt7__cxx1112regex_traitsIcEELb0ELb1EEEE21_M_not_empty_functionIS6_EEbRKT_"
 "_ZNSt14_Function_base13_Base_managerINSt8__detail15_BracketMatcherINSt7__cxx1112regex_traitsIcEELb0ELb1EEEE9_M_createIRKS6_EEvRSt9_Any_dataOT_St17integral_constantIbLb0EE"
 "_ZNSt14_Function_base13_Base_managerINSt8__detail15_BracketMatcherINSt7__cxx1112regex_traitsIcEELb0ELb1EEEE9_M_createIS6_EEvRSt9_Any_dataOT_St17integral_constantIbLb0EE"
 "_ZNSt14_Function_base13_Base_managerINSt8__detail15_BracketMatcherINSt7__cxx1112regex_traitsIcEELb1ELb0EEEE10_M_destroyERSt9_Any_dataSt17integral_constantIbLb0EE"
 "_ZNSt14_Function_base13_Base_managerINSt8__detail15_BracketMatcherINSt7__cxx1112regex_traitsIcEELb1ELb0EEEE10_M_managerERSt9_Any_dataRKS8_St18_Manager_operation"
 "_ZNSt14_Function_base13_Base_managerINSt8__detail15_BracketMatcherINSt7__cxx1112regex_traitsIcEELb1ELb0EEEE14_M_get_pointerERKSt9_Any_data"
 "_ZNSt14_Function_base13_Base_managerINSt8__detail15_BracketMatcherINSt7__cxx1112regex_traitsIcEELb1ELb0EEEE15_M_init_functorIRKS6_EEvRSt9_Any_dataOT_"
 "_ZNSt14_Function_base13_Base_managerINSt8__detail15_BracketMatcherINSt7__cxx1112regex_traitsIcEELb1ELb0EEEE15_M_init_functorIS6_EEvRSt9_Any_dataOT_"
 "_ZNSt14_Function_base13_Base_managerINSt8__detail15_BracketMatcherINSt7__cxx1112regex_traitsIcEELb1ELb0EEEE21_M_not_empty_functionIS6_EEbRKT_"
 "_ZNSt14_Function_base13_Base_managerINSt8__detail15_BracketMatcherINSt7__cxx1112regex_traitsIcEELb1ELb0EEEE9_M_createIRKS6_EEvRSt9_Any_dataOT_St17integral_constantIbLb0EE"
 "_ZNSt14_Function_base13_Base_managerINSt8__detail15_BracketMatcherINSt7__cxx1112regex_traitsIcEELb1ELb0EEEE9_M_createIS6_EEvRSt9_Any_dataOT_St17integral_constantIbLb0EE"
 "_ZNSt14_Function_base13_Base_managerINSt8__detail15_BracketMatcherINSt7__cxx1112regex_traitsIcEELb1ELb1EEEE10_M_destroyERSt9_Any_dataSt17integral_constantIbLb0EE"
 "_ZNSt14_Function_base13_Base_managerINSt8__detail15_BracketMatcherINSt7__cxx1112regex_traitsIcEELb1ELb1EEEE10_M_managerERSt9_Any_dataRKS8_St18_Manager_operation"
 "_ZNSt14_Function_base13_Base_managerINSt8__detail15_BracketMatcherINSt7__cxx1112regex_traitsIcEELb1ELb1EEEE14_M_get_pointerERKSt9_Any_data"
 "_ZNSt14_Function_base13_Base_managerINSt8__detail15_BracketMatcherINSt7__cxx1112regex_traitsIcEELb1ELb1EEEE15_M_init_functorIRKS6_EEvRSt9_Any_dataOT_"
 "_ZNSt14_Function_base13_Base_managerINSt8__detail15_BracketMatcherINSt7__cxx1112regex_traitsIcEELb1ELb1EEEE15_M_init_functorIS6_EEvRSt9_Any_dataOT_"
 "_ZNSt14_Function_base13_Base_managerINSt8__detail15_BracketMatcherINSt7__cxx1112regex_traitsIcEELb1ELb1EEEE21_M_not_empty_functionIS6_EEbRKT_"
 "_ZNSt14_Function_base13_Base_managerINSt8__detail15_BracketMatcherINSt7__cxx1112regex_traitsIcEELb1ELb1EEEE9_M_createIRKS6_EEvRSt9_Any_dataOT_St17integral_constantIbLb0EE"
 "_ZNSt14_Function_base13_Base_managerINSt8__detail15_BracketMatcherINSt7__cxx1112regex_traitsIcEELb1ELb1EEEE9_M_createIS6_EEvRSt9_Any_dataOT_St17integral_constantIbLb0EE"
 "_ZNSt14_Function_baseC2Ev"
 "_ZNSt14_Function_baseD2Ev"
 "_ZNSt14_Sp_ebo_helperILi0ESaIvELb1EE6_S_getERS1_"
 "_ZNSt14_Sp_ebo_helperILi0ESaIvELb1EEC2ERKS0_"
 "_ZNSt15__allocated_ptrISaISt23_Sp_counted_ptr_inplaceINSt8__detail4_NFAINSt7__cxx1112regex_traitsIcEEEESaIvELN9__gnu_cxx12_Lock_policyE2EEEE3getEv"
 "_ZNSt15__allocated_ptrISaISt23_Sp_counted_ptr_inplaceINSt8__detail4_NFAINSt7__cxx1112regex_traitsIcEEEESaIvELN9__gnu_cxx12_Lock_policyE2EEEEaSEDn"
 "_ZNSt15__allocated_ptrISaISt23_Sp_counted_ptr_inplaceINSt8__detail4_NFAINSt7__cxx1112regex_traitsIcEEEESaIvELN9__gnu_cxx12_Lock_policyE2EEEEC1ERSB_PSA_"
 "_ZNSt15__allocated_ptrISaISt23_Sp_counted_ptr_inplaceINSt8__detail4_NFAINSt7__cxx1112regex_traitsIcEEEESaIvELN9__gnu_cxx12_Lock_policyE2EEEED1Ev"
 "_ZNSt15__new_allocatorI21llama_grammar_elementE10deallocateEPS0_y"
 "_ZNSt15__new_allocatorI21llama_grammar_elementE8allocateEyPKv"
 "_ZNSt15__new_allocatorI21llama_grammar_elementED2Ev"
 "_ZNSt15__new_allocatorI23llama_grammar_candidateE10deallocateEPS0_y"
 "_ZNSt15__new_allocatorI23llama_grammar_candidateE8allocateEyPKv"
 "_ZNSt15__new_allocatorI23llama_grammar_candidateED2Ev"
 "_ZNSt15__new_allocatorI29llama_grammar_trigger_patternE10deallocateEPS0_y"
 "_ZNSt15__new_allocatorI29llama_grammar_trigger_patternE8allocateEyPKv"
 "_ZNSt15__new_allocatorI29llama_grammar_trigger_patternED2Ev"
 "_ZNSt15__new_allocatorIbED2Ev"
 "_ZNSt15__new_allocatorIcE10deallocateEPcy"
 "_ZNSt15__new_allocatorIcE8allocateEyPKv"
 "_ZNSt15__new_allocatorIcED2Ev"
 "_ZNSt15__new_allocatorIiE10deallocateEPiy"
 "_ZNSt15__new_allocatorIiE8allocateEyPKv"
 "_ZNSt15__new_allocatorIiED2Ev"
 "_ZNSt15__new_allocatorIjE10deallocateEPjy"
 "_ZNSt15__new_allocatorIjE8allocateEyPKv"
 "_ZNSt15__new_allocatorIjED2Ev"
 "_ZNSt15__new_allocatorIlE10deallocateEPly"
 "_ZNSt15__new_allocatorIlE8allocateEyPKv"
 "_ZNSt15__new_allocatorIlED2Ev"
 "_ZNSt15__new_allocatorImE10deallocateEPmy"
 "_ZNSt15__new_allocatorImE8allocateEyPKv"
 "_ZNSt15__new_allocatorImED2Ev"
 "_ZNSt15__new_allocatorINSt7__cxx1112basic_stringIcSt11char_traitsIcESaIcEEEE10deallocateEPS5_y"
 "_ZNSt15__new_allocatorINSt7__cxx1112basic_stringIcSt11char_traitsIcESaIcEEEE8allocateEyPKv"
 "_ZNSt15__new_allocatorINSt7__cxx1112basic_stringIcSt11char_traitsIcESaIcEEEED2Ev"
 "_ZNSt15__new_allocatorINSt7__cxx1112regex_traitsIcE10_RegexMaskEE10deallocateEPS3_y"
 "_ZNSt15__new_allocatorINSt7__cxx1112regex_traitsIcE10_RegexMaskEE8allocateEyPKv"
 "_ZNSt15__new_allocatorINSt7__cxx1112regex_traitsIcE10_RegexMaskEED2Ev"
 "_ZNSt15__new_allocatorINSt7__cxx119sub_matchIN9__gnu_cxx17__normal_iteratorIPKcNS0_12basic_stringIcSt11char_traitsIcESaIcEEEEEEEE10deallocateEPSC_y"
 "_ZNSt15__new_allocatorINSt7__cxx119sub_matchIN9__gnu_cxx17__normal_iteratorIPKcNS0_12basic_stringIcSt11char_traitsIcESaIcEEEEEEEE8allocateEyPKv"
 "_ZNSt15__new_allocatorINSt7__cxx119sub_matchIN9__gnu_cxx17__normal_iteratorIPKcNS0_12basic_stringIcSt11char_traitsIcESaIcEEEEEEEED2Ev"
 "_ZNSt15__new_allocatorINSt8__detail6_StateIcEEE10deallocateEPS2_y"
 "_ZNSt15__new_allocatorINSt8__detail6_StateIcEEE8allocateEyPKv"
 "_ZNSt15__new_allocatorINSt8__detail6_StateIcEEED2Ev"
 "_ZNSt15__new_allocatorINSt8__detail9_StateSeqINSt7__cxx1112regex_traitsIcEEEEE10deallocateEPS5_y"
 "_ZNSt15__new_allocatorINSt8__detail9_StateSeqINSt7__cxx1112regex_traitsIcEEEEE8allocateEyPKv"
 "_ZNSt15__new_allocatorINSt8__detail9_StateSeqINSt7__cxx1112regex_traitsIcEEEEED2Ev"
 "_ZNSt15__new_allocatorIPK21llama_grammar_elementE10deallocateEPS2_y"
 "_ZNSt15__new_allocatorIPK21llama_grammar_elementE8allocateEyPKv"
 "_ZNSt15__new_allocatorIPK21llama_grammar_elementED2Ev"
 "_ZNSt15__new_allocatorIPlE10deallocateEPS0_y"
 "_ZNSt15__new_allocatorIPlE8allocateEyPKv"
 "_ZNSt15__new_allocatorIPlED2Ev"
 "_ZNSt15__new_allocatorIPNSt8__detail9_StateSeqINSt7__cxx1112regex_traitsIcEEEEE10deallocateEPS6_y"
 "_ZNSt15__new_allocatorIPNSt8__detail9_StateSeqINSt7__cxx1112regex_traitsIcEEEEE8allocateEyPKv"
 "_ZNSt15__new_allocatorIPNSt8__detail9_StateSeqINSt7__cxx1112regex_traitsIcEEEEED2Ev"
 "_ZNSt15__new_allocatorISt13_Rb_tree_nodeISt4pairIKjNSt7__cxx1112basic_stringIcSt11char_traitsIcESaIcEEEEEE10deallocateEPSA_y"
 "_ZNSt15__new_allocatorISt13_Rb_tree_nodeISt4pairIKjNSt7__cxx1112basic_stringIcSt11char_traitsIcESaIcEEEEEE8allocateEyPKv"
 "_ZNSt15__new_allocatorISt13_Rb_tree_nodeISt4pairIKjNSt7__cxx1112basic_stringIcSt11char_traitsIcESaIcEEEEEED2Ev"
 "_ZNSt15__new_allocatorISt13_Rb_tree_nodeISt4pairIKllEEE10deallocateEPS4_y"
 "_ZNSt15__new_allocatorISt13_Rb_tree_nodeISt4pairIKllEEE8allocateEyPKv"
 "_ZNSt15__new_allocatorISt13_Rb_tree_nodeISt4pairIKllEEED2Ev"
 "_ZNSt15__new_allocatorISt13_Rb_tree_nodeISt4pairIKNSt7__cxx1112basic_stringIcSt11char_traitsIcESaIcEEEjEEE10deallocateEPSA_y"
 "_ZNSt15__new_allocatorISt13_Rb_tree_nodeISt4pairIKNSt7__cxx1112basic_stringIcSt11char_traitsIcESaIcEEEjEEE8allocateEyPKv"
 "_ZNSt15__new_allocatorISt13_Rb_tree_nodeISt4pairIKNSt7__cxx1112basic_stringIcSt11char_traitsIcESaIcEEEjEEED2Ev"
 "_ZNSt15__new_allocatorISt23_Sp_counted_ptr_inplaceINSt8__detail4_NFAINSt7__cxx1112regex_traitsIcEEEESaIvELN9__gnu_cxx12_Lock_policyE2EEE10deallocateEPSA_y"
 "_ZNSt15__new_allocatorISt23_Sp_counted_ptr_inplaceINSt8__detail4_NFAINSt7__cxx1112regex_traitsIcEEEESaIvELN9__gnu_cxx12_Lock_policyE2EEE8allocateEyPKv"
 "_ZNSt15__new_allocatorISt23_Sp_counted_ptr_inplaceINSt8__detail4_NFAINSt7__cxx1112regex_traitsIcEEEESaIvELN9__gnu_cxx12_Lock_policyE2EEED2Ev"
 "_ZNSt15__new_allocatorISt4pairIccEE10deallocateEPS1_y"
 "_ZNSt15__new_allocatorISt4pairIccEE8allocateEyPKv"
 "_ZNSt15__new_allocatorISt4pairIccEED2Ev"
 "_ZNSt15__new_allocatorISt4pairIlSt6vectorINSt7__cxx119sub_matchIN9__gnu_cxx17__normal_iteratorIPKcNS2_12basic_stringIcSt11char_traitsIcESaIcEEEEEEESaISE_EEEE10deallocateEPSH_y"
 "_ZNSt15__new_allocatorISt4pairIlSt6vectorINSt7__cxx119sub_matchIN9__gnu_cxx17__normal_iteratorIPKcNS2_12basic_stringIcSt11char_traitsIcESaIcEEEEEEESaISE_EEEE8allocateEyPKv"
 "_ZNSt15__new_allocatorISt4pairIlSt6vectorINSt7__cxx119sub_matchIN9__gnu_cxx17__normal_iteratorIPKcNS2_12basic_stringIcSt11char_traitsIcESaIcEEEEEEESaISE_EEEED2Ev"
 "_ZNSt15__new_allocatorISt4pairIN9__gnu_cxx17__normal_iteratorIPKcNSt7__cxx1112basic_stringIcSt11char_traitsIcESaIcEEEEEiEE10deallocateEPSC_y"
 "_ZNSt15__new_allocatorISt4pairIN9__gnu_cxx17__normal_iteratorIPKcNSt7__cxx1112basic_stringIcSt11char_traitsIcESaIcEEEEEiEE8allocateEyPKv"
 "_ZNSt15__new_allocatorISt4pairIN9__gnu_cxx17__normal_iteratorIPKcNSt7__cxx1112basic_stringIcSt11char_traitsIcESaIcEEEEEiEED2Ev"
 "_ZNSt15__new_allocatorISt4pairINSt7__cxx1112basic_stringIcSt11char_traitsIcESaIcEEES6_EE10deallocateEPS7_y"
 "_ZNSt15__new_allocatorISt4pairINSt7__cxx1112basic_stringIcSt11char_traitsIcESaIcEEES6_EE8allocateEyPKv"
 "_ZNSt15__new_allocatorISt4pairINSt7__cxx1112basic_stringIcSt11char_traitsIcESaIcEEES6_EED2Ev"
 "_ZNSt15__new_allocatorISt4pairISt6vectorIjSaIjEE18llama_partial_utf8EE10deallocateEPS5_y"
 "_ZNSt15__new_allocatorISt4pairISt6vectorIjSaIjEE18llama_partial_utf8EE8allocateEyPKv"
 "_ZNSt15__new_allocatorISt4pairISt6vectorIjSaIjEE18llama_partial_utf8EED2Ev"
 "_ZNSt15__new_allocatorISt6vectorI21llama_grammar_elementSaIS1_EEE10deallocateEPS3_y"
 "_ZNSt15__new_allocatorISt6vectorI21llama_grammar_elementSaIS1_EEE8allocateEyPKv"
 "_ZNSt15__new_allocatorISt6vectorI21llama_grammar_elementSaIS1_EEED2Ev"
 "_ZNSt15__new_allocatorISt6vectorIPK21llama_grammar_elementSaIS3_EEE10deallocateEPS5_y"
 "_ZNSt15__new_allocatorISt6vectorIPK21llama_grammar_elementSaIS3_EEE8allocateEyPKv"
 "_ZNSt15__new_allocatorISt6vectorIPK21llama_grammar_elementSaIS3_EEED2Ev"
 "_ZNSt15__new_allocatorIyE10deallocateEPyy"
 "_ZNSt15__new_allocatorIyE8allocateEyPKv"
 "_ZNSt15__new_allocatorIyED2Ev"
 "_ZNSt15_Deque_iteratorIlRlPlE11_M_set_nodeEPS1_"
 "_ZNSt15_Deque_iteratorIlRlPlE14_S_buffer_sizeEv"
 "_ZNSt15_Deque_iteratorIlRlPlEC1ERKS2_"
 "_ZNSt15_Deque_iteratorIlRlPlEC1Ev"
 "_ZNSt15_Deque_iteratorIlRlPlEmmEv"
 "_ZNSt15_Deque_iteratorINSt8__detail9_StateSeqINSt7__cxx1112regex_traitsIcEEEERS5_PS5_E11_M_set_nodeEPS7_"
 "_ZNSt15_Deque_iteratorINSt8__detail9_StateSeqINSt7__cxx1112regex_traitsIcEEEERS5_PS5_E14_S_buffer_sizeEv"
 "_ZNSt15_Deque_iteratorINSt8__detail9_StateSeqINSt7__cxx1112regex_traitsIcEEEERS5_PS5_EC1ERKS8_"
 "_ZNSt15_Deque_iteratorINSt8__detail9_StateSeqINSt7__cxx1112regex_traitsIcEEEERS5_PS5_EC1Ev"
 "_ZNSt15_Deque_iteratorINSt8__detail9_StateSeqINSt7__cxx1112regex_traitsIcEEEERS5_PS5_EmmEv"
 "_ZNSt15_Rb_tree_header8_M_resetEv"
 "_ZNSt15_Rb_tree_headerC2Ev"
 "_ZNSt15regex_constantsanENS_15match_flag_typeES0_"
 "_ZNSt15regex_constantsanENS_18syntax_option_typeES0_"
 "_ZNSt15regex_constantsaNERNS_15match_flag_typeES0_"
 "_ZNSt15regex_constantscoENS_15match_flag_typeE"
 "_ZNSt15regex_constantsorENS_15match_flag_typeES0_"
 "_ZNSt15regex_constantsorENS_18syntax_option_typeES0_"
 "_ZNSt15regex_constantsoRERNS_15match_flag_typeES0_"
 "_ZNSt16_Sp_counted_baseILN9__gnu_cxx12_Lock_policyE2EE10_M_destroyEv"
 "_ZNSt16_Sp_counted_baseILN9__gnu_cxx12_Lock_policyE2EE10_M_releaseEv"
 "_ZNSt16_Sp_counted_baseILN9__gnu_cxx12_Lock_policyE2EE15_M_add_ref_copyEv"
 "_ZNSt16_Sp_counted_baseILN9__gnu_cxx12_Lock_policyE2EE19_M_release_last_useEv"
 "_ZNSt16_Sp_counted_baseILN9__gnu_cxx12_Lock_policyE2EE24_M_release_last_use_coldEv"
 "_ZNSt16_Sp_counted_baseILN9__gnu_cxx12_Lock_policyE2EEC2Ev"
 "_ZNSt16_Sp_counted_baseILN9__gnu_cxx12_Lock_policyE2EED2Ev"
 "_ZNSt17_Function_handlerIFbcENSt8__detail11_AnyMatcherINSt7__cxx1112regex_traitsIcEELb0ELb0ELb0EEEE10_M_managerERSt9_Any_dataRKS8_St18_Manager_operation"
 "_ZNSt17_Function_handlerIFbcENSt8__detail11_AnyMatcherINSt7__cxx1112regex_traitsIcEELb0ELb0ELb0EEEE9_M_invokeERKSt9_Any_dataOc"
 "_ZNSt17_Function_handlerIFbcENSt8__detail11_AnyMatcherINSt7__cxx1112regex_traitsIcEELb0ELb0ELb1EEEE10_M_managerERSt9_Any_dataRKS8_St18_Manager_operation"
 "_ZNSt17_Function_handlerIFbcENSt8__detail11_AnyMatcherINSt7__cxx1112regex_traitsIcEELb0ELb0ELb1EEEE9_M_invokeERKSt9_Any_dataOc"
 "_ZNSt17_Function_handlerIFbcENSt8__detail11_AnyMatcherINSt7__cxx1112regex_traitsIcEELb0ELb1ELb0EEEE10_M_managerERSt9_Any_dataRKS8_St18_Manager_operation"
 "_ZNSt17_Function_handlerIFbcENSt8__detail11_AnyMatcherINSt7__cxx1112regex_traitsIcEELb0ELb1ELb0EEEE9_M_invokeERKSt9_Any_dataOc"
 "_ZNSt17_Function_handlerIFbcENSt8__detail11_AnyMatcherINSt7__cxx1112regex_traitsIcEELb0ELb1ELb1EEEE10_M_managerERSt9_Any_dataRKS8_St18_Manager_operation"
 "_ZNSt17_Function_handlerIFbcENSt8__detail11_AnyMatcherINSt7__cxx1112regex_traitsIcEELb0ELb1ELb1EEEE9_M_invokeERKSt9_Any_dataOc"
 "_ZNSt17_Function_handlerIFbcENSt8__detail11_AnyMatcherINSt7__cxx1112regex_traitsIcEELb1ELb0ELb0EEEE10_M_managerERSt9_Any_dataRKS8_St18_Manager_operation"
 "_ZNSt17_Function_handlerIFbcENSt8__detail11_AnyMatcherINSt7__cxx1112regex_traitsIcEELb1ELb0ELb0EEEE9_M_invokeERKSt9_Any_dataOc"
 "_ZNSt17_Function_handlerIFbcENSt8__detail11_AnyMatcherINSt7__cxx1112regex_traitsIcEELb1ELb0ELb1EEEE10_M_managerERSt9_Any_dataRKS8_St18_Manager_operation"
 "_ZNSt17_Function_handlerIFbcENSt8__detail11_AnyMatcherINSt7__cxx1112regex_traitsIcEELb1ELb0ELb1EEEE9_M_invokeERKSt9_Any_dataOc"
 "_ZNSt17_Function_handlerIFbcENSt8__detail11_AnyMatcherINSt7__cxx1112regex_traitsIcEELb1ELb1ELb0EEEE10_M_managerERSt9_Any_dataRKS8_St18_Manager_operation"
 "_ZNSt17_Function_handlerIFbcENSt8__detail11_AnyMatcherINSt7__cxx1112regex_traitsIcEELb1ELb1ELb0EEEE9_M_invokeERKSt9_Any_dataOc"
 "_ZNSt17_Function_handlerIFbcENSt8__detail11_AnyMatcherINSt7__cxx1112regex_traitsIcEELb1ELb1ELb1EEEE10_M_managerERSt9_Any_dataRKS8_St18_Manager_operation"
 "_ZNSt17_Function_handlerIFbcENSt8__detail11_AnyMatcherINSt7__cxx1112regex_traitsIcEELb1ELb1ELb1EEEE9_M_invokeERKSt9_Any_dataOc"
 "_ZNSt17_Function_handlerIFbcENSt8__detail12_CharMatcherINSt7__cxx1112regex_traitsIcEELb0ELb0EEEE10_M_managerERSt9_Any_dataRKS8_St18_Manager_operation"
 "_ZNSt17_Function_handlerIFbcENSt8__detail12_CharMatcherINSt7__cxx1112regex_traitsIcEELb0ELb0EEEE9_M_invokeERKSt9_Any_dataOc"
 "_ZNSt17_Function_handlerIFbcENSt8__detail12_CharMatcherINSt7__cxx1112regex_traitsIcEELb0ELb1EEEE10_M_managerERSt9_Any_dataRKS8_St18_Manager_operation"
 "_ZNSt17_Function_handlerIFbcENSt8__detail12_CharMatcherINSt7__cxx1112regex_traitsIcEELb0ELb1EEEE9_M_invokeERKSt9_Any_dataOc"
 "_ZNSt17_Function_handlerIFbcENSt8__detail12_CharMatcherINSt7__cxx1112regex_traitsIcEELb1ELb0EEEE10_M_managerERSt9_Any_dataRKS8_St18_Manager_operation"
 "_ZNSt17_Function_handlerIFbcENSt8__detail12_CharMatcherINSt7__cxx1112regex_traitsIcEELb1ELb0EEEE9_M_invokeERKSt9_Any_dataOc"
 "_ZNSt17_Function_handlerIFbcENSt8__detail12_CharMatcherINSt7__cxx1112regex_traitsIcEELb1ELb1EEEE10_M_managerERSt9_Any_dataRKS8_St18_Manager_operation"
 "_ZNSt17_Function_handlerIFbcENSt8__detail12_CharMatcherINSt7__cxx1112regex_traitsIcEELb1ELb1EEEE9_M_invokeERKSt9_Any_dataOc"
 "_ZNSt17_Function_handlerIFbcENSt8__detail15_BracketMatcherINSt7__cxx1112regex_traitsIcEELb0ELb0EEEE10_M_managerERSt9_Any_dataRKS8_St18_Manager_operation"
 "_ZNSt17_Function_handlerIFbcENSt8__detail15_BracketMatcherINSt7__cxx1112regex_traitsIcEELb0ELb0EEEE9_M_invokeERKSt9_Any_dataOc"
 "_ZNSt17_Function_handlerIFbcENSt8__detail15_BracketMatcherINSt7__cxx1112regex_traitsIcEELb0ELb1EEEE10_M_managerERSt9_Any_dataRKS8_St18_Manager_operation"
 "_ZNSt17_Function_handlerIFbcENSt8__detail15_BracketMatcherINSt7__cxx1112regex_traitsIcEELb0ELb1EEEE9_M_invokeERKSt9_Any_dataOc"
 "_ZNSt17_Function_handlerIFbcENSt8__detail15_BracketMatcherINSt7__cxx1112regex_traitsIcEELb1ELb0EEEE10_M_managerERSt9_Any_dataRKS8_St18_Manager_operation"
 "_ZNSt17_Function_handlerIFbcENSt8__detail15_BracketMatcherINSt7__cxx1112regex_traitsIcEELb1ELb0EEEE9_M_invokeERKSt9_Any_dataOc"
 "_ZNSt17_Function_handlerIFbcENSt8__detail15_BracketMatcherINSt7__cxx1112regex_traitsIcEELb1ELb1EEEE10_M_managerERSt9_Any_dataRKS8_St18_Manager_operation"
 "_ZNSt17_Function_handlerIFbcENSt8__detail15_BracketMatcherINSt7__cxx1112regex_traitsIcEELb1ELb1EEEE9_M_invokeERKSt9_Any_dataOc"
 "_ZNSt17_Rb_tree_iteratorISt4pairIKjNSt7__cxx1112basic_stringIcSt11char_traitsIcESaIcEEEEEC1EPSt18_Rb_tree_node_base"
 "_ZNSt17_Rb_tree_iteratorISt4pairIKjNSt7__cxx1112basic_stringIcSt11char_traitsIcESaIcEEEEEmmEv"
 "_ZNSt17_Rb_tree_iteratorISt4pairIKjNSt7__cxx1112basic_stringIcSt11char_traitsIcESaIcEEEEEppEv"
 "_ZNSt17_Rb_tree_iteratorISt4pairIKllEEC1EPSt18_Rb_tree_node_base"
 "_ZNSt17_Rb_tree_iteratorISt4pairIKllEEmmEv"
 "_ZNSt17_Rb_tree_iteratorISt4pairIKllEEppEv"
 "_ZNSt17_Rb_tree_iteratorISt4pairIKNSt7__cxx1112basic_stringIcSt11char_traitsIcESaIcEEEjEEC1EPSt18_Rb_tree_node_base"
 "_ZNSt17_Rb_tree_iteratorISt4pairIKNSt7__cxx1112basic_stringIcSt11char_traitsIcESaIcEEEjEEmmEv"
 "_ZNSt17_Rb_tree_iteratorISt4pairIKNSt7__cxx1112basic_stringIcSt11char_traitsIcESaIcEEEjEEppEv"
 "_ZNSt18_Bit_iterator_base7_M_incrEx"
 "_ZNSt18_Bit_iterator_baseC2EPmj"
 "_ZNSt19_Sp_make_shared_tag5_S_tiEv"
 "_ZNSt20__copy_move_backwardILb0ELb1ESt26random_access_iterator_tagE13__copy_move_bIPlS3_EEPT0_PT_S7_S5_"
 "_ZNSt20__copy_move_backwardILb0ELb1ESt26random_access_iterator_tagE13__copy_move_bIPNSt8__detail9_StateSeqINSt7__cxx1112regex_traitsIcEEEES9_EEPT0_PT_SD_SB_"
 "_ZNSt20__copy_move_backwardILb1ELb1ESt26random_access_iterator_tagE13__copy_move_bI21llama_grammar_elementS3_EEPT0_PT_S7_S5_"
 "_ZNSt20__copy_move_backwardILb1ELb1ESt26random_access_iterator_tagE13__copy_move_bIccEEPT0_PT_S6_S4_"
 "_ZNSt20__uninitialized_copyILb0EE13__uninit_copyIN9__gnu_cxx17__normal_iteratorIPK29llama_grammar_trigger_patternSt6vectorIS4_SaIS4_EEEEPS4_EET0_T_SD_SC_"
 "_ZNSt20__uninitialized_copyILb0EE13__uninit_copyIN9__gnu_cxx17__normal_iteratorIPKNSt7__cxx1112basic_stringIcSt11char_traitsIcESaIcEEESt6vectorIS9_SaIS9_EEEEPS9_EET0_T_SI_SH_"
 "_ZNSt20__uninitialized_copyILb0EE13__uninit_copyIN9__gnu_cxx17__normal_iteratorIPKNSt7__cxx1112regex_traitsIcE10_RegexMaskESt6vectorIS7_SaIS7_EEEEPS7_EET0_T_SG_SF_"
 "_ZNSt20__uninitialized_copyILb0EE13__uninit_copyIN9__gnu_cxx17__normal_iteratorIPKNSt7__cxx119sub_matchINS3_IPKcNS4_12basic_stringIcSt11char_traitsIcESaIcEEEEEEESt6vectorISE_SaISE_EEEEPSE_EET0_T_SN_SM_"
 "_ZNSt20__uninitialized_copyILb0EE13__uninit_copyIN9__gnu_cxx17__normal_iteratorIPKSt4pairIccESt6vectorIS5_SaIS5_EEEEPS5_EET0_T_SE_SD_"
 "_ZNSt20__uninitialized_copyILb0EE13__uninit_copyIN9__gnu_cxx17__normal_iteratorIPKSt4pairINSt7__cxx1112basic_stringIcSt11char_traitsIcESaIcEEESA_ESt6vectorISB_SaISB_EEEEPSB_EET0_T_SK_SJ_"
 "_ZNSt20__uninitialized_copyILb0EE13__uninit_copyIN9__gnu_cxx17__normal_iteratorIPKSt6vectorI21llama_grammar_elementSaIS5_EES4_IS7_SaIS7_EEEEPS7_EET0_T_SF_SE_"
 "_ZNSt20__uninitialized_copyILb0EE13__uninit_copyIN9__gnu_cxx17__normal_iteratorIPKSt6vectorIPK21llama_grammar_elementSaIS7_EES4_IS9_SaIS9_EEEEPS9_EET0_T_SH_SG_"
 "_ZNSt20__uninitialized_copyILb0EE13__uninit_copyIPNSt7__cxx119sub_matchIN9__gnu_cxx17__normal_iteratorIPKcNS2_12basic_stringIcSt11char_traitsIcESaIcEEEEEEESF_EET0_T_SH_SG_"
 "_ZNSt20__uninitialized_copyILb1EE13__uninit_copyIN9__gnu_cxx17__normal_iteratorIP21llama_grammar_elementSt6vectorIS4_SaIS4_EEEES5_EET0_T_SB_SA_"
 "_ZNSt20__uninitialized_copyILb1EE13__uninit_copyIN9__gnu_cxx17__normal_iteratorIPK21llama_grammar_elementSt6vectorIS4_SaIS4_EEEEPS4_EET0_T_SD_SC_"
 "_ZNSt20__uninitialized_copyILb1EE13__uninit_copyIN9__gnu_cxx17__normal_iteratorIPKcSt6vectorIcSaIcEEEEPcEET0_T_SC_SB_"
 "_ZNSt20__uninitialized_copyILb1EE13__uninit_copyIN9__gnu_cxx17__normal_iteratorIPKiSt6vectorIiSaIiEEEEPiEET0_T_SC_SB_"
 "_ZNSt20__uninitialized_copyILb1EE13__uninit_copyIN9__gnu_cxx17__normal_iteratorIPKPK21llama_grammar_elementSt6vectorIS6_SaIS6_EEEEPS6_EET0_T_SF_SE_"
 "_ZNSt20__uninitialized_copyILb1EE13__uninit_copyIP21llama_grammar_elementS3_EET0_T_S5_S4_"
 "_ZNSt20__uninitialized_copyILb1EE13__uninit_copyIPcS2_EET0_T_S4_S3_"
 "_ZNSt20__uninitialized_copyILb1EE13__uninit_copyIPKcPcEET0_T_S6_S5_"
 "_ZNSt20__uninitialized_copyILb1EE13__uninit_copyISt13move_iteratorIP21llama_grammar_elementES4_EET0_T_S7_S6_"
 "_ZNSt20_Rb_tree_key_compareISt4lessIjEEC2Ev"
 "_ZNSt20_Rb_tree_key_compareISt4lessIlEEC2Ev"
 "_ZNSt20_Rb_tree_key_compareISt4lessINSt7__cxx1112basic_stringIcSt11char_traitsIcESaIcEEEEEC2Ev"
 "_ZNSt22__uninitialized_fill_nILb0EE15__uninit_fill_nIPNSt7__cxx119sub_matchIN9__gnu_cxx17__normal_iteratorIPKcNS2_12basic_stringIcSt11char_traitsIcESaIcEEEEEEEySE_EET_SG_T0_RKT1_"
 "_ZNSt23_Rb_tree_const_iteratorISt4pairIKjNSt7__cxx1112basic_stringIcSt11char_traitsIcESaIcEEEEEC1EPKSt18_Rb_tree_node_base"
 "_ZNSt23_Rb_tree_const_iteratorISt4pairIKjNSt7__cxx1112basic_stringIcSt11char_traitsIcESaIcEEEEEC1ERKSt17_Rb_tree_iteratorIS8_E"
 "_ZNSt23_Rb_tree_const_iteratorISt4pairIKllEEC1EPKSt18_Rb_tree_node_base"
 "_ZNSt23_Rb_tree_const_iteratorISt4pairIKllEEC1ERKSt17_Rb_tree_iteratorIS2_E"
 "_ZNSt23_Rb_tree_const_iteratorISt4pairIKNSt7__cxx1112basic_stringIcSt11char_traitsIcESaIcEEEjEEC1ERKSt17_Rb_tree_iteratorIS8_E"
 "_ZNSt23_Sp_counted_ptr_inplaceINSt8__detail4_NFAINSt7__cxx1112regex_traitsIcEEEESaIvELN9__gnu_cxx12_Lock_policyE2EE10_M_destroyEv"
 "_ZNSt23_Sp_counted_ptr_inplaceINSt8__detail4_NFAINSt7__cxx1112regex_traitsIcEEEESaIvELN9__gnu_cxx12_Lock_policyE2EE10_M_disposeEv"
 "_ZNSt23_Sp_counted_ptr_inplaceINSt8__detail4_NFAINSt7__cxx1112regex_traitsIcEEEESaIvELN9__gnu_cxx12_Lock_policyE2EE14_M_get_deleterERKSt9type_info"
 "_ZNSt23_Sp_counted_ptr_inplaceINSt8__detail4_NFAINSt7__cxx1112regex_traitsIcEEEESaIvELN9__gnu_cxx12_Lock_policyE2EE5_Impl8_M_allocEv"
 "_ZNSt23_Sp_counted_ptr_inplaceINSt8__detail4_NFAINSt7__cxx1112regex_traitsIcEEEESaIvELN9__gnu_cxx12_Lock_policyE2EE5_ImplC1ES6_"
 "_ZNSt23_Sp_counted_ptr_inplaceINSt8__detail4_NFAINSt7__cxx1112regex_traitsIcEEEESaIvELN9__gnu_cxx12_Lock_policyE2EE6_M_ptrEv"
 "_ZNSt23_Sp_counted_ptr_inplaceINSt8__detail4_NFAINSt7__cxx1112regex_traitsIcEEEESaIvELN9__gnu_cxx12_Lock_policyE2EEC1IJRKSt6localeRNSt15regex_constants18syntax_option_typeEEEES6_DpOT_"
 "_ZNSt23_Sp_counted_ptr_inplaceINSt8__detail4_NFAINSt7__cxx1112regex_traitsIcEEEESaIvELN9__gnu_cxx12_Lock_policyE2EED0Ev"
 "_ZNSt23_Sp_counted_ptr_inplaceINSt8__detail4_NFAINSt7__cxx1112regex_traitsIcEEEESaIvELN9__gnu_cxx12_Lock_policyE2EED1Ev"
 "_ZNSt27__uninitialized_default_n_1ILb0EE18__uninit_default_nIPSt4pairIN9__gnu_cxx17__normal_iteratorIPKcNSt7__cxx1112basic_stringIcSt11char_traitsIcESaIcEEEEEiEyEET_SG_T0_"
 "_ZNSt27__uninitialized_default_n_1ILb0EE18__uninit_default_nIPSt6vectorI21llama_grammar_elementSaIS3_EEyEET_S7_T0_"
 "_ZNSt27__uninitialized_default_n_1ILb1EE18__uninit_default_nIP21llama_grammar_elementyEET_S4_T0_"
 "_ZNSt3mapIjNSt7__cxx1112basic_stringIcSt11char_traitsIcESaIcEEESt4lessIjESaISt4pairIKjS5_EEE11lower_boundERS9_"
 "_ZNSt3mapIjNSt7__cxx1112basic_stringIcSt11char_traitsIcESaIcEEESt4lessIjESaISt4pairIKjS5_EEE3endEv"
 "_ZNSt3mapIjNSt7__cxx1112basic_stringIcSt11char_traitsIcESaIcEEESt4lessIjESaISt4pairIKjS5_EEEC1Ev"
 "_ZNSt3mapIjNSt7__cxx1112basic_stringIcSt11char_traitsIcESaIcEEESt4lessIjESaISt4pairIKjS5_EEED1Ev"
 "_ZNSt3mapIjNSt7__cxx1112basic_stringIcSt11char_traitsIcESaIcEEESt4lessIjESaISt4pairIKjS5_EEEixERS9_"
 "_ZNSt3mapIllSt4lessIlESaISt4pairIKllEEE11lower_boundERS3_"
 "_ZNSt3mapIllSt4lessIlESaISt4pairIKllEEE3endEv"
 "_ZNSt3mapIllSt4lessIlESaISt4pairIKllEEE4findERS3_"
 "_ZNSt3mapIllSt4lessIlESaISt4pairIKllEEE5beginEv"
 "_ZNSt3mapIllSt4lessIlESaISt4pairIKllEEEC1Ev"
 "_ZNSt3mapIllSt4lessIlESaISt4pairIKllEEED1Ev"
 "_ZNSt3mapIllSt4lessIlESaISt4pairIKllEEEixERS3_"
 "_ZNSt3mapINSt7__cxx1112basic_stringIcSt11char_traitsIcESaIcEEEjSt4lessIS5_ESaISt4pairIKS5_jEEE11lower_boundERS9_"
 "_ZNSt3mapINSt7__cxx1112basic_stringIcSt11char_traitsIcESaIcEEEjSt4lessIS5_ESaISt4pairIKS5_jEEE12emplace_hintIJS5_RjEEESt17_Rb_tree_iteratorISA_ESt23_Rb_tree_const_iteratorISA_EDpOT_"
 "_ZNSt3mapINSt7__cxx1112basic_stringIcSt11char_traitsIcESaIcEEEjSt4lessIS5_ESaISt4pairIKS5_jEEE2atERS9_"
 "_ZNSt3mapINSt7__cxx1112basic_stringIcSt11char_traitsIcESaIcEEEjSt4lessIS5_ESaISt4pairIKS5_jEEE3endEv"
 "_ZNSt3mapINSt7__cxx1112basic_stringIcSt11char_traitsIcESaIcEEEjSt4lessIS5_ESaISt4pairIKS5_jEEE4findERS9_"
 "_ZNSt3mapINSt7__cxx1112basic_stringIcSt11char_traitsIcESaIcEEEjSt4lessIS5_ESaISt4pairIKS5_jEEE5beginEv"
 "_ZNSt3mapINSt7__cxx1112basic_stringIcSt11char_traitsIcESaIcEEEjSt4lessIS5_ESaISt4pairIKS5_jEEE7emplaceIJS5_RjEEES8_ISt17_Rb_tree_iteratorISA_EbEDpOT_"
 "_ZNSt3mapINSt7__cxx1112basic_stringIcSt11char_traitsIcESaIcEEEjSt4lessIS5_ESaISt4pairIKS5_jEEEC1Ev"
 "_ZNSt3mapINSt7__cxx1112basic_stringIcSt11char_traitsIcESaIcEEEjSt4lessIS5_ESaISt4pairIKS5_jEEED1Ev"
 "_ZNSt3mapINSt7__cxx1112basic_stringIcSt11char_traitsIcESaIcEEEjSt4lessIS5_ESaISt4pairIKS5_jEEEixEOS5_"
 "_ZNSt4pairIbPK21llama_grammar_elementEC1IbRS2_Lb1EEEOT_OT0_"
 "_ZNSt4pairIccEC1IccLb1EEEOT_OT0_"
 "_ZNSt4pairIcPKcEC1IcS1_Lb1EEEOT_OT0_"
 "_ZNSt4pairIcPKcEC1IRS0_S1_Lb1EEEOT_OT0_"
 "_ZNSt4pairIjPKcEC1IcS1_Lb1EEEOS_IT_T0_E"
 "_ZNSt4pairIjPKcEC1IRjRS1_Lb1EEEOT_OT0_"
 "_ZNSt4pairIKjNSt7__cxx1112basic_stringIcSt11char_traitsIcESaIcEEEEC1IJRS0_EJEEESt21piecewise_construct_tSt5tupleIJDpT_EESB_IJDpT0_EE"
 "_ZNSt4pairIKjNSt7__cxx1112basic_stringIcSt11char_traitsIcESaIcEEEEC1IJRS0_EJLy0EEJEJEEERSt5tupleIJDpT_EERSA_IJDpT1_EESt12_Index_tupleIJXspT0_EEESJ_IJXspT2_EEE"
 "_ZNSt4pairIKjNSt7__cxx1112basic_stringIcSt11char_traitsIcESaIcEEEED1Ev"
 "_ZNSt4pairIKllEC1IJRS0_EJEEESt21piecewise_construct_tSt5tupleIJDpT_EES5_IJDpT0_EE"
 "_ZNSt4pairIKllEC1IJRS0_EJLy0EEJEJEEERSt5tupleIJDpT_EERS4_IJDpT1_EESt12_Index_tupleIJXspT0_EEESD_IJXspT2_EEE"
 "_ZNSt4pairIKNSt7__cxx1112basic_stringIcSt11char_traitsIcESaIcEEEjEC1IJOS5_EJEEESt21piecewise_construct_tSt5tupleIJDpT_EESB_IJDpT0_EE"
 "_ZNSt4pairIKNSt7__cxx1112basic_stringIcSt11char_traitsIcESaIcEEEjEC1IJOS5_EJLy0EEJEJEEERSt5tupleIJDpT_EERSA_IJDpT1_EESt12_Index_tupleIJXspT0_EEESJ_IJXspT2_EEE"
 "_ZNSt4pairIKNSt7__cxx1112basic_stringIcSt11char_traitsIcESaIcEEEjEC1IS5_RjLb1EEEOT_OT0_"
 "_ZNSt4pairIKNSt7__cxx1112basic_stringIcSt11char_traitsIcESaIcEEEjED1Ev"
 "_ZNSt4pairIlSt6vectorINSt7__cxx119sub_matchIN9__gnu_cxx17__normal_iteratorIPKcNS1_12basic_stringIcSt11char_traitsIcESaIcEEEEEEESaISD_EEEC1EOSG_"
 "_ZNSt4pairIlSt6vectorINSt7__cxx119sub_matchIN9__gnu_cxx17__normal_iteratorIPKcNS1_12basic_stringIcSt11char_traitsIcESaIcEEEEEEESaISD_EEEC1IRlRKSF_Lb1EEEOT_OT0_"
 "_ZNSt4pairIlSt6vectorINSt7__cxx119sub_matchIN9__gnu_cxx17__normal_iteratorIPKcNS1_12basic_stringIcSt11char_traitsIcESaIcEEEEEEESaISD_EEED1Ev"
 "_ZNSt4pairIN9__gnu_cxx17__normal_iteratorIPKcNSt7__cxx1112basic_stringIcSt11char_traitsIcESaIcEEEEEiEaSERKSB_"
 "_ZNSt4pairIN9__gnu_cxx17__normal_iteratorIPKcNSt7__cxx1112basic_stringIcSt11char_traitsIcESaIcEEEEEiEC1ISA_iLb1EEEv"
 "_ZNSt4pairIN9__gnu_cxx17__normal_iteratorIPKcNSt7__cxx1112basic_stringIcSt11char_traitsIcESaIcEEEEESA_EaSERKSB_"
 "_ZNSt4pairIN9__gnu_cxx17__normal_iteratorIPKcNSt7__cxx1112basic_stringIcSt11char_traitsIcESaIcEEEEESA_EC2ISA_SA_Lb1EEEv"
 "_ZNSt4pairINSt7__cxx1112basic_stringIcSt11char_traitsIcESaIcEEES5_EC1EOS6_"
 "_ZNSt4pairINSt7__cxx1112basic_stringIcSt11char_traitsIcESaIcEEES5_EC1ERKS6_"
 "_ZNSt4pairINSt7__cxx1112basic_stringIcSt11char_traitsIcESaIcEEES5_EC1IS5_S5_Lb1EEEOT_OT0_"
 "_ZNSt4pairINSt7__cxx1112basic_stringIcSt11char_traitsIcESaIcEEES5_ED1Ev"
 "_ZNSt4pairIPSt18_Rb_tree_node_baseS1_EC1IRPSt13_Rb_tree_nodeIS_IKjNSt7__cxx1112basic_stringIcSt11char_traitsIcESaIcEEEEERS1_Lb1EEEOT_OT0_"
 "_ZNSt4pairIPSt18_Rb_tree_node_baseS1_EC1IRPSt13_Rb_tree_nodeIS_IKllEERS1_Lb1EEEOT_OT0_"
 "_ZNSt4pairIPSt18_Rb_tree_node_baseS1_EC1IRPSt13_Rb_tree_nodeIS_IKNSt7__cxx1112basic_stringIcSt11char_traitsIcESaIcEEEjEERS1_Lb1EEEOT_OT0_"
 "_ZNSt4pairIPSt18_Rb_tree_node_baseS1_EC1IRS1_S4_Lb1EEEOT_OT0_"
 "_ZNSt4pairIPSt18_Rb_tree_node_baseS1_EC1IS1_S1_Lb1EEERKS1_S5_"
 "_ZNSt4pairIRNSt7__cxx1112basic_stringIcSt11char_traitsIcESaIcEEERjEC1IS6_S7_Lb1EEES6_S7_"
 "_ZNSt4pairISt17_Rb_tree_iteratorIS_IKNSt7__cxx1112basic_stringIcSt11char_traitsIcESaIcEEEjEEbEC1IRS9_bLb1EEEOT_OT0_"
 "_ZNSt4pairISt6vectorIjSaIjEE18llama_partial_utf8EC1EOS4_"
 "_ZNSt4pairISt6vectorIjSaIjEE18llama_partial_utf8EC1IS2_S3_Lb1EEEOT_OT0_"
 "_ZNSt4pairISt6vectorIjSaIjEE18llama_partial_utf8ED1Ev"
 "_ZNSt5dequeIlSaIlEE11_S_max_sizeERKS0_"
 "_ZNSt5dequeIlSaIlEE15_M_destroy_dataESt15_Deque_iteratorIlRlPlES5_RKS0_"
 "_ZNSt5dequeIlSaIlEE15_M_pop_back_auxEv"
 "_ZNSt5dequeIlSaIlEE16_M_push_back_auxIJRKlEEEvDpOT_"
 "_ZNSt5dequeIlSaIlEE17_M_reallocate_mapEyb"
 "_ZNSt5dequeIlSaIlEE22_M_reserve_map_at_backEy"
 "_ZNSt5dequeIlSaIlEE3endEv"
 "_ZNSt5dequeIlSaIlEE4backEv"
 "_ZNSt5dequeIlSaIlEE5beginEv"
 "_ZNSt5dequeIlSaIlEE8pop_backEv"
 "_ZNSt5dequeIlSaIlEE9push_backERKl"
 "_ZNSt5dequeIlSaIlEEC1Ev"
 "_ZNSt5dequeIlSaIlEED1Ev"
 "_ZNSt5dequeINSt8__detail9_StateSeqINSt7__cxx1112regex_traitsIcEEEESaIS5_EE11_S_max_sizeERKS6_"
 "_ZNSt5dequeINSt8__detail9_StateSeqINSt7__cxx1112regex_traitsIcEEEESaIS5_EE12emplace_backIJS5_EEERS5_DpOT_"
 "_ZNSt5dequeINSt8__detail9_StateSeqINSt7__cxx1112regex_traitsIcEEEESaIS5_EE15_M_destroy_dataESt15_Deque_iteratorIS5_RS5_PS5_ESB_RKS6_"
 "_ZNSt5dequeINSt8__detail9_StateSeqINSt7__cxx1112regex_traitsIcEEEESaIS5_EE15_M_pop_back_auxEv"
 "_ZNSt5dequeINSt8__detail9_StateSeqINSt7__cxx1112regex_traitsIcEEEESaIS5_EE16_M_push_back_auxIJRKS5_EEEvDpOT_"
 "_ZNSt5dequeINSt8__detail9_StateSeqINSt7__cxx1112regex_traitsIcEEEESaIS5_EE16_M_push_back_auxIJS5_EEEvDpOT_"
 "_ZNSt5dequeINSt8__detail9_StateSeqINSt7__cxx1112regex_traitsIcEEEESaIS5_EE17_M_reallocate_mapEyb"
 "_ZNSt5dequeINSt8__detail9_StateSeqINSt7__cxx1112regex_traitsIcEEEESaIS5_EE22_M_reserve_map_at_backEy"
 "_ZNSt5dequeINSt8__detail9_StateSeqINSt7__cxx1112regex_traitsIcEEEESaIS5_EE3endEv"
 "_ZNSt5dequeINSt8__detail9_StateSeqINSt7__cxx1112regex_traitsIcEEEESaIS5_EE4backEv"
 "_ZNSt5dequeINSt8__detail9_StateSeqINSt7__cxx1112regex_traitsIcEEEESaIS5_EE5beginEv"
 "_ZNSt5dequeINSt8__detail9_StateSeqINSt7__cxx1112regex_traitsIcEEEESaIS5_EE8pop_backEv"
 "_ZNSt5dequeINSt8__detail9_StateSeqINSt7__cxx1112regex_traitsIcEEEESaIS5_EE9push_backEOS5_"
 "_ZNSt5dequeINSt8__detail9_StateSeqINSt7__cxx1112regex_traitsIcEEEESaIS5_EE9push_backERKS5_"
 "_ZNSt5dequeINSt8__detail9_StateSeqINSt7__cxx1112regex_traitsIcEEEESaIS5_EEC1Ev"
 "_ZNSt5dequeINSt8__detail9_StateSeqINSt7__cxx1112regex_traitsIcEEEESaIS5_EED1Ev"
 "_ZNSt5stackIlSt5dequeIlSaIlEEE3popEv"
 "_ZNSt5stackIlSt5dequeIlSaIlEEE3topEv"
 "_ZNSt5stackIlSt5dequeIlSaIlEEE4pushERKl"
 "_ZNSt5stackIlSt5dequeIlSaIlEEEC1IS2_vEEv"
 "_ZNSt5stackIlSt5dequeIlSaIlEEED1Ev"
 "_ZNSt5stackINSt8__detail9_StateSeqINSt7__cxx1112regex_traitsIcEEEESt5dequeIS5_SaIS5_EEE3popEv"
 "_ZNSt5stackINSt8__detail9_StateSeqINSt7__cxx1112regex_traitsIcEEEESt5dequeIS5_SaIS5_EEE3topEv"
 "_ZNSt5stackINSt8__detail9_StateSeqINSt7__cxx1112regex_traitsIcEEEESt5dequeIS5_SaIS5_EEE4pushEOS5_"
 "_ZNSt5stackINSt8__detail9_StateSeqINSt7__cxx1112regex_traitsIcEEEESt5dequeIS5_SaIS5_EEE4pushERKS5_"
 "_ZNSt5stackINSt8__detail9_StateSeqINSt7__cxx1112regex_traitsIcEEEESt5dequeIS5_SaIS5_EEEC1IS8_vEEv"
 "_ZNSt5stackINSt8__detail9_StateSeqINSt7__cxx1112regex_traitsIcEEEESt5dequeIS5_SaIS5_EEED1Ev"
 "_ZNSt5tupleIJONSt7__cxx1112basic_stringIcSt11char_traitsIcESaIcEEEEEC1EOS7_"
 "_ZNSt5tupleIJONSt7__cxx1112basic_stringIcSt11char_traitsIcESaIcEEEEEC1IJS5_ELb1ELb1EEEDpOT_"
 "_ZNSt5tupleIJRKjEEC1EOS2_"
 "_ZNSt5tupleIJRKjEEC1ILb1ELb1EEES1_"
 "_ZNSt5tupleIJRKlEEC1EOS2_"
 "_ZNSt5tupleIJRKlEEC1ILb1ELb1EEES1_"
 "_ZNSt6bitsetILy256EE9referenceaSEb"
 "_ZNSt6bitsetILy256EE9referenceC1ERS0_y"
 "_ZNSt6bitsetILy256EE9referenceD1Ev"
 "_ZNSt6bitsetILy256EEC1Ev"
 "_ZNSt6bitsetILy256EEixEy"
 "_ZNSt6vectorI21llama_grammar_elementSaIS0_EE11_S_max_sizeERKS1_"
 "_ZNSt6vectorI21llama_grammar_elementSaIS0_EE11_S_relocateEPS0_S3_S3_RS1_"
 "_ZNSt6vectorI21llama_grammar_elementSaIS0_EE12emplace_backIJS0_EEERS0_DpOT_"
 "_ZNSt6vectorI21llama_grammar_elementSaIS0_EE15_M_erase_at_endEPS0_"
 "_ZNSt6vectorI21llama_grammar_elementSaIS0_EE15_M_range_insertIN9__gnu_cxx17__normal_iteratorIPS0_S2_EEEEvS7_T_S8_St20forward_iterator_tag"
 "_ZNSt6vectorI21llama_grammar_elementSaIS0_EE17_M_default_appendEy"
 "_ZNSt6vectorI21llama_grammar_elementSaIS0_EE17_M_realloc_insertIJRKS0_EEEvN9__gnu_cxx17__normal_iteratorIPS0_S2_EEDpOT_"
 "_ZNSt6vectorI21llama_grammar_elementSaIS0_EE17_M_realloc_insertIJS0_EEEvN9__gnu_cxx17__normal_iteratorIPS0_S2_EEDpOT_"
 "_ZNSt6vectorI21llama_grammar_elementSaIS0_EE17_S_check_init_lenEyRKS1_"
 "_ZNSt6vectorI21llama_grammar_elementSaIS0_EE19_M_range_initializeIN9__gnu_cxx17__normal_iteratorIPS0_S2_EEEEvT_S8_St20forward_iterator_tag"
 "_ZNSt6vectorI21llama_grammar_elementSaIS0_EE20_M_allocate_and_copyIN9__gnu_cxx17__normal_iteratorIPKS0_S2_EEEEPS0_yT_SA_"
 "_ZNSt6vectorI21llama_grammar_elementSaIS0_EE3endEv"
 "_ZNSt6vectorI21llama_grammar_elementSaIS0_EE4backEv"
 "_ZNSt6vectorI21llama_grammar_elementSaIS0_EE4dataEv"
 "_ZNSt6vectorI21llama_grammar_elementSaIS0_EE5beginEv"
 "_ZNSt6vectorI21llama_grammar_elementSaIS0_EE5clearEv"
 "_ZNSt6vectorI21llama_grammar_elementSaIS0_EE6insertIN9__gnu_cxx17__normal_iteratorIPS0_S2_EEvEES7_NS5_IPKS0_S2_EET_SB_"
 "_ZNSt6vectorI21llama_grammar_elementSaIS0_EE6resizeEy"
 "_ZNSt6vectorI21llama_grammar_elementSaIS0_EE9push_backEOS0_"
 "_ZNSt6vectorI21llama_grammar_elementSaIS0_EE9push_backERKS0_"
 "_ZNSt6vectorI21llama_grammar_elementSaIS0_EEaSERKS2_"
 "_ZNSt6vectorI21llama_grammar_elementSaIS0_EEC1EOS2_"
 "_ZNSt6vectorI21llama_grammar_elementSaIS0_EEC1ERKS2_"
 "_ZNSt6vectorI21llama_grammar_elementSaIS0_EEC1Ev"
 "_ZNSt6vectorI21llama_grammar_elementSaIS0_EEC1IN9__gnu_cxx17__normal_iteratorIPS0_S2_EEvEET_S8_RKS1_"
 "_ZNSt6vectorI21llama_grammar_elementSaIS0_EED1Ev"
 "_ZNSt6vectorI23llama_grammar_candidateSaIS0_EE11_S_max_sizeERKS1_"
 "_ZNSt6vectorI23llama_grammar_candidateSaIS0_EE11_S_relocateEPS0_S3_S3_RS1_"
 "_ZNSt6vectorI23llama_grammar_candidateSaIS0_EE12emplace_backIJS0_EEERS0_DpOT_"
 "_ZNSt6vectorI23llama_grammar_candidateSaIS0_EE14_M_move_assignEOS2_St17integral_constantIbLb1EE"
 "_ZNSt6vectorI23llama_grammar_candidateSaIS0_EE17_M_realloc_insertIJRKS0_EEEvN9__gnu_cxx17__normal_iteratorIPS0_S2_EEDpOT_"
 "_ZNSt6vectorI23llama_grammar_candidateSaIS0_EE17_M_realloc_insertIJS0_EEEvN9__gnu_cxx17__normal_iteratorIPS0_S2_EEDpOT_"
 "_ZNSt6vectorI23llama_grammar_candidateSaIS0_EE3endEv"
 "_ZNSt6vectorI23llama_grammar_candidateSaIS0_EE4backEv"
 "_ZNSt6vectorI23llama_grammar_candidateSaIS0_EE5beginEv"
 "_ZNSt6vectorI23llama_grammar_candidateSaIS0_EE7reserveEy"
 "_ZNSt6vectorI23llama_grammar_candidateSaIS0_EE9push_backEOS0_"
 "_ZNSt6vectorI23llama_grammar_candidateSaIS0_EE9push_backERKS0_"
 "_ZNSt6vectorI23llama_grammar_candidateSaIS0_EEaSEOS2_"
 "_ZNSt6vectorI23llama_grammar_candidateSaIS0_EEC1EOS2_"
 "_ZNSt6vectorI23llama_grammar_candidateSaIS0_EEC1ERKS1_"
 "_ZNSt6vectorI23llama_grammar_candidateSaIS0_EEC1Ev"
 "_ZNSt6vectorI23llama_grammar_candidateSaIS0_EED1Ev"
 "_ZNSt6vectorI29llama_grammar_trigger_patternSaIS0_EE11_S_max_sizeERKS1_"
 "_ZNSt6vectorI29llama_grammar_trigger_patternSaIS0_EE11_S_relocateEPS0_S3_S3_RS1_"
 "_ZNSt6vectorI29llama_grammar_trigger_patternSaIS0_EE12emplace_backIJEEERS0_DpOT_"
 "_ZNSt6vectorI29llama_grammar_trigger_patternSaIS0_EE17_M_realloc_insertIJEEEvN9__gnu_cxx17__normal_iteratorIPS0_S2_EEDpOT_"
 "_ZNSt6vectorI29llama_grammar_trigger_patternSaIS0_EE3endEv"
 "_ZNSt6vectorI29llama_grammar_trigger_patternSaIS0_EE4backEv"
 "_ZNSt6vectorI29llama_grammar_trigger_patternSaIS0_EE5beginEv"
 "_ZNSt6vectorI29llama_grammar_trigger_patternSaIS0_EEC1EOS2_"
 "_ZNSt6vectorI29llama_grammar_trigger_patternSaIS0_EEC1ERKS2_"
 "_ZNSt6vectorI29llama_grammar_trigger_patternSaIS0_EEC1Ev"
 "_ZNSt6vectorI29llama_grammar_trigger_patternSaIS0_EED1Ev"
 "_ZNSt6vectorIbSaIbEE13_M_initializeEy"
 "_ZNSt6vectorIbSaIbEE19_M_initialize_valueEb"
 "_ZNSt6vectorIbSaIbEE5beginEv"
 "_ZNSt6vectorIbSaIbEEC1EyRKbRKS0_"
 "_ZNSt6vectorIbSaIbEEC1EyRKS0_"
 "_ZNSt6vectorIbSaIbEED1Ev"
 "_ZNSt6vectorIbSaIbEEixEy"
 "_ZNSt6vectorIcSaIcEE11_S_max_sizeERKS0_"
 "_ZNSt6vectorIcSaIcEE11_S_relocateEPcS2_S2_RS0_"
 "_ZNSt6vectorIcSaIcEE12emplace_backIJcEEERcDpOT_"
 "_ZNSt6vectorIcSaIcEE15_M_erase_at_endEPc"
 "_ZNSt6vectorIcSaIcEE17_M_realloc_insertIJcEEEvN9__gnu_cxx17__normal_iteratorIPcS1_EEDpOT_"
 "_ZNSt6vectorIcSaIcEE17_S_check_init_lenEyRKS0_"
 "_ZNSt6vectorIcSaIcEE19_M_range_initializeIPcEEvT_S4_St20forward_iterator_tag"
 "_ZNSt6vectorIcSaIcEE19_M_range_initializeIPKcEEvT_S5_St20forward_iterator_tag"
 "_ZNSt6vectorIcSaIcEE3endEv"
 "_ZNSt6vectorIcSaIcEE4backEv"
 "_ZNSt6vectorIcSaIcEE4dataEv"
 "_ZNSt6vectorIcSaIcEE5beginEv"
 "_ZNSt6vectorIcSaIcEE5eraseEN9__gnu_cxx17__normal_iteratorIPKcS1_EES6_"
 "_ZNSt6vectorIcSaIcEE8_M_eraseEN9__gnu_cxx17__normal_iteratorIPcS1_EES5_"
 "_ZNSt6vectorIcSaIcEE9push_backEOc"
 "_ZNSt6vectorIcSaIcEEC1EOS1_"
 "_ZNSt6vectorIcSaIcEEC1ERKS1_"
 "_ZNSt6vectorIcSaIcEEC1Ev"
 "_ZNSt6vectorIcSaIcEEC1IPcvEET_S4_RKS0_"
 "_ZNSt6vectorIcSaIcEEC1IPKcvEET_S5_RKS0_"
 "_ZNSt6vectorIcSaIcEED1Ev"
 "_ZNSt6vectorIiSaIiEE11_S_max_sizeERKS0_"
 "_ZNSt6vectorIiSaIiEE11_S_relocateEPiS2_S2_RS0_"
 "_ZNSt6vectorIiSaIiEE17_M_realloc_insertIJRKiEEEvN9__gnu_cxx17__normal_iteratorIPiS1_EEDpOT_"
 "_ZNSt6vectorIiSaIiEE3endEv"
 "_ZNSt6vectorIiSaIiEE5beginEv"
 "_ZNSt6vectorIiSaIiEE9push_backERKi"
 "_ZNSt6vectorIiSaIiEEC1EOS1_"
 "_ZNSt6vectorIiSaIiEEC1ERKS1_"
 "_ZNSt6vectorIiSaIiEEC1Ev"
 "_ZNSt6vectorIiSaIiEED1Ev"
 "_ZNSt6vectorIjSaIjEE11_S_max_sizeERKS0_"
 "_ZNSt6vectorIjSaIjEE11_S_relocateEPjS2_S2_RS0_"
 "_ZNSt6vectorIjSaIjEE12emplace_backIJjEEERjDpOT_"
 "_ZNSt6vectorIjSaIjEE15_M_erase_at_endEPj"
 "_ZNSt6vectorIjSaIjEE17_M_realloc_insertIJjEEEvN9__gnu_cxx17__normal_iteratorIPjS1_EEDpOT_"
 "_ZNSt6vectorIjSaIjEE17_M_realloc_insertIJRKjEEEvN9__gnu_cxx17__normal_iteratorIPjS1_EEDpOT_"
 "_ZNSt6vectorIjSaIjEE3endEv"
 "_ZNSt6vectorIjSaIjEE4backEv"
 "_ZNSt6vectorIjSaIjEE4dataEv"
 "_ZNSt6vectorIjSaIjEE5beginEv"
 "_ZNSt6vectorIjSaIjEE5clearEv"
 "_ZNSt6vectorIjSaIjEE7reserveEy"
 "_ZNSt6vectorIjSaIjEE9push_backEOj"
 "_ZNSt6vectorIjSaIjEE9push_backERKj"
 "_ZNSt6vectorIjSaIjEEC1EOS1_"
 "_ZNSt6vectorIjSaIjEEC1Ev"
 "_ZNSt6vectorIjSaIjEED1Ev"
 "_ZNSt6vectorINSt7__cxx1112basic_stringIcSt11char_traitsIcESaIcEEESaIS5_EE11_S_max_sizeERKS6_"
 "_ZNSt6vectorINSt7__cxx1112basic_stringIcSt11char_traitsIcESaIcEEESaIS5_EE11_S_relocateEPS5_S8_S8_RS6_"
 "_ZNSt6vectorINSt7__cxx1112basic_stringIcSt11char_traitsIcESaIcEEESaIS5_EE17_M_realloc_insertIJRKS5_EEEvN9__gnu_cxx17__normal_iteratorIPS5_S7_EEDpOT_"
 "_ZNSt6vectorINSt7__cxx1112basic_stringIcSt11char_traitsIcESaIcEEESaIS5_EE3endEv"
 "_ZNSt6vectorINSt7__cxx1112basic_stringIcSt11char_traitsIcESaIcEEESaIS5_EE5beginEv"
 "_ZNSt6vectorINSt7__cxx1112basic_stringIcSt11char_traitsIcESaIcEEESaIS5_EE9push_backERKS5_"
 "_ZNSt6vectorINSt7__cxx1112basic_stringIcSt11char_traitsIcESaIcEEESaIS5_EEC1EOS7_"
 "_ZNSt6vectorINSt7__cxx1112basic_stringIcSt11char_traitsIcESaIcEEESaIS5_EEC1ERKS7_"
 "_ZNSt6vectorINSt7__cxx1112basic_stringIcSt11char_traitsIcESaIcEEESaIS5_EEC1Ev"
 "_ZNSt6vectorINSt7__cxx1112basic_stringIcSt11char_traitsIcESaIcEEESaIS5_EED1Ev"
 "_ZNSt6vectorINSt7__cxx1112regex_traitsIcE10_RegexMaskESaIS3_EE11_S_max_sizeERKS4_"
 "_ZNSt6vectorINSt7__cxx1112regex_traitsIcE10_RegexMaskESaIS3_EE11_S_relocateEPS3_S6_S6_RS4_"
 "_ZNSt6vectorINSt7__cxx1112regex_traitsIcE10_RegexMaskESaIS3_EE17_M_realloc_insertIJRKS3_EEEvN9__gnu_cxx17__normal_iteratorIPS3_S5_EEDpOT_"
 "_ZNSt6vectorINSt7__cxx1112regex_traitsIcE10_RegexMaskESaIS3_EE3endEv"
 "_ZNSt6vectorINSt7__cxx1112regex_traitsIcE10_RegexMaskESaIS3_EE5beginEv"
 "_ZNSt6vectorINSt7__cxx1112regex_traitsIcE10_RegexMaskESaIS3_EE9push_backERKS3_"
 "_ZNSt6vectorINSt7__cxx1112regex_traitsIcE10_RegexMaskESaIS3_EEC1EOS5_"
 "_ZNSt6vectorINSt7__cxx1112regex_traitsIcE10_RegexMaskESaIS3_EEC1ERKS5_"
 "_ZNSt6vectorINSt7__cxx1112regex_traitsIcE10_RegexMaskESaIS3_EEC1Ev"
 "_ZNSt6vectorINSt7__cxx1112regex_traitsIcE10_RegexMaskESaIS3_EED1Ev"
 "_ZNSt6vectorINSt7__cxx119sub_matchIN9__gnu_cxx17__normal_iteratorIPKcNS0_12basic_stringIcSt11char_traitsIcESaIcEEEEEEESaISC_EE11_S_max_sizeERKSD_"
 "_ZNSt6vectorINSt7__cxx119sub_matchIN9__gnu_cxx17__normal_iteratorIPKcNS0_12basic_stringIcSt11char_traitsIcESaIcEEEEEEESaISC_EE14_M_fill_assignEyRKSC_"
 "_ZNSt6vectorINSt7__cxx119sub_matchIN9__gnu_cxx17__normal_iteratorIPKcNS0_12basic_stringIcSt11char_traitsIcESaIcEEEEEEESaISC_EE14_M_move_assignEOSE_St17integral_constantIbLb1EE"
 "_ZNSt6vectorINSt7__cxx119sub_matchIN9__gnu_cxx17__normal_iteratorIPKcNS0_12basic_stringIcSt11char_traitsIcESaIcEEEEEEESaISC_EE15_M_erase_at_endEPSC_"
 "_ZNSt6vectorINSt7__cxx119sub_matchIN9__gnu_cxx17__normal_iteratorIPKcNS0_12basic_stringIcSt11char_traitsIcESaIcEEEEEEESaISC_EE17_S_check_init_lenEyRKSD_"
 "_ZNSt6vectorINSt7__cxx119sub_matchIN9__gnu_cxx17__normal_iteratorIPKcNS0_12basic_stringIcSt11char_traitsIcESaIcEEEEEEESaISC_EE18_M_fill_initializeEyRKSC_"
 "_ZNSt6vectorINSt7__cxx119sub_matchIN9__gnu_cxx17__normal_iteratorIPKcNS0_12basic_stringIcSt11char_traitsIcESaIcEEEEEEESaISC_EE20_M_allocate_and_copyINS3_IPKSC_SE_EEEEPSC_yT_SK_"
 "_ZNSt6vectorINSt7__cxx119sub_matchIN9__gnu_cxx17__normal_iteratorIPKcNS0_12basic_stringIcSt11char_traitsIcESaIcEEEEEEESaISC_EE3endEv"
 "_ZNSt6vectorINSt7__cxx119sub_matchIN9__gnu_cxx17__normal_iteratorIPKcNS0_12basic_stringIcSt11char_traitsIcESaIcEEEEEEESaISC_EE5beginEv"
 "_ZNSt6vectorINSt7__cxx119sub_matchIN9__gnu_cxx17__normal_iteratorIPKcNS0_12basic_stringIcSt11char_traitsIcESaIcEEEEEEESaISC_EE5clearEv"
 "_ZNSt6vectorINSt7__cxx119sub_matchIN9__gnu_cxx17__normal_iteratorIPKcNS0_12basic_stringIcSt11char_traitsIcESaIcEEEEEEESaISC_EE6assignEyRKSC_"
 "_ZNSt6vectorINSt7__cxx119sub_matchIN9__gnu_cxx17__normal_iteratorIPKcNS0_12basic_stringIcSt11char_traitsIcESaIcEEEEEEESaISC_EEaSEOSE_"
 "_ZNSt6vectorINSt7__cxx119sub_matchIN9__gnu_cxx17__normal_iteratorIPKcNS0_12basic_stringIcSt11char_traitsIcESaIcEEEEEEESaISC_EEaSERKSE_"
 "_ZNSt6vectorINSt7__cxx119sub_matchIN9__gnu_cxx17__normal_iteratorIPKcNS0_12basic_stringIcSt11char_traitsIcESaIcEEEEEEESaISC_EEC1EOSE_"
 "_ZNSt6vectorINSt7__cxx119sub_matchIN9__gnu_cxx17__normal_iteratorIPKcNS0_12basic_stringIcSt11char_traitsIcESaIcEEEEEEESaISC_EEC1EOSE_RKSD_"
 "_ZNSt6vectorINSt7__cxx119sub_matchIN9__gnu_cxx17__normal_iteratorIPKcNS0_12basic_stringIcSt11char_traitsIcESaIcEEEEEEESaISC_EEC1EOSE_RKSD_St17integral_constantIbLb1EE"
 "_ZNSt6vectorINSt7__cxx119sub_matchIN9__gnu_cxx17__normal_iteratorIPKcNS0_12basic_stringIcSt11char_traitsIcESaIcEEEEEEESaISC_EEC1ERKSD_"
 "_ZNSt6vectorINSt7__cxx119sub_matchIN9__gnu_cxx17__normal_iteratorIPKcNS0_12basic_stringIcSt11char_traitsIcESaIcEEEEEEESaISC_EEC1ERKSE_"
 "_ZNSt6vectorINSt7__cxx119sub_matchIN9__gnu_cxx17__normal_iteratorIPKcNS0_12basic_stringIcSt11char_traitsIcESaIcEEEEEEESaISC_EEC1EyRKSC_RKSD_"
 "_ZNSt6vectorINSt7__cxx119sub_matchIN9__gnu_cxx17__normal_iteratorIPKcNS0_12basic_stringIcSt11char_traitsIcESaIcEEEEEEESaISC_EEC2ERKSD_"
 "_ZNSt6vectorINSt7__cxx119sub_matchIN9__gnu_cxx17__normal_iteratorIPKcNS0_12basic_stringIcSt11char_traitsIcESaIcEEEEEEESaISC_EED1Ev"
 "_ZNSt6vectorINSt7__cxx119sub_matchIN9__gnu_cxx17__normal_iteratorIPKcNS0_12basic_stringIcSt11char_traitsIcESaIcEEEEEEESaISC_EED2Ev"
 "_ZNSt6vectorINSt7__cxx119sub_matchIN9__gnu_cxx17__normal_iteratorIPKcNS0_12basic_stringIcSt11char_traitsIcESaIcEEEEEEESaISC_EEixEy"
 "_ZNSt6vectorINSt8__detail6_StateIcEESaIS2_EE11_S_max_sizeERKS3_"
 "_ZNSt6vectorINSt8__detail6_StateIcEESaIS2_EE11_S_relocateEPS2_S5_S5_RS3_"
 "_ZNSt6vectorINSt8__detail6_StateIcEESaIS2_EE12emplace_backIJS2_EEERS2_DpOT_"
 "_ZNSt6vectorINSt8__detail6_StateIcEESaIS2_EE17_M_realloc_insertIJS2_EEEvN9__gnu_cxx17__normal_iteratorIPS2_S4_EEDpOT_"
 "_ZNSt6vectorINSt8__detail6_StateIcEESaIS2_EE3endEv"
 "_ZNSt6vectorINSt8__detail6_StateIcEESaIS2_EE4backEv"
 "_ZNSt6vectorINSt8__detail6_StateIcEESaIS2_EE5beginEv"
 "_ZNSt6vectorINSt8__detail6_StateIcEESaIS2_EE9push_backEOS2_"
 "_ZNSt6vectorINSt8__detail6_StateIcEESaIS2_EEC2Ev"
 "_ZNSt6vectorINSt8__detail6_StateIcEESaIS2_EED2Ev"
 "_ZNSt6vectorINSt8__detail6_StateIcEESaIS2_EEixEy"
 "_ZNSt6vectorIPK21llama_grammar_elementSaIS2_EE11_S_max_sizeERKS3_"
 "_ZNSt6vectorIPK21llama_grammar_elementSaIS2_EE11_S_relocateEPS2_S5_S5_RS3_"
